///////////////////////////////////////////////////////////////////////////////
//
// IAR C/C++ Compiler V10.10.1.4655 for 8051              24/Aug/2024  06:27:20
// Copyright 2004-2017 IAR Systems AB.
// Standalone license - IAR Embedded Workbench for 8051
//
//    Core               =  plain
//    Code model         =  banked
//    Data model         =  large
//    Calling convention =  xdata reentrant
//    Constant location  =  data_rom
//    Dptr setup         =  1,16
//                          
//    Source file        =  
//        C:\Texas
//        Instruments\ZStack-CC2530-2.5.1a\Components\mac\low_level\srf04\mac_rx.c
//    Command line       =  
//        -f C:\user\EWE456.tmp ("C:\Texas
//        Instruments\ZStack-CC2530-2.5.1a\Components\mac\low_level\srf04\mac_rx.c"
//        -D ZTOOL_P1 -D MT_TASK -D MT_SYS_FUNC -D MT_ZDO_FUNC -D
//        LCD_SUPPORTED=DEBUG -lC "C:\Texas
//        Instruments\ZStack-CC2530-2.5.1a\Projects\zstack\Samples\02_fan_wireless\CC2530DB\CoordinatorEB\List"
//        -lA "C:\Texas
//        Instruments\ZStack-CC2530-2.5.1a\Projects\zstack\Samples\02_fan_wireless\CC2530DB\CoordinatorEB\List"
//        --diag_suppress Pe001,Pa010 -o "C:\Texas
//        Instruments\ZStack-CC2530-2.5.1a\Projects\zstack\Samples\02_fan_wireless\CC2530DB\CoordinatorEB\Obj"
//        -e --debug --core=plain --dptr=16,1 --data_model=large
//        --code_model=banked --calling_convention=xdata_reentrant
//        --place_constants=data_rom --nr_virtual_regs 8 -f "C:\Texas
//        Instruments\ZStack-CC2530-2.5.1a\Projects\zstack\Samples\02_fan_wireless\CC2530DB\..\..\..\Tools\CC2530DB\f8wCoord.cfg"
//        (-DCPU32MHZ -DROOT=__near_func -DMAC_CFG_APP_PENDING_QUEUE=TRUE
//        -DMAC_CFG_TX_DATA_MAX=5 -DMAC_CFG_TX_MAX=8 -DMAC_CFG_RX_MAX=5
//        -DZDO_COORDINATOR -DRTR_NWK) -f "C:\Texas
//        Instruments\ZStack-CC2530-2.5.1a\Projects\zstack\Samples\02_fan_wireless\CC2530DB\..\..\..\Tools\CC2530DB\f8wConfig.cfg"
//        (-DZIGBEEPRO -DSECURE=0 -DZG_SECURE_DYNAMIC=0 -DREFLECTOR
//        -DDEFAULT_CHANLIST=0x00000800 -DZDAPP_CONFIG_PAN_ID=0xFFFF
//        -DNWK_START_DELAY=100 -DEXTENDED_JOINING_RANDOM_MASK=0x007F
//        -DBEACON_REQUEST_DELAY=100 -DBEACON_REQ_DELAY_MASK=0x00FF
//        -DLINK_STATUS_JITTER_MASK=0x007F -DROUTE_EXPIRY_TIME=30
//        -DAPSC_ACK_WAIT_DURATION_POLLED=3000 -DNWK_INDIRECT_MSG_TIMEOUT=7
//        -DMAX_RREQ_ENTRIES=8 -DAPSC_MAX_FRAME_RETRIES=3
//        -DNWK_MAX_DATA_RETRIES=2 -DMAX_POLL_FAILURE_RETRIES=2 -DMAX_BCAST=9
//        -DAPS_MAX_GROUPS=16 -DMAX_RTG_ENTRIES=40 -DNWK_MAX_BINDING_ENTRIES=4
//        -DMAX_BINDING_CLUSTER_IDS=4 "-DDEFAULT_KEY={0x01, 0x03, 0x05, 0x07,
//        0x09, 0x0B, 0x0D, 0x0F, 0x00, 0x02, 0x04, 0x06, 0x08, 0x0A, 0x0C,
//        0x0D}" -DMAC_MAX_FRAME_SIZE=116 -DZDNWKMGR_MIN_TRANSMISSIONS=20
//        "-DCONST=const __code" -DGENERIC=__generic -DRFD_RCVC_ALWAYS_ON=FALSE
//        -DPOLL_RATE=1000 -DQUEUED_POLL_RATE=100 -DRESPONSE_POLL_RATE=100
//        -DREJOIN_POLL_RATE=440) -I "C:\Texas
//        Instruments\ZStack-CC2530-2.5.1a\Projects\zstack\Samples\02_fan_wireless\CC2530DB\"
//        -I "C:\Texas
//        Instruments\ZStack-CC2530-2.5.1a\Projects\zstack\Samples\02_fan_wireless\CC2530DB\..\Source\"
//        -I "C:\Texas
//        Instruments\ZStack-CC2530-2.5.1a\Projects\zstack\Samples\02_fan_wireless\CC2530DB\..\..\..\ZMain\TI2530DB\"
//        -I "C:\Texas
//        Instruments\ZStack-CC2530-2.5.1a\Projects\zstack\Samples\02_fan_wireless\CC2530DB\..\..\..\..\..\Components\hal\include\"
//        -I "C:\Texas
//        Instruments\ZStack-CC2530-2.5.1a\Projects\zstack\Samples\02_fan_wireless\CC2530DB\..\..\..\..\..\Components\hal\target\CC2530EB\"
//        -I "C:\Texas
//        Instruments\ZStack-CC2530-2.5.1a\Projects\zstack\Samples\02_fan_wireless\CC2530DB\..\..\..\..\..\Components\mac\include\"
//        -I "C:\Texas
//        Instruments\ZStack-CC2530-2.5.1a\Projects\zstack\Samples\02_fan_wireless\CC2530DB\..\..\..\..\..\Components\mac\high_level\"
//        -I "C:\Texas
//        Instruments\ZStack-CC2530-2.5.1a\Projects\zstack\Samples\02_fan_wireless\CC2530DB\..\..\..\..\..\Components\mac\low_level\srf04\"
//        -I "C:\Texas
//        Instruments\ZStack-CC2530-2.5.1a\Projects\zstack\Samples\02_fan_wireless\CC2530DB\..\..\..\..\..\Components\mac\low_level\srf04\single_chip\"
//        -I "C:\Texas
//        Instruments\ZStack-CC2530-2.5.1a\Projects\zstack\Samples\02_fan_wireless\CC2530DB\..\..\..\..\..\Components\mt\"
//        -I "C:\Texas
//        Instruments\ZStack-CC2530-2.5.1a\Projects\zstack\Samples\02_fan_wireless\CC2530DB\..\..\..\..\..\Components\osal\include\"
//        -I "C:\Texas
//        Instruments\ZStack-CC2530-2.5.1a\Projects\zstack\Samples\02_fan_wireless\CC2530DB\..\..\..\..\..\Components\services\saddr\"
//        -I "C:\Texas
//        Instruments\ZStack-CC2530-2.5.1a\Projects\zstack\Samples\02_fan_wireless\CC2530DB\..\..\..\..\..\Components\services\sdata\"
//        -I "C:\Texas
//        Instruments\ZStack-CC2530-2.5.1a\Projects\zstack\Samples\02_fan_wireless\CC2530DB\..\..\..\..\..\Components\stack\af\"
//        -I "C:\Texas
//        Instruments\ZStack-CC2530-2.5.1a\Projects\zstack\Samples\02_fan_wireless\CC2530DB\..\..\..\..\..\Components\stack\nwk\"
//        -I "C:\Texas
//        Instruments\ZStack-CC2530-2.5.1a\Projects\zstack\Samples\02_fan_wireless\CC2530DB\..\..\..\..\..\Components\stack\sapi\"
//        -I "C:\Texas
//        Instruments\ZStack-CC2530-2.5.1a\Projects\zstack\Samples\02_fan_wireless\CC2530DB\..\..\..\..\..\Components\stack\sec\"
//        -I "C:\Texas
//        Instruments\ZStack-CC2530-2.5.1a\Projects\zstack\Samples\02_fan_wireless\CC2530DB\..\..\..\..\..\Components\stack\sys\"
//        -I "C:\Texas
//        Instruments\ZStack-CC2530-2.5.1a\Projects\zstack\Samples\02_fan_wireless\CC2530DB\..\..\..\..\..\Components\stack\zdo\"
//        -I "C:\Texas
//        Instruments\ZStack-CC2530-2.5.1a\Projects\zstack\Samples\02_fan_wireless\CC2530DB\..\..\..\..\..\Components\zmac\"
//        -I "C:\Texas
//        Instruments\ZStack-CC2530-2.5.1a\Projects\zstack\Samples\02_fan_wireless\CC2530DB\..\..\..\..\..\Components\zmac\f8w\"
//        -Ohz --require_prototypes --no_code_motion)
//    Locale             =  Chinese (Simplified)_China.936
//    List file          =  
//        C:\Texas
//        Instruments\ZStack-CC2530-2.5.1a\Projects\zstack\Samples\02_fan_wireless\CC2530DB\CoordinatorEB\List\mac_rx.s51
//
///////////////////////////////////////////////////////////////////////////////

        NAME mac_rx

        RTMODEL "__SystemLibrary", "CLib"
        RTMODEL "__calling_convention", "xdata_reentrant"
        RTMODEL "__code_model", "banked"
        RTMODEL "__core", "plain"
        RTMODEL "__data_model", "large"
        RTMODEL "__dptr_size", "16"
        RTMODEL "__extended_stack", "disabled"
        RTMODEL "__location_for_constants", "data"
        RTMODEL "__number_of_dptrs", "1"
        RTMODEL "__register_banks", "*"
        RTMODEL "__rt_version", "1"

        RSEG DOVERLAY:DATA:NOROOT(0)
        RSEG IOVERLAY:IDATA:NOROOT(0)
        RSEG ISTACK:IDATA:NOROOT(0)
        RSEG PSTACK:XDATA:NOROOT(0)
        RSEG XSTACK:XDATA:NOROOT(0)

        EXTERN ?V0
        EXTERN ?V1
        EXTERN ?V2
        EXTERN ?V3
        EXTERN ?V4
        EXTERN ?V5
        EXTERN ?V6
        EXTERN ?V7
        EXTERN ?ALLOC_XSTACK8
        EXTERN ?BANKED_ENTER_XDATA
        EXTERN ?BANKED_LEAVE_XDATA
        EXTERN ?BDISPATCH
        EXTERN ?BRET
        EXTERN ?CALL_IND
        EXTERN ?DEALLOC_XSTACK8
        EXTERN ?L_MOV_TO_X
        EXTERN ?PUSH_XSTACK_I_THREE
        EXTERN ?XSP
        EXTERN ?XSTACK_DISP0_8
        EXTERN __INIT_XDATA_Z

        PUBLIC `??macRxAckTxDoneCallback::?relay`
        FUNCTION `??macRxAckTxDoneCallback::?relay`,0203H
        PUBLIC `??macRxFifoOverflowIsr::?relay`
        FUNCTION `??macRxFifoOverflowIsr::?relay`,0203H
        PUBLIC `??macRxHaltCleanup::?relay`
        FUNCTION `??macRxHaltCleanup::?relay`,0203H
        PUBLIC `??macRxInit::?relay`
        FUNCTION `??macRxInit::?relay`,0203H
        PUBLIC `??macRxPromiscuousMode::?relay`
        FUNCTION `??macRxPromiscuousMode::?relay`,0203H
        PUBLIC `??macRxRadioPowerUpInit::?relay`
        FUNCTION `??macRxRadioPowerUpInit::?relay`,0203H
        PUBLIC `??macRxThresholdIsr::?relay`
        FUNCTION `??macRxThresholdIsr::?relay`,0203H
        PUBLIC `??macRxTxReset::?relay`
        FUNCTION `??macRxTxReset::?relay`,0203H
        FUNCTION `??rxAddrIsr::?relay`,0203H
        FUNCTION `??rxDiscardFrame::?relay`,0203H
        FUNCTION `??rxDiscardIsr::?relay`,0203H
        FUNCTION `??rxDone::?relay`,0203H
        FUNCTION `??rxFcsIsr::?relay`,0203H
        FUNCTION `??rxHaltCleanupFinalStep::?relay`,0203H
        FUNCTION `??rxPayloadIsr::?relay`,0203H
        FUNCTION `??rxPostRxUpdates::?relay`,0203H
        FUNCTION `??rxPrepPayload::?relay`,0203H
        FUNCTION `??rxStartIsr::?relay`,0203H
        PUBWEAK RFIRQF0
        PUBWEAK RFIRQF1
        PUBWEAK RFST
        PUBWEAK S1CON
        PUBWEAK _A_IEN0
        PUBLIC macRxAckTxDoneCallback
        FUNCTION macRxAckTxDoneCallback,021203H
        ARGFRAME XSTACK, 0, STACK
        LOCFRAME ISTACK, 2, STACK
        PUBLIC macRxActive
        PUBLIC macRxFifoOverflowIsr
        FUNCTION macRxFifoOverflowIsr,021203H
        ARGFRAME XSTACK, 0, STACK
        LOCFRAME ISTACK, 2, STACK
        PUBLIC macRxFilter
        PUBLIC macRxHaltCleanup
        FUNCTION macRxHaltCleanup,021203H
        ARGFRAME XSTACK, 0, STACK
        ARGFRAME IOVERLAY, 0, STATIC
        ARGFRAME DOVERLAY, 0, STATIC
        LOCFRAME ISTACK, 2, STACK
        PUBLIC macRxInit
        FUNCTION macRxInit,0203H
        ARGFRAME XSTACK, 0, STACK
        LOCFRAME ISTACK, 2, STACK
        PUBLIC macRxOutgoingAckFlag
        PUBLIC macRxPromiscuousMode
        FUNCTION macRxPromiscuousMode,021203H
        ARGFRAME XSTACK, 0, STACK
        ARGFRAME IOVERLAY, 0, STATIC
        ARGFRAME DOVERLAY, 0, STATIC
        LOCFRAME XSTACK, 9, STACK
        PUBLIC macRxRadioPowerUpInit
        FUNCTION macRxRadioPowerUpInit,0203H
        ARGFRAME XSTACK, 0, STACK
        LOCFRAME ISTACK, 2, STACK
        PUBLIC macRxThresholdIsr
        FUNCTION macRxThresholdIsr,021203H
        ARGFRAME XSTACK, 0, STACK
        LOCFRAME ISTACK, 2, STACK
        PUBLIC macRxTxReset
        FUNCTION macRxTxReset,021203H
        ARGFRAME XSTACK, 0, STACK
        LOCFRAME ISTACK, 2, STACK
        FUNCTION rxAddrIsr,0a1603H
        ARGFRAME XSTACK, 0, STACK
        LOCFRAME XSTACK, 30, STACK
        FUNCTION rxDiscardFrame,021203H
        ARGFRAME XSTACK, 18, STACK
        ARGFRAME IOVERLAY, 0, STATIC
        ARGFRAME DOVERLAY, 0, STATIC
        LOCFRAME ISTACK, 2, STACK
        FUNCTION rxDiscardIsr,021603H
        ARGFRAME XSTACK, 0, STACK
        LOCFRAME ISTACK, 2, STACK
        LOCFRAME XSTACK, 16, STACK
        FUNCTION rxDone,021203H
        ARGFRAME XSTACK, 18, STACK
        ARGFRAME IOVERLAY, 0, STATIC
        ARGFRAME DOVERLAY, 0, STATIC
        LOCFRAME ISTACK, 2, STACK
        FUNCTION rxFcsIsr,0a1603H
        ARGFRAME XSTACK, 0, STACK
        LOCFRAME ISTACK, 1, STACK
        LOCFRAME XSTACK, 10, STACK
        FUNCTION rxHaltCleanupFinalStep,021203H
        ARGFRAME XSTACK, 0, STACK
        ARGFRAME IOVERLAY, 0, STATIC
        ARGFRAME DOVERLAY, 0, STATIC
        LOCFRAME ISTACK, 2, STACK
        FUNCTION rxPayloadIsr,021603H
        ARGFRAME XSTACK, 0, STACK
        LOCFRAME ISTACK, 2, STACK
        FUNCTION rxPostRxUpdates,021203H
        ARGFRAME XSTACK, 18, STACK
        ARGFRAME IOVERLAY, 0, STATIC
        ARGFRAME DOVERLAY, 0, STATIC
        LOCFRAME ISTACK, 2, STACK
        FUNCTION rxPrepPayload,0203H
        ARGFRAME XSTACK, 30, STACK
        ARGFRAME IOVERLAY, 0, STATIC
        ARGFRAME DOVERLAY, 0, STATIC
        LOCFRAME ISTACK, 2, STACK
        FUNCTION rxStartIsr,0a1603H
        ARGFRAME XSTACK, 0, STACK
        LOCFRAME ISTACK, 1, STACK
        LOCFRAME XSTACK, 21, STACK
        
          CFI Names cfiNames0
          CFI StackFrame CFA_SP SP IDATA
          CFI StackFrame CFA_PSP16 PSP16 XDATA
          CFI StackFrame CFA_XSP16 XSP16 XDATA
          CFI StaticOverlayFrame CFA_IOVERLAY IOVERLAY
          CFI StaticOverlayFrame CFA_DOVERLAY DOVERLAY
          CFI Resource `PSW.CY`:1, `B.BR0`:1, `B.BR1`:1, `B.BR2`:1, `B.BR3`:1
          CFI Resource `B.BR4`:1, `B.BR5`:1, `B.BR6`:1, `B.BR7`:1, `VB.BR8`:1
          CFI Resource `VB.BR9`:1, `VB.BR10`:1, `VB.BR11`:1, `VB.BR12`:1
          CFI Resource `VB.BR13`:1, `VB.BR14`:1, `VB.BR15`:1, VB:8, B:8, A:8
          CFI Resource PSW:8, DPL0:8, DPH0:8, R0:8, R1:8, R2:8, R3:8, R4:8, R5:8
          CFI Resource R6:8, R7:8, V0:8, V1:8, V2:8, V3:8, V4:8, V5:8, V6:8, V7:8
          CFI Resource SP:8, PSPH:8, PSPL:8, PSP16:16, XSPH:8, XSPL:8, XSP16:16
          CFI VirtualResource ?RET:24
          CFI Resource ?BRET_EXT:8
          CFI VirtualResource ?RET_HIGH:8, ?RET_LOW:8
          CFI ResourceParts PSP16 PSPH, PSPL
          CFI ResourceParts XSP16 XSPH, XSPL
          CFI ResourceParts ?RET ?BRET_EXT, ?RET_HIGH, ?RET_LOW
          CFI EndNames cfiNames0
        
          CFI Common cfiCommon0 Using cfiNames0
          CFI CodeAlign 1
          CFI DataAlign -1
          CFI ReturnAddress ?RET CODE
          CFI CFA_DOVERLAY Used
          CFI CFA_IOVERLAY Used
          CFI CFA_SP SP+-3
          CFI CFA_PSP16 PSP16+0
          CFI CFA_XSP16 XSP16+0
          CFI `PSW.CY` SameValue
          CFI `B.BR0` SameValue
          CFI `B.BR1` SameValue
          CFI `B.BR2` SameValue
          CFI `B.BR3` SameValue
          CFI `B.BR4` SameValue
          CFI `B.BR5` SameValue
          CFI `B.BR6` SameValue
          CFI `B.BR7` SameValue
          CFI `VB.BR8` SameValue
          CFI `VB.BR9` SameValue
          CFI `VB.BR10` SameValue
          CFI `VB.BR11` SameValue
          CFI `VB.BR12` SameValue
          CFI `VB.BR13` SameValue
          CFI `VB.BR14` SameValue
          CFI `VB.BR15` SameValue
          CFI VB SameValue
          CFI B Undefined
          CFI A Undefined
          CFI PSW SameValue
          CFI DPL0 SameValue
          CFI DPH0 SameValue
          CFI R0 Undefined
          CFI R1 Undefined
          CFI R2 Undefined
          CFI R3 Undefined
          CFI R4 Undefined
          CFI R5 Undefined
          CFI R6 SameValue
          CFI R7 SameValue
          CFI V0 SameValue
          CFI V1 SameValue
          CFI V2 SameValue
          CFI V3 SameValue
          CFI V4 SameValue
          CFI V5 SameValue
          CFI V6 SameValue
          CFI V7 SameValue
          CFI PSPH Undefined
          CFI PSPL Undefined
          CFI XSPH Undefined
          CFI XSPL Undefined
          CFI ?RET Concat
          CFI ?BRET_EXT Frame(CFA_SP, 3)
          CFI ?RET_HIGH Frame(CFA_SP, 2)
          CFI ?RET_LOW Frame(CFA_SP, 1)
          CFI EndCommon cfiCommon0
        
        
          CFI Common cfiCommon1 Using cfiNames0
          CFI CodeAlign 1
          CFI DataAlign -1
          CFI ReturnAddress ?RET CODE
          CFI CFA_DOVERLAY Used
          CFI CFA_IOVERLAY Used
          CFI CFA_SP SP+-2
          CFI CFA_PSP16 PSP16+0
          CFI CFA_XSP16 XSP16+0
          CFI `PSW.CY` SameValue
          CFI `B.BR0` SameValue
          CFI `B.BR1` SameValue
          CFI `B.BR2` SameValue
          CFI `B.BR3` SameValue
          CFI `B.BR4` SameValue
          CFI `B.BR5` SameValue
          CFI `B.BR6` SameValue
          CFI `B.BR7` SameValue
          CFI `VB.BR8` SameValue
          CFI `VB.BR9` SameValue
          CFI `VB.BR10` SameValue
          CFI `VB.BR11` SameValue
          CFI `VB.BR12` SameValue
          CFI `VB.BR13` SameValue
          CFI `VB.BR14` SameValue
          CFI `VB.BR15` SameValue
          CFI VB SameValue
          CFI B SameValue
          CFI A SameValue
          CFI PSW SameValue
          CFI DPL0 SameValue
          CFI DPH0 SameValue
          CFI R0 SameValue
          CFI R1 SameValue
          CFI R2 SameValue
          CFI R3 SameValue
          CFI R4 SameValue
          CFI R5 SameValue
          CFI R6 SameValue
          CFI R7 SameValue
          CFI V0 SameValue
          CFI V1 SameValue
          CFI V2 SameValue
          CFI V3 SameValue
          CFI V4 SameValue
          CFI V5 SameValue
          CFI V6 SameValue
          CFI V7 SameValue
          CFI PSPH Undefined
          CFI PSPL Undefined
          CFI XSPH Undefined
          CFI XSPL Undefined
          CFI ?RET Concat
          CFI ?BRET_EXT SameValue
          CFI ?RET_HIGH Frame(CFA_SP, 2)
          CFI ?RET_LOW Frame(CFA_SP, 1)
          CFI EndCommon cfiCommon1
        
MAC_SrcMatchCheckAllPending SYMBOL "MAC_SrcMatchCheckAllPending"
`??MAC_SrcMatchCheckAllPending::?relay` SYMBOL "?relay", MAC_SrcMatchCheckAllPending
MAC_SrcMatchCheckResult SYMBOL "MAC_SrcMatchCheckResult"
`??MAC_SrcMatchCheckResult::?relay` SYMBOL "?relay", MAC_SrcMatchCheckResult
halAssertHandler    SYMBOL "halAssertHandler"
`??halAssertHandler::?relay` SYMBOL "?relay", halAssertHandler
macCspForceTxDoneIfPending SYMBOL "macCspForceTxDoneIfPending"
`??macCspForceTxDoneIfPending::?relay` SYMBOL "?relay", macCspForceTxDoneIfPending
macDataRxMemAlloc   SYMBOL "macDataRxMemAlloc"
`??macDataRxMemAlloc::?relay` SYMBOL "?relay", macDataRxMemAlloc
macDataRxMemFree    SYMBOL "macDataRxMemFree"
`??macDataRxMemFree::?relay` SYMBOL "?relay", macDataRxMemFree
macMcuOverflowCapture SYMBOL "macMcuOverflowCapture"
`??macMcuOverflowCapture::?relay` SYMBOL "?relay", macMcuOverflowCapture
macMcuTimerCapture  SYMBOL "macMcuTimerCapture"
`??macMcuTimerCapture::?relay` SYMBOL "?relay", macMcuTimerCapture
macMemReadRxFifo    SYMBOL "macMemReadRxFifo"
`??macMemReadRxFifo::?relay` SYMBOL "?relay", macMemReadRxFifo
macRadioComputeLQI  SYMBOL "macRadioComputeLQI"
`??macRadioComputeLQI::?relay` SYMBOL "?relay", macRadioComputeLQI
macRadioUpdateTxPower SYMBOL "macRadioUpdateTxPower"
`??macRadioUpdateTxPower::?relay` SYMBOL "?relay", macRadioUpdateTxPower
macRxCheckMACPendingCallback SYMBOL "macRxCheckMACPendingCallback"
`??macRxCheckMACPendingCallback::?relay` SYMBOL "?relay", macRxCheckMACPendingCallback
macRxCheckPendingCallback SYMBOL "macRxCheckPendingCallback"
`??macRxCheckPendingCallback::?relay` SYMBOL "?relay", macRxCheckPendingCallback
macRxCompleteCallback SYMBOL "macRxCompleteCallback"
`??macRxCompleteCallback::?relay` SYMBOL "?relay", macRxCompleteCallback
macRxHardDisable    SYMBOL "macRxHardDisable"
`??macRxHardDisable::?relay` SYMBOL "?relay", macRxHardDisable
macRxOffRequest     SYMBOL "macRxOffRequest"
`??macRxOffRequest::?relay` SYMBOL "?relay", macRxOffRequest
macTxAckNotReceivedCallback SYMBOL "macTxAckNotReceivedCallback"
`??macTxAckNotReceivedCallback::?relay` SYMBOL "?relay", macTxAckNotReceivedCallback
macTxAckReceivedCallback SYMBOL "macTxAckReceivedCallback"
`??macTxAckReceivedCallback::?relay` SYMBOL "?relay", macTxAckReceivedCallback
macTxStartQueuedFrame SYMBOL "macTxStartQueuedFrame"
`??macTxStartQueuedFrame::?relay` SYMBOL "?relay", macTxStartQueuedFrame
osal_memcpy         SYMBOL "osal_memcpy"
`??osal_memcpy::?relay` SYMBOL "?relay", osal_memcpy
sAddrExtCpy         SYMBOL "sAddrExtCpy"
`??sAddrExtCpy::?relay` SYMBOL "?relay", sAddrExtCpy
macRxAckTxDoneCallback SYMBOL "macRxAckTxDoneCallback"
`??macRxAckTxDoneCallback::?relay` SYMBOL "?relay", macRxAckTxDoneCallback
macRxFifoOverflowIsr SYMBOL "macRxFifoOverflowIsr"
`??macRxFifoOverflowIsr::?relay` SYMBOL "?relay", macRxFifoOverflowIsr
macRxHaltCleanup    SYMBOL "macRxHaltCleanup"
`??macRxHaltCleanup::?relay` SYMBOL "?relay", macRxHaltCleanup
macRxInit           SYMBOL "macRxInit"
`??macRxInit::?relay` SYMBOL "?relay", macRxInit
macRxPromiscuousMode SYMBOL "macRxPromiscuousMode"
`??macRxPromiscuousMode::?relay` SYMBOL "?relay", macRxPromiscuousMode
macRxRadioPowerUpInit SYMBOL "macRxRadioPowerUpInit"
`??macRxRadioPowerUpInit::?relay` SYMBOL "?relay", macRxRadioPowerUpInit
macRxThresholdIsr   SYMBOL "macRxThresholdIsr"
`??macRxThresholdIsr::?relay` SYMBOL "?relay", macRxThresholdIsr
macRxTxReset        SYMBOL "macRxTxReset"
`??macRxTxReset::?relay` SYMBOL "?relay", macRxTxReset

        EXTERN `??MAC_SrcMatchCheckAllPending::?relay`
        FUNCTION `??MAC_SrcMatchCheckAllPending::?relay`,00H
        EXTERN `??MAC_SrcMatchCheckResult::?relay`
        FUNCTION `??MAC_SrcMatchCheckResult::?relay`,00H
        EXTERN `??halAssertHandler::?relay`
        FUNCTION `??halAssertHandler::?relay`,00H
        EXTERN `??macCspForceTxDoneIfPending::?relay`
        FUNCTION `??macCspForceTxDoneIfPending::?relay`,00H
        EXTERN `??macDataRxMemAlloc::?relay`
        FUNCTION `??macDataRxMemAlloc::?relay`,00H
        EXTERN `??macDataRxMemFree::?relay`
        FUNCTION `??macDataRxMemFree::?relay`,00H
        EXTERN `??macMcuOverflowCapture::?relay`
        FUNCTION `??macMcuOverflowCapture::?relay`,00H
        EXTERN `??macMcuTimerCapture::?relay`
        FUNCTION `??macMcuTimerCapture::?relay`,00H
        EXTERN `??macMemReadRxFifo::?relay`
        FUNCTION `??macMemReadRxFifo::?relay`,00H
        EXTERN `??macRadioComputeLQI::?relay`
        FUNCTION `??macRadioComputeLQI::?relay`,00H
        EXTERN `??macRadioUpdateTxPower::?relay`
        FUNCTION `??macRadioUpdateTxPower::?relay`,00H
        EXTERN `??macRxCheckMACPendingCallback::?relay`
        FUNCTION `??macRxCheckMACPendingCallback::?relay`,00H
        EXTERN `??macRxCheckPendingCallback::?relay`
        FUNCTION `??macRxCheckPendingCallback::?relay`,00H
        EXTERN `??macRxCompleteCallback::?relay`
        FUNCTION `??macRxCompleteCallback::?relay`,00H
        EXTERN `??macRxHardDisable::?relay`
        FUNCTION `??macRxHardDisable::?relay`,00H
        EXTERN `??macRxOffRequest::?relay`
        FUNCTION `??macRxOffRequest::?relay`,00H
        EXTERN `??macTxAckNotReceivedCallback::?relay`
        FUNCTION `??macTxAckNotReceivedCallback::?relay`,00H
        EXTERN `??macTxAckReceivedCallback::?relay`
        FUNCTION `??macTxAckReceivedCallback::?relay`,00H
        EXTERN `??macTxStartQueuedFrame::?relay`
        FUNCTION `??macTxStartQueuedFrame::?relay`,00H
        EXTERN `??osal_memcpy::?relay`
        FUNCTION `??osal_memcpy::?relay`,00H
        EXTERN `??sAddrExtCpy::?relay`
        FUNCTION `??sAddrExtCpy::?relay`,00H
        EXTERN MAC_SrcMatchCheckAllPending
        FUNCTION MAC_SrcMatchCheckAllPending,0202H
        ARGFRAME ISTACK, 0, STACK
        ARGFRAME PSTACK, 0, STACK
        ARGFRAME XSTACK, 18, STACK
        ARGFRAME IOVERLAY, 0, STATIC
        ARGFRAME DOVERLAY, 0, STATIC
        EXTERN MAC_SrcMatchCheckResult
        FUNCTION MAC_SrcMatchCheckResult,0202H
        ARGFRAME ISTACK, 0, STACK
        ARGFRAME PSTACK, 0, STACK
        ARGFRAME XSTACK, 10, STACK
        ARGFRAME IOVERLAY, 0, STATIC
        ARGFRAME DOVERLAY, 0, STATIC
        EXTERN halAssertHandler
        FUNCTION halAssertHandler,0202H
        ARGFRAME ISTACK, 2, STACK
        ARGFRAME PSTACK, 0, STACK
        ARGFRAME XSTACK, 30, STACK
        ARGFRAME IOVERLAY, 0, STATIC
        ARGFRAME DOVERLAY, 0, STATIC
        EXTERN macChipVersion
        EXTERN macCspForceTxDoneIfPending
        FUNCTION macCspForceTxDoneIfPending,0202H
        ARGFRAME ISTACK, 0, STACK
        ARGFRAME PSTACK, 0, STACK
        ARGFRAME XSTACK, 18, STACK
        ARGFRAME IOVERLAY, 0, STATIC
        ARGFRAME DOVERLAY, 0, STATIC
        EXTERN macDataRxMemAlloc
        FUNCTION macDataRxMemAlloc,0202H
        ARGFRAME ISTACK, 0, STACK
        ARGFRAME PSTACK, 0, STACK
        ARGFRAME XSTACK, 18, STACK
        ARGFRAME IOVERLAY, 0, STATIC
        ARGFRAME DOVERLAY, 0, STATIC
        EXTERN macDataRxMemFree
        FUNCTION macDataRxMemFree,0202H
        ARGFRAME ISTACK, 2, STACK
        ARGFRAME PSTACK, 0, STACK
        ARGFRAME XSTACK, 10, STACK
        ARGFRAME IOVERLAY, 0, STATIC
        ARGFRAME DOVERLAY, 0, STATIC
        EXTERN macMcuOverflowCapture
        FUNCTION macMcuOverflowCapture,0202H
        ARGFRAME ISTACK, 0, STACK
        ARGFRAME PSTACK, 0, STACK
        ARGFRAME XSTACK, 18, STACK
        ARGFRAME IOVERLAY, 0, STATIC
        ARGFRAME DOVERLAY, 0, STATIC
        EXTERN macMcuTimerCapture
        FUNCTION macMcuTimerCapture,0202H
        ARGFRAME ISTACK, 0, STACK
        ARGFRAME PSTACK, 0, STACK
        ARGFRAME XSTACK, 18, STACK
        ARGFRAME IOVERLAY, 0, STATIC
        ARGFRAME DOVERLAY, 0, STATIC
        EXTERN macMemReadRxFifo
        FUNCTION macMemReadRxFifo,0202H
        ARGFRAME ISTACK, 2, STACK
        ARGFRAME PSTACK, 0, STACK
        ARGFRAME XSTACK, 30, STACK
        ARGFRAME IOVERLAY, 0, STATIC
        ARGFRAME DOVERLAY, 0, STATIC
        EXTERN macRadioComputeLQI
        FUNCTION macRadioComputeLQI,0202H
        ARGFRAME ISTACK, 0, STACK
        ARGFRAME PSTACK, 0, STACK
        ARGFRAME XSTACK, 18, STACK
        ARGFRAME IOVERLAY, 0, STATIC
        ARGFRAME DOVERLAY, 0, STATIC
        EXTERN macRadioUpdateTxPower
        FUNCTION macRadioUpdateTxPower,0202H
        ARGFRAME ISTACK, 2, STACK
        ARGFRAME PSTACK, 0, STACK
        ARGFRAME XSTACK, 0, STACK
        ARGFRAME IOVERLAY, 0, STATIC
        ARGFRAME DOVERLAY, 0, STATIC
        EXTERN macRxCheckMACPendingCallback
        FUNCTION macRxCheckMACPendingCallback,0202H
        ARGFRAME ISTACK, 0, STACK
        ARGFRAME PSTACK, 0, STACK
        ARGFRAME XSTACK, 18, STACK
        ARGFRAME IOVERLAY, 0, STATIC
        ARGFRAME DOVERLAY, 0, STATIC
        EXTERN macRxCheckPendingCallback
        FUNCTION macRxCheckPendingCallback,0202H
        ARGFRAME ISTACK, 0, STACK
        ARGFRAME PSTACK, 0, STACK
        ARGFRAME XSTACK, 18, STACK
        ARGFRAME IOVERLAY, 0, STATIC
        ARGFRAME DOVERLAY, 0, STATIC
        EXTERN macRxCompleteCallback
        FUNCTION macRxCompleteCallback,0202H
        ARGFRAME ISTACK, 0, STACK
        ARGFRAME PSTACK, 0, STACK
        ARGFRAME XSTACK, 10, STACK
        ARGFRAME IOVERLAY, 0, STATIC
        ARGFRAME DOVERLAY, 0, STATIC
        EXTERN macRxHardDisable
        FUNCTION macRxHardDisable,0202H
        ARGFRAME ISTACK, 2, STACK
        ARGFRAME PSTACK, 0, STACK
        ARGFRAME XSTACK, 0, STACK
        ARGFRAME IOVERLAY, 0, STATIC
        ARGFRAME DOVERLAY, 0, STATIC
        EXTERN macRxOffRequest
        FUNCTION macRxOffRequest,0202H
        ARGFRAME ISTACK, 2, STACK
        ARGFRAME PSTACK, 0, STACK
        ARGFRAME XSTACK, 10, STACK
        ARGFRAME IOVERLAY, 0, STATIC
        ARGFRAME DOVERLAY, 0, STATIC
        EXTERN macRxOnFlag
        EXTERN macSrcMatchIsEnabled
        EXTERN macTxAckNotReceivedCallback
        FUNCTION macTxAckNotReceivedCallback,0202H
        ARGFRAME ISTACK, 0, STACK
        ARGFRAME PSTACK, 0, STACK
        ARGFRAME XSTACK, 18, STACK
        ARGFRAME IOVERLAY, 0, STATIC
        ARGFRAME DOVERLAY, 0, STATIC
        EXTERN macTxAckReceivedCallback
        FUNCTION macTxAckReceivedCallback,0202H
        ARGFRAME ISTACK, 0, STACK
        ARGFRAME PSTACK, 0, STACK
        ARGFRAME XSTACK, 18, STACK
        ARGFRAME IOVERLAY, 0, STATIC
        ARGFRAME DOVERLAY, 0, STATIC
        EXTERN macTxActive
        EXTERN macTxStartQueuedFrame
        FUNCTION macTxStartQueuedFrame,0202H
        ARGFRAME ISTACK, 2, STACK
        ARGFRAME PSTACK, 0, STACK
        ARGFRAME XSTACK, 0, STACK
        ARGFRAME IOVERLAY, 0, STATIC
        ARGFRAME DOVERLAY, 0, STATIC
        EXTERN osal_memcpy
        FUNCTION osal_memcpy,0202H
        ARGFRAME ISTACK, 0, STACK
        ARGFRAME PSTACK, 0, STACK
        ARGFRAME XSTACK, 21, STACK
        ARGFRAME IOVERLAY, 0, STATIC
        ARGFRAME DOVERLAY, 0, STATIC
        EXTERN pMacDataTx
        EXTERN sAddrExtCpy
        FUNCTION sAddrExtCpy,0202H
        ARGFRAME ISTACK, 0, STACK
        ARGFRAME PSTACK, 0, STACK
        ARGFRAME XSTACK, 30, STACK
        ARGFRAME IOVERLAY, 0, STATIC
        ARGFRAME DOVERLAY, 0, STATIC

// C:\Texas Instruments\ZStack-CC2530-2.5.1a\Components\mac\low_level\srf04\mac_rx.c
//    1 /**************************************************************************************************
//    2   Filename:       mac_rx.c
//    3   Revised:        $Date: 2007-10-08 14:05:36 -0700 (Mon, 08 Oct 2007) $
//    4   Revision:       $Revision: 15624 $
//    5 
//    6   Description:    Describe the purpose and contents of the file.
//    7 
//    8 
//    9   Copyright 2006-2012 Texas Instruments Incorporated. All rights reserved.
//   10 
//   11   IMPORTANT: Your use of this Software is limited to those specific rights
//   12   granted under the terms of a software license agreement between the user
//   13   who downloaded the software, his/her employer (which must be your employer)
//   14   and Texas Instruments Incorporated (the "License").  You may not use this
//   15   Software unless you agree to abide by the terms of the License. The License
//   16   limits your use, and you acknowledge, that the Software may not be modified,
//   17   copied or distributed unless embedded on a Texas Instruments microcontroller
//   18   or used solely and exclusively in conjunction with a Texas Instruments radio
//   19   frequency transceiver, which is integrated into your product.  Other than for
//   20   the foregoing purpose, you may not use, reproduce, copy, prepare derivative
//   21   works of, modify, distribute, perform, display or sell this Software and/or
//   22   its documentation for any purpose.
//   23 
//   24   YOU FURTHER ACKNOWLEDGE AND AGREE THAT THE SOFTWARE AND DOCUMENTATION ARE
//   25   PROVIDED “AS IS” WITHOUT WARRANTY OF ANY KIND, EITHER EXPRESS OR IMPLIED,
//   26   INCLUDING WITHOUT LIMITATION, ANY WARRANTY OF MERCHANTABILITY, TITLE,
//   27   NON-INFRINGEMENT AND FITNESS FOR A PARTICULAR PURPOSE. IN NO EVENT SHALL
//   28   TEXAS INSTRUMENTS OR ITS LICENSORS BE LIABLE OR OBLIGATED UNDER CONTRACT,
//   29   NEGLIGENCE, STRICT LIABILITY, CONTRIBUTION, BREACH OF WARRANTY, OR OTHER
//   30   LEGAL EQUITABLE THEORY ANY DIRECT OR INDIRECT DAMAGES OR EXPENSES
//   31   INCLUDING BUT NOT LIMITED TO ANY INCIDENTAL, SPECIAL, INDIRECT, PUNITIVE
//   32   OR CONSEQUENTIAL DAMAGES, LOST PROFITS OR LOST DATA, COST OF PROCUREMENT
//   33   OF SUBSTITUTE GOODS, TECHNOLOGY, SERVICES, OR ANY CLAIMS BY THIRD PARTIES
//   34   (INCLUDING BUT NOT LIMITED TO ANY DEFENSE THEREOF), OR OTHER SIMILAR COSTS.
//   35 
//   36   Should you have any questions regarding your right to use this Software,
//   37   contact Texas Instruments Incorporated at www.TI.com.
//   38 **************************************************************************************************/
//   39 
//   40 /* ------------------------------------------------------------------------------------------------
//   41  *                                          Includes
//   42  * ------------------------------------------------------------------------------------------------
//   43  */
//   44 
//   45 /* hal */
//   46 #include "hal_defs.h"
//   47 #include "hal_types.h"
//   48 
//   49 /* OSAL */
//   50 #include "OSAL.h"
//   51 
//   52 /* high-level */
//   53 #include "mac_high_level.h"
//   54 #include "mac_spec.h"
//   55 
//   56 /* MAC security */
//   57 #include "mac_security.h"
//   58 
//   59 /* exported low-level */
//   60 #include "mac_low_level.h"
//   61 
//   62 /* low-level specific */
//   63 #include "mac_rx.h"
//   64 #include "mac_tx.h"
//   65 #include "mac_rx_onoff.h"
//   66 #include "mac_radio.h"
//   67 
//   68 /* target specific */
//   69 #include "mac_radio_defs.h"

        ASEGN SFR_AN:DATA:NOROOT,091H
// unsigned char volatile __sfr RFIRQF1
RFIRQF1:
        DATA8
        DS 1

        ASEGN SFR_AN:DATA:NOROOT,09bH
// unsigned char volatile __sfr S1CON
S1CON:
        DATA8
        DS 1

        ASEGN SFR_AN:DATA:NOROOT,0a8H
// union <unnamed> volatile __sfr _A_IEN0
_A_IEN0:
        DATA8
        DS 1

        ASEGN SFR_AN:DATA:NOROOT,0e1H
// unsigned char volatile __sfr RFST
RFST:
        DATA8
        DS 1

        ASEGN SFR_AN:DATA:NOROOT,0e9H
// unsigned char volatile __sfr RFIRQF0
RFIRQF0:
        DATA8
        DS 1
//   70 #include "mac_autopend.h"
//   71 
//   72 /* debug */
//   73 #include "mac_assert.h"
//   74 
//   75 
//   76 /* ------------------------------------------------------------------------------------------------
//   77  *                                            Defines
//   78  * ------------------------------------------------------------------------------------------------
//   79  */
//   80 #define MAX_PAYLOAD_BYTES_READ_PER_INTERRUPT   16   /* adjustable to tune performance */
//   81 
//   82 /* receive FIFO bytes needed to start a valid receive (see function rxStartIsr for details) */
//   83 #define RX_THRESHOLD_START_LEN    (MAC_PHY_PHR_LEN        +  \ 
//   84                                    MAC_FCF_FIELD_LEN      +  \ 
//   85                                    MAC_SEQ_NUM_FIELD_LEN  +  \ 
//   86                                    MAC_FCS_FIELD_LEN)
//   87 
//   88 /* maximum size of addressing fields (note: command frame identifier processed as part of address) */
//   89 #define MAX_ADDR_FIELDS_LEN  ((MAC_EXT_ADDR_FIELD_LEN + MAC_PAN_ID_FIELD_LEN) * 2)
//   90 
//   91 /* addressing mode reserved value */
//   92 #define ADDR_MODE_RESERVERED  1
//   93 
//   94 /* length of command frame identifier */
//   95 #define CMD_FRAME_ID_LEN      1
//   96 
//   97 /* packet size mask is equal to the maximum value */
//   98 #define PHY_PACKET_SIZE_MASK  0x7F
//   99 
//  100 /* value for promiscuous off, must not conflict with other mode variants from separate include files */
//  101 #define PROMISCUOUS_MODE_OFF  0x00
//  102 
//  103 /* bit of proprietary FCS format that indicates if the CRC is OK */
//  104 #define PROPRIETARY_FCS_CRC_OK_BIT  0x80
//  105 
//  106 /* dummy length value for unused entry in lookup table */
//  107 #define DUMMY_LEN   0xBE
//  108 
//  109 /* value for rxThresholdIntState */
//  110 #define RX_THRESHOLD_INT_STATE_INACTIVE   0
//  111 #define RX_THRESHOLD_INT_STATE_ACTIVE     1
//  112 #define RX_THRESHOLD_INT_STATE_RESET      2
//  113 
//  114 
//  115 /* ------------------------------------------------------------------------------------------------
//  116  *                                             Macros
//  117  * ------------------------------------------------------------------------------------------------
//  118  */
//  119 #define MEM_ALLOC(x)   macDataRxMemAlloc(x)
//  120 #define MEM_FREE(x)    macDataRxMemFree((uint8 **)x)
//  121 
//  122 /*
//  123  *  Macro for encoding frame control information into internal flags format.
//  124  *  Parameter is pointer to the frame.  NOTE!  If either the internal frame
//  125  *  format *or* the specification changes, this macro will need to be modified.
//  126  */
//  127 #define INTERNAL_FCF_FLAGS(p)  ((((p)[1] >> 4) & 0x03) | ((p)[0] & 0x78))
//  128 
//  129 /*
//  130  *  The radio replaces the actual FCS with different information.  This proprietary FCS is
//  131  *  the same length as the original and includes:
//  132  *    1) the RSSI value
//  133  *    2) the average correlation value (used for LQI)
//  134  *    3) a CRC passed bit
//  135  *
//  136  *  These macros decode the proprietary FCS.  The macro parameter is a pointer to the two byte FCS.
//  137  */
//  138 #define PROPRIETARY_FCS_RSSI(p)                 ((int8)((p)[0]))
//  139 #define PROPRIETARY_FCS_CRC_OK(p)               ((p)[1] & PROPRIETARY_FCS_CRC_OK_BIT)
//  140 #define PROPRIETARY_FCS_CORRELATION_VALUE(p)    ((p)[1] & ~PROPRIETARY_FCS_CRC_OK_BIT)
//  141 
//  142 /*
//  143  *  Macros for security control field.
//  144  */
//  145 #define SECURITY_LEVEL(s)                       (s & 0x07)
//  146 #define KEY_IDENTIFIER_MODE(s)                  ((s & 0x18) >> 3)
//  147 #define SECURITY_CONTROL_RESERVED(s)            ((s & 0xE0) >> 5)
//  148 
//  149 /* ------------------------------------------------------------------------------------------------
//  150  *                                       Global Variables
//  151  * ------------------------------------------------------------------------------------------------
//  152  */

        RSEG XDATA_Z:XDATA:NOROOT(0)
        DATA8
//  153 uint8 macRxActive;
macRxActive:
        DS 1
        REQUIRE __INIT_XDATA_Z

        RSEG XDATA_Z:XDATA:NOROOT(0)
        DATA8
//  154 uint8 macRxFilter;
macRxFilter:
        DS 1
        REQUIRE __INIT_XDATA_Z

        RSEG XDATA_Z:XDATA:NOROOT(0)
        DATA8
//  155 uint8 macRxOutgoingAckFlag;
macRxOutgoingAckFlag:
        DS 1
        REQUIRE __INIT_XDATA_Z
//  156 
//  157 
//  158 /* ------------------------------------------------------------------------------------------------
//  159  *                                       Local Constants
//  160  * ------------------------------------------------------------------------------------------------
//  161  */

        RSEG CODE_C:CODE:REORDER:NOROOT(0)
        DATA32
//  162 static const uint8 CODE macRxAddrLen[] =
macRxAddrLen:
        DATA8
        DB 0
        DB 190
        DB 4
        DB 10
//  163 {
//  164   0,                                                /* no address */
//  165   DUMMY_LEN,                                        /* reserved */
//  166   MAC_PAN_ID_FIELD_LEN + MAC_SHORT_ADDR_FIELD_LEN,  /* short address + pan id */
//  167   MAC_PAN_ID_FIELD_LEN + MAC_EXT_ADDR_FIELD_LEN     /* extended address + pan id */
//  168 };
//  169 
//  170 
//  171 /* ------------------------------------------------------------------------------------------------
//  172  *                                       Local Prototypes
//  173  * ------------------------------------------------------------------------------------------------
//  174  */
//  175 static void rxHaltCleanupFinalStep(void);
//  176 
//  177 static void rxStartIsr(void);
//  178 static void rxAddrIsr(void);
//  179 
//  180 #ifdef MAC_SECURITY
//  181   static void rxSecurityHdrIsr(void);
//  182 #endif
//  183   
//  184 static void rxPayloadIsr(void);
//  185 static void rxDiscardIsr(void);
//  186 static void rxFcsIsr(void);
//  187 
//  188 static void rxPrepPayload(void);
//  189 static void rxDiscardFrame(void);
//  190 static void rxDone(void);
//  191 static void rxPostRxUpdates(void);
//  192 
//  193 
//  194 /* ------------------------------------------------------------------------------------------------
//  195  *                                         Local Variables
//  196  * ------------------------------------------------------------------------------------------------
//  197  */

        RSEG XDATA_Z:XDATA:NOROOT(0)
        DATA16
//  198 static void    (* pFuncRxState)(void);
pFuncRxState:
        DS 2
        REQUIRE __INIT_XDATA_Z

        RSEG XDATA_Z:XDATA:NOROOT(0)
        DATA16
//  199 static macRx_t  * pRxBuf;
pRxBuf:
        DS 2
        REQUIRE __INIT_XDATA_Z
//  200 

        RSEG XDATA_Z:XDATA:NOROOT(0)
        DATA32
//  201 static uint8  rxBuf[MAC_PHY_PHR_LEN + MAC_FCF_FIELD_LEN + MAC_SEQ_NUM_FIELD_LEN];
rxBuf:
        DS 4
        REQUIRE __INIT_XDATA_Z

        RSEG XDATA_Z:XDATA:NOROOT(0)
        DATA8
//  202 static uint8  rxUnreadLen;
rxUnreadLen:
        DS 1
        REQUIRE __INIT_XDATA_Z

        RSEG XDATA_Z:XDATA:NOROOT(0)
        DATA8
//  203 static uint8  rxNextLen;
rxNextLen:
        DS 1
        REQUIRE __INIT_XDATA_Z

        RSEG XDATA_Z:XDATA:NOROOT(0)
        DATA8
//  204 static uint8  rxPayloadLen;
rxPayloadLen:
        DS 1
        REQUIRE __INIT_XDATA_Z

        RSEG XDATA_Z:XDATA:NOROOT(0)
        DATA8
//  205 static uint8  rxFilter;
rxFilter:
        DS 1
        REQUIRE __INIT_XDATA_Z

        RSEG XDATA_Z:XDATA:NOROOT(0)
        DATA8
//  206 static uint8  rxPromiscuousMode;
rxPromiscuousMode:
        DS 1
        REQUIRE __INIT_XDATA_Z

        RSEG XDATA_Z:XDATA:NOROOT(0)
        DATA8
//  207 static uint8  rxIsrActiveFlag;
rxIsrActiveFlag:
        DS 1
        REQUIRE __INIT_XDATA_Z

        RSEG XDATA_Z:XDATA:NOROOT(0)
        DATA8
//  208 static uint8  rxResetFlag;
rxResetFlag:
        DS 1
        REQUIRE __INIT_XDATA_Z

        RSEG XDATA_Z:XDATA:NOROOT(0)
        DATA8
//  209 static uint8  rxFifoOverflowCount;
rxFifoOverflowCount:
        DS 1
        REQUIRE __INIT_XDATA_Z
//  210 
//  211 #ifdef PACKET_FILTER_STATS
//  212   uint32      rxCrcFailure = 0;
//  213   uint32      rxCrcSuccess = 0;
//  214 #endif /* PACKET_FILTER_STATS */
//  215 
//  216 #ifdef CC2591_COMPRESSION_WORKAROUND
//  217   void macRxResetRssi(void);
//  218 #endif
//  219 
//  220 /**************************************************************************************************
//  221  * @fn          macRxInit
//  222  *
//  223  * @brief       Initialize receive variable states.
//  224  *
//  225  * @param       none
//  226  *
//  227  * @return      none
//  228  **************************************************************************************************
//  229  */

        RSEG BANKED_CODE:HUGECODE:NOROOT(0)
//  230 MAC_INTERNAL_API void macRxInit(void)
macRxInit:
          CFI Block cfiBlock0 Using cfiCommon0
          CFI Function macRxInit
        CODE
//  231 {
        PUSH      DPL
          CFI DPL0 Frame(CFA_SP, 4)
          CFI CFA_SP SP+-4
        PUSH      DPH
          CFI DPH0 Frame(CFA_SP, 5)
          CFI CFA_SP SP+-5
        ; Saved register size: 2
        ; Auto size: 0
//  232   macRxFilter          = RX_FILTER_OFF;
        MOV       DPTR,#macRxFilter
        CLR       A
        MOVX      @DPTR,A
//  233   rxPromiscuousMode    = PROMISCUOUS_MODE_OFF;
        MOV       DPTR,#rxPromiscuousMode
        MOVX      @DPTR,A
//  234   pRxBuf               = NULL; /* required for macRxReset() to function correctly */
        MOV       DPTR,#pRxBuf
        MOVX      @DPTR,A
        INC       DPTR
        MOVX      @DPTR,A
//  235   macRxActive          = MAC_RX_ACTIVE_NO_ACTIVITY;
        MOV       DPTR,#macRxActive
        LCALL     ??Subroutine38_0 & 0xFFFF
//  236   pFuncRxState         = &rxStartIsr;
//  237   macRxOutgoingAckFlag = 0;
??CrossCallReturnLabel_71:
        MOV       DPTR,#macRxOutgoingAckFlag
        CLR       A
        MOVX      @DPTR,A
//  238   rxIsrActiveFlag      = 0;
        MOV       DPTR,#rxIsrActiveFlag
        MOVX      @DPTR,A
//  239   rxResetFlag          = 0;
        MOV       DPTR,#rxResetFlag
        MOVX      @DPTR,A
//  240   rxFifoOverflowCount  = 0;
        MOV       DPTR,#rxFifoOverflowCount
        LJMP      ?Subroutine0 & 0xFFFF
//  241 }
          CFI EndBlock cfiBlock0
//  242 
//  243 
//  244 /**************************************************************************************************
//  245  * @fn          macRxRadioPowerUpInit
//  246  *
//  247  * @brief       Initialization for after radio first powers up.
//  248  *
//  249  * @param       none
//  250  *
//  251  * @return      none
//  252  **************************************************************************************************
//  253  */

        RSEG BANKED_CODE:HUGECODE:NOROOT(0)
//  254 MAC_INTERNAL_API void macRxRadioPowerUpInit(void)
macRxRadioPowerUpInit:
          CFI Block cfiBlock1 Using cfiCommon0
          CFI Function macRxRadioPowerUpInit
        CODE
//  255 {
        PUSH      DPL
          CFI DPL0 Frame(CFA_SP, 4)
          CFI CFA_SP SP+-4
        PUSH      DPH
          CFI DPH0 Frame(CFA_SP, 5)
          CFI CFA_SP SP+-5
        ; Saved register size: 2
        ; Auto size: 0
//  256   /* set threshold at initial value */
//  257   MAC_RADIO_SET_RX_THRESHOLD(RX_THRESHOLD_START_LEN);
        MOV       DPTR,#0x6194
        MOV       A,#0x5
        LCALL     ?Subroutine9 & 0xFFFF
//  258 
//  259   /* clear any accidental threshold interrupt that happened as part of power up sequence */
//  260   MAC_RADIO_CLEAR_RX_THRESHOLD_INTERRUPT_FLAG();
??CrossCallReturnLabel_9:
        MOV       0xe9,#-0x5
        MOV       A,R0
        MOV       C,0xE0 /* A   */.7
        MOV       0xa8.7,C
//  261 
//  262   /* enable threshold interrupts */
//  263   MAC_RADIO_ENABLE_RX_THRESHOLD_INTERRUPT();
        MOV       DPTR,#0x61a3
        MOVX      A,@DPTR
        SETB      0xE0 /* A   */.2
        LJMP      ?Subroutine0 & 0xFFFF
          CFI EndBlock cfiBlock1
        REQUIRE _A_IEN0
        REQUIRE S1CON
        REQUIRE RFIRQF0
//  264 }
//  265 
//  266 
//  267 /**************************************************************************************************
//  268  * @fn          macRxTxReset
//  269  *
//  270  * @brief       Reset the receive state.
//  271  *
//  272  * @param       none
//  273  *
//  274  * @return      none
//  275  **************************************************************************************************
//  276  */

        RSEG BANKED_CODE:HUGECODE:NOROOT(0)
//  277 MAC_INTERNAL_API void macRxTxReset(void)
macRxTxReset:
          CFI Block cfiBlock2 Using cfiCommon0
          CFI Function macRxTxReset
        CODE
//  278 {
        FUNCALL macRxTxReset, macRxHardDisable
        LOCFRAME ISTACK, 2, STACK
        LOCFRAME PSTACK, 0, STACK
        LOCFRAME XSTACK, 0, STACK
        LOCFRAME IOVERLAY, 0, STATIC
        LOCFRAME DOVERLAY, 0, STATIC
        ARGFRAME ISTACK, 2, STACK
        ARGFRAME PSTACK, 0, STACK
        ARGFRAME XSTACK, 0, STACK
        ARGFRAME IOVERLAY, 0, STATIC
        ARGFRAME DOVERLAY, 0, STATIC
        FUNCALL macRxTxReset, macRxPromiscuousMode
        LOCFRAME ISTACK, 2, STACK
        LOCFRAME PSTACK, 0, STACK
        LOCFRAME XSTACK, 0, STACK
        LOCFRAME IOVERLAY, 0, STATIC
        LOCFRAME DOVERLAY, 0, STATIC
        ARGFRAME ISTACK, 2, STACK
        ARGFRAME PSTACK, 0, STACK
        ARGFRAME XSTACK, 0, STACK
        ARGFRAME IOVERLAY, 0, STATIC
        ARGFRAME DOVERLAY, 0, STATIC
        PUSH      DPL
          CFI DPL0 Frame(CFA_SP, 4)
          CFI CFA_SP SP+-4
        PUSH      DPH
          CFI DPH0 Frame(CFA_SP, 5)
          CFI CFA_SP SP+-5
        ; Saved register size: 2
        ; Auto size: 0
//  279   /* forces receiver off, cleans up by calling macRxHaltCleanup() and macTxHaltCleanup() */
//  280   macRxHardDisable();
        ; Setup parameters for call to function macRxHardDisable
        LCALL     `??macRxHardDisable::?relay`; Banked call to: macRxHardDisable
//  281 
//  282   /*
//  283    *   Note : transmit does not require any reset logic
//  284    *          beyond what macRxHardDisable() provides.
//  285    */
//  286 
//  287   /* restore deault filter mode to off */
//  288   macRxFilter = RX_FILTER_OFF;
        MOV       DPTR,#macRxFilter
        CLR       A
        MOVX      @DPTR,A
//  289 
//  290   /* return promiscuous mode to default off state */
//  291   macRxPromiscuousMode(MAC_PROMISCUOUS_MODE_OFF);
        ; Setup parameters for call to function macRxPromiscuousMode
        MOV       R1,A
        LCALL     `??macRxPromiscuousMode::?relay`; Banked call to: macRxPromiscuousMode
//  292 }
        LJMP      ??Subroutine35_0 & 0xFFFF
          CFI EndBlock cfiBlock2
//  293 
//  294 
//  295 /**************************************************************************************************
//  296  * @fn          macRxHaltCleanup
//  297  *
//  298  * @brief       Cleanup up the receive logic after receiver is forced off.
//  299  *
//  300  * @param       none
//  301  *
//  302  * @return      none
//  303  **************************************************************************************************
//  304  */

        RSEG BANKED_CODE:HUGECODE:NOROOT(0)
//  305 MAC_INTERNAL_API void macRxHaltCleanup(void)
macRxHaltCleanup:
          CFI Block cfiBlock3 Using cfiCommon0
          CFI Function macRxHaltCleanup
        CODE
//  306 {
        FUNCALL macRxHaltCleanup, rxHaltCleanupFinalStep
        LOCFRAME ISTACK, 2, STACK
        LOCFRAME PSTACK, 0, STACK
        LOCFRAME XSTACK, 0, STACK
        LOCFRAME IOVERLAY, 0, STATIC
        LOCFRAME DOVERLAY, 0, STATIC
        ARGFRAME ISTACK, 2, STACK
        ARGFRAME PSTACK, 0, STACK
        ARGFRAME XSTACK, 0, STACK
        ARGFRAME IOVERLAY, 0, STATIC
        ARGFRAME DOVERLAY, 0, STATIC
        PUSH      DPL
          CFI DPL0 Frame(CFA_SP, 4)
          CFI CFA_SP SP+-4
        PUSH      DPH
          CFI DPH0 Frame(CFA_SP, 5)
          CFI CFA_SP SP+-5
        ; Saved register size: 2
        ; Auto size: 0
//  307   rxResetFlag = 1;
        MOV       DPTR,#rxResetFlag
        MOV       A,#0x1
        MOVX      @DPTR,A
//  308   if (!rxIsrActiveFlag)
        MOV       DPTR,#rxIsrActiveFlag
        MOVX      A,@DPTR
        JNZ       ??macRxHaltCleanup_0
//  309   {
//  310     rxHaltCleanupFinalStep();
        ; Setup parameters for call to function rxHaltCleanupFinalStep
        LCALL     `??rxHaltCleanupFinalStep::?relay`; Banked call to: rxHaltCleanupFinalStep
//  311     rxResetFlag = 0;
        MOV       DPTR,#rxResetFlag
        CLR       A
        MOVX      @DPTR,A
//  312   }
//  313 }
??macRxHaltCleanup_0:
        LJMP      ??Subroutine35_0 & 0xFFFF
          CFI EndBlock cfiBlock3
//  314 
//  315 
//  316 /*=================================================================================================
//  317  * @fn          rxHaltCleanupFinalStep
//  318  *
//  319  * @brief       Required cleanup if receiver is halted in the middle of a receive.
//  320  *
//  321  * @param       none
//  322  *
//  323  * @return      none
//  324  *=================================================================================================
//  325  */

        RSEG BANKED_CODE:HUGECODE:NOROOT(0)
//  326 static void rxHaltCleanupFinalStep(void)
rxHaltCleanupFinalStep:
          CFI Block cfiBlock4 Using cfiCommon0
          CFI Function rxHaltCleanupFinalStep
        CODE
//  327 {
        FUNCALL rxHaltCleanupFinalStep, macDataRxMemFree
        LOCFRAME ISTACK, 2, STACK
        LOCFRAME PSTACK, 0, STACK
        LOCFRAME XSTACK, 0, STACK
        LOCFRAME IOVERLAY, 0, STATIC
        LOCFRAME DOVERLAY, 0, STATIC
        ARGFRAME ISTACK, 2, STACK
        ARGFRAME PSTACK, 0, STACK
        ARGFRAME XSTACK, 0, STACK
        ARGFRAME IOVERLAY, 0, STATIC
        ARGFRAME DOVERLAY, 0, STATIC
        FUNCALL rxHaltCleanupFinalStep, rxPostRxUpdates
        LOCFRAME ISTACK, 2, STACK
        LOCFRAME PSTACK, 0, STACK
        LOCFRAME XSTACK, 0, STACK
        LOCFRAME IOVERLAY, 0, STATIC
        LOCFRAME DOVERLAY, 0, STATIC
        ARGFRAME ISTACK, 2, STACK
        ARGFRAME PSTACK, 0, STACK
        ARGFRAME XSTACK, 0, STACK
        ARGFRAME IOVERLAY, 0, STATIC
        ARGFRAME DOVERLAY, 0, STATIC
        PUSH      DPL
          CFI DPL0 Frame(CFA_SP, 4)
          CFI CFA_SP SP+-4
        PUSH      DPH
          CFI DPH0 Frame(CFA_SP, 5)
          CFI CFA_SP SP+-5
        ; Saved register size: 2
        ; Auto size: 0
//  328   /* cancel any upcoming ACK transmit complete callback */
//  329   MAC_RADIO_CANCEL_ACK_TX_DONE_CALLBACK();
        MOV       DPTR,#0x61a4
        MOVX      A,@DPTR
        CLR       0xE0 /* A   */.0
        MOVX      @DPTR,A
//  330 
//  331   /* set start of frame threshold */
//  332   MAC_RADIO_SET_RX_THRESHOLD(RX_THRESHOLD_START_LEN);
        MOV       DPTR,#0x6194
        MOV       A,#0x5
        MOVX      @DPTR,A
//  333 
//  334   /* flush the receive FIFO */
//  335   MAC_RADIO_FLUSH_RX_FIFO();
        MOV       0xe1,#-0x13
        MOV       0xe1,#-0x13
//  336 
//  337   /* clear any receive interrupt that happened to squeak through */
//  338   MAC_RADIO_CLEAR_RX_THRESHOLD_INTERRUPT_FLAG();
        MOV       R0,0xa8+0x0
        CLR       0xa8.7
        MOV       0x9b,#0x0
        MOV       0xe9,#-0x5
        MOV       A,R0
        MOV       C,0xE0 /* A   */.7
        MOV       0xa8.7,C
//  339 
//  340   /* if data buffer has been allocated, free it */
//  341   if (pRxBuf != NULL)
        LCALL     ?Subroutine26 & 0xFFFF
??CrossCallReturnLabel_60:
        MOV       R1,A
        MOV       A,R0
        ORL       A,R1
        JZ        ??rxHaltCleanupFinalStep_0
//  342   {
//  343     MEM_FREE((uint8 **)&pRxBuf);
        ; Setup parameters for call to function macDataRxMemFree
        MOV       R2,#pRxBuf & 0xff
        MOV       R3,#(pRxBuf >> 8) & 0xff
        LCALL     `??macDataRxMemFree::?relay`; Banked call to: macDataRxMemFree
//  344   }
//  345   /* MEM_FREE() sets parameter to NULL. */
//  346 
//  347   pFuncRxState = &rxStartIsr;
??rxHaltCleanupFinalStep_0:
        MOV       DPTR,#pFuncRxState
        MOV       A,#`??rxStartIsr::?relay` & 0xff
        MOVX      @DPTR,A
        INC       DPTR
        MOV       A,#(`??rxStartIsr::?relay` >> 8) & 0xff
        MOVX      @DPTR,A
//  348 
//  349   /* if receive was active, perform the post receive updates */
//  350   if (macRxActive || macRxOutgoingAckFlag)
        MOV       DPTR,#macRxActive
        MOVX      A,@DPTR
        JNZ       ??rxHaltCleanupFinalStep_1
        MOV       DPTR,#macRxOutgoingAckFlag
        MOVX      A,@DPTR
        JZ        ??rxHaltCleanupFinalStep_2
//  351   {
//  352     macRxActive = MAC_RX_ACTIVE_NO_ACTIVITY;
??rxHaltCleanupFinalStep_1:
        MOV       DPTR,#macRxActive
        CLR       A
        MOVX      @DPTR,A
//  353     macRxOutgoingAckFlag = 0;
        MOV       DPTR,#macRxOutgoingAckFlag
        MOVX      @DPTR,A
//  354 
//  355     rxPostRxUpdates();
        ; Setup parameters for call to function rxPostRxUpdates
        LCALL     `??rxPostRxUpdates::?relay`; Banked call to: rxPostRxUpdates
//  356   }
//  357 }
??rxHaltCleanupFinalStep_2:
        LJMP      ??Subroutine35_0 & 0xFFFF
          CFI EndBlock cfiBlock4
        REQUIRE RFST
        REQUIRE _A_IEN0
        REQUIRE S1CON
        REQUIRE RFIRQF0
//  358 
//  359 
//  360 /**************************************************************************************************
//  361  * @fn          macRxThresholdIsr
//  362  *
//  363  * @brief       Interrupt service routine called when bytes in FIFO reach threshold value.
//  364  *              It implements a state machine for receiving a packet.
//  365  *
//  366  * @param       none
//  367  *
//  368  * @return      none
//  369  **************************************************************************************************
//  370  */

        RSEG BANKED_CODE:HUGECODE:NOROOT(0)
//  371 MAC_INTERNAL_API void macRxThresholdIsr(void)
macRxThresholdIsr:
          CFI Block cfiBlock5 Using cfiCommon0
          CFI Function macRxThresholdIsr
        CODE
//  372 {
        FUNCALL macRxThresholdIsr, rxHaltCleanupFinalStep
        LOCFRAME ISTACK, 2, STACK
        LOCFRAME PSTACK, 0, STACK
        LOCFRAME XSTACK, 0, STACK
        LOCFRAME IOVERLAY, 0, STATIC
        LOCFRAME DOVERLAY, 0, STATIC
        ARGFRAME ISTACK, 2, STACK
        ARGFRAME PSTACK, 0, STACK
        ARGFRAME XSTACK, 0, STACK
        ARGFRAME IOVERLAY, 0, STATIC
        ARGFRAME DOVERLAY, 0, STATIC
        PUSH      DPL
          CFI DPL0 Frame(CFA_SP, 4)
          CFI CFA_SP SP+-4
        PUSH      DPH
          CFI DPH0 Frame(CFA_SP, 5)
          CFI CFA_SP SP+-5
        ; Saved register size: 2
        ; Auto size: 0
//  373   /* if currently reseting, do not execute receive ISR logic */
//  374   if (rxResetFlag)
        MOV       DPTR,#rxResetFlag
        MOVX      A,@DPTR
        JNZ       ??macRxThresholdIsr_0
//  375   {
//  376     return;
//  377   }
//  378 
//  379   /*
//  380    *  Call the function that handles the current receive state.
//  381    *  A flag is set for the duration of the call to indicate
//  382    *  the ISR is executing.  This is necessary for the reset
//  383    *  logic so it does not perform a reset in the middle of
//  384    *  executing the ISR.
//  385    */
//  386   rxIsrActiveFlag = 1;
        MOV       DPTR,#rxIsrActiveFlag
        MOV       A,#0x1
        LCALL     ??Subroutine39_0 & 0xFFFF
//  387   (*pFuncRxState)();
??CrossCallReturnLabel_74:
        LCALL     ?Subroutine25 & 0xFFFF
??CrossCallReturnLabel_31:
        LCALL     ?CALL_IND
//  388   rxIsrActiveFlag = 0;
        MOV       DPTR,#rxIsrActiveFlag
        CLR       A
        MOVX      @DPTR,A
//  389 
//  390   /* if a reset occurred during the ISR, peform cleanup here */
//  391   if (rxResetFlag)
        MOV       DPTR,#rxResetFlag
        MOVX      A,@DPTR
        JZ        ??macRxThresholdIsr_0
//  392   {
//  393     rxHaltCleanupFinalStep();
        ; Setup parameters for call to function rxHaltCleanupFinalStep
        LCALL     `??rxHaltCleanupFinalStep::?relay`; Banked call to: rxHaltCleanupFinalStep
//  394     rxResetFlag = 0;
        MOV       DPTR,#rxResetFlag
        CLR       A
        MOVX      @DPTR,A
//  395   }
//  396 }
??macRxThresholdIsr_0:
        LJMP      ??Subroutine35_0 & 0xFFFF
          CFI EndBlock cfiBlock5
//  397 
//  398 
//  399 /*=================================================================================================
//  400  * @fn          rxStartIsr
//  401  *
//  402  * @brief       First ISR state for receiving a packet - compute packet length, allocate
//  403  *              buffer, initialize buffer.  Acknowledgements are handled immediately without
//  404  *              allocating a buffer.
//  405  *
//  406  * @param       none
//  407  *
//  408  * @return      none
//  409  *=================================================================================================
//  410  */

        RSEG BANKED_CODE:HUGECODE:NOROOT(0)
//  411 static void rxStartIsr(void)
rxStartIsr:
          CFI Block cfiBlock6 Using cfiCommon0
          CFI Function rxStartIsr
        CODE
//  412 {
        FUNCALL rxStartIsr, halAssertHandler
        LOCFRAME ISTACK, 0, STACK
        LOCFRAME PSTACK, 0, STACK
        LOCFRAME XSTACK, 18, STACK
        LOCFRAME IOVERLAY, 0, STATIC
        LOCFRAME DOVERLAY, 0, STATIC
        ARGFRAME ISTACK, 0, STACK
        ARGFRAME PSTACK, 0, STACK
        ARGFRAME XSTACK, 18, STACK
        ARGFRAME IOVERLAY, 0, STATIC
        ARGFRAME DOVERLAY, 0, STATIC
        FUNCALL rxStartIsr, rxPostRxUpdates
        LOCFRAME ISTACK, 0, STACK
        LOCFRAME PSTACK, 0, STACK
        LOCFRAME XSTACK, 18, STACK
        LOCFRAME IOVERLAY, 0, STATIC
        LOCFRAME DOVERLAY, 0, STATIC
        ARGFRAME ISTACK, 0, STACK
        ARGFRAME PSTACK, 0, STACK
        ARGFRAME XSTACK, 18, STACK
        ARGFRAME IOVERLAY, 0, STATIC
        ARGFRAME DOVERLAY, 0, STATIC
        FUNCALL rxStartIsr, macCspForceTxDoneIfPending
        LOCFRAME ISTACK, 0, STACK
        LOCFRAME PSTACK, 0, STACK
        LOCFRAME XSTACK, 18, STACK
        LOCFRAME IOVERLAY, 0, STATIC
        LOCFRAME DOVERLAY, 0, STATIC
        ARGFRAME ISTACK, 0, STACK
        ARGFRAME PSTACK, 0, STACK
        ARGFRAME XSTACK, 18, STACK
        ARGFRAME IOVERLAY, 0, STATIC
        ARGFRAME DOVERLAY, 0, STATIC
        FUNCALL rxStartIsr, macMemReadRxFifo
        LOCFRAME ISTACK, 0, STACK
        LOCFRAME PSTACK, 0, STACK
        LOCFRAME XSTACK, 18, STACK
        LOCFRAME IOVERLAY, 0, STATIC
        LOCFRAME DOVERLAY, 0, STATIC
        ARGFRAME ISTACK, 0, STACK
        ARGFRAME PSTACK, 0, STACK
        ARGFRAME XSTACK, 18, STACK
        ARGFRAME IOVERLAY, 0, STATIC
        ARGFRAME DOVERLAY, 0, STATIC
        FUNCALL rxStartIsr, halAssertHandler
        LOCFRAME ISTACK, 0, STACK
        LOCFRAME PSTACK, 0, STACK
        LOCFRAME XSTACK, 18, STACK
        LOCFRAME IOVERLAY, 0, STATIC
        LOCFRAME DOVERLAY, 0, STATIC
        ARGFRAME ISTACK, 0, STACK
        ARGFRAME PSTACK, 0, STACK
        ARGFRAME XSTACK, 18, STACK
        ARGFRAME IOVERLAY, 0, STATIC
        ARGFRAME DOVERLAY, 0, STATIC
        FUNCALL rxStartIsr, macMemReadRxFifo
        LOCFRAME ISTACK, 0, STACK
        LOCFRAME PSTACK, 0, STACK
        LOCFRAME XSTACK, 18, STACK
        LOCFRAME IOVERLAY, 0, STATIC
        LOCFRAME DOVERLAY, 0, STATIC
        ARGFRAME ISTACK, 0, STACK
        ARGFRAME PSTACK, 0, STACK
        ARGFRAME XSTACK, 18, STACK
        ARGFRAME IOVERLAY, 0, STATIC
        ARGFRAME DOVERLAY, 0, STATIC
        FUNCALL rxStartIsr, halAssertHandler
        LOCFRAME ISTACK, 0, STACK
        LOCFRAME PSTACK, 0, STACK
        LOCFRAME XSTACK, 18, STACK
        LOCFRAME IOVERLAY, 0, STATIC
        LOCFRAME DOVERLAY, 0, STATIC
        ARGFRAME ISTACK, 0, STACK
        ARGFRAME PSTACK, 0, STACK
        ARGFRAME XSTACK, 18, STACK
        ARGFRAME IOVERLAY, 0, STATIC
        ARGFRAME DOVERLAY, 0, STATIC
        FUNCALL rxStartIsr, macRadioComputeLQI
        LOCFRAME ISTACK, 0, STACK
        LOCFRAME PSTACK, 0, STACK
        LOCFRAME XSTACK, 18, STACK
        LOCFRAME IOVERLAY, 0, STATIC
        LOCFRAME DOVERLAY, 0, STATIC
        ARGFRAME ISTACK, 0, STACK
        ARGFRAME PSTACK, 0, STACK
        ARGFRAME XSTACK, 18, STACK
        ARGFRAME IOVERLAY, 0, STATIC
        ARGFRAME DOVERLAY, 0, STATIC
        FUNCALL rxStartIsr, macTxAckReceivedCallback
        LOCFRAME ISTACK, 0, STACK
        LOCFRAME PSTACK, 0, STACK
        LOCFRAME XSTACK, 18, STACK
        LOCFRAME IOVERLAY, 0, STATIC
        LOCFRAME DOVERLAY, 0, STATIC
        ARGFRAME ISTACK, 0, STACK
        ARGFRAME PSTACK, 0, STACK
        ARGFRAME XSTACK, 18, STACK
        ARGFRAME IOVERLAY, 0, STATIC
        ARGFRAME DOVERLAY, 0, STATIC
        FUNCALL rxStartIsr, macTxAckNotReceivedCallback
        LOCFRAME ISTACK, 0, STACK
        LOCFRAME PSTACK, 0, STACK
        LOCFRAME XSTACK, 18, STACK
        LOCFRAME IOVERLAY, 0, STATIC
        LOCFRAME DOVERLAY, 0, STATIC
        ARGFRAME ISTACK, 0, STACK
        ARGFRAME PSTACK, 0, STACK
        ARGFRAME XSTACK, 18, STACK
        ARGFRAME IOVERLAY, 0, STATIC
        ARGFRAME DOVERLAY, 0, STATIC
        FUNCALL rxStartIsr, rxDone
        LOCFRAME ISTACK, 0, STACK
        LOCFRAME PSTACK, 0, STACK
        LOCFRAME XSTACK, 18, STACK
        LOCFRAME IOVERLAY, 0, STATIC
        LOCFRAME DOVERLAY, 0, STATIC
        ARGFRAME ISTACK, 0, STACK
        ARGFRAME PSTACK, 0, STACK
        ARGFRAME XSTACK, 18, STACK
        ARGFRAME IOVERLAY, 0, STATIC
        ARGFRAME DOVERLAY, 0, STATIC
        FUNCALL rxStartIsr, macTxAckNotReceivedCallback
        LOCFRAME ISTACK, 0, STACK
        LOCFRAME PSTACK, 0, STACK
        LOCFRAME XSTACK, 18, STACK
        LOCFRAME IOVERLAY, 0, STATIC
        LOCFRAME DOVERLAY, 0, STATIC
        ARGFRAME ISTACK, 0, STACK
        ARGFRAME PSTACK, 0, STACK
        ARGFRAME XSTACK, 18, STACK
        ARGFRAME IOVERLAY, 0, STATIC
        ARGFRAME DOVERLAY, 0, STATIC
        FUNCALL rxStartIsr, rxDone
        LOCFRAME ISTACK, 0, STACK
        LOCFRAME PSTACK, 0, STACK
        LOCFRAME XSTACK, 18, STACK
        LOCFRAME IOVERLAY, 0, STATIC
        LOCFRAME DOVERLAY, 0, STATIC
        ARGFRAME ISTACK, 0, STACK
        ARGFRAME PSTACK, 0, STACK
        ARGFRAME XSTACK, 18, STACK
        ARGFRAME IOVERLAY, 0, STATIC
        ARGFRAME DOVERLAY, 0, STATIC
        FUNCALL rxStartIsr, rxDiscardFrame
        LOCFRAME ISTACK, 0, STACK
        LOCFRAME PSTACK, 0, STACK
        LOCFRAME XSTACK, 18, STACK
        LOCFRAME IOVERLAY, 0, STATIC
        LOCFRAME DOVERLAY, 0, STATIC
        ARGFRAME ISTACK, 0, STACK
        ARGFRAME PSTACK, 0, STACK
        ARGFRAME XSTACK, 18, STACK
        ARGFRAME IOVERLAY, 0, STATIC
        ARGFRAME DOVERLAY, 0, STATIC
        FUNCALL rxStartIsr, macDataRxMemAlloc
        LOCFRAME ISTACK, 0, STACK
        LOCFRAME PSTACK, 0, STACK
        LOCFRAME XSTACK, 18, STACK
        LOCFRAME IOVERLAY, 0, STATIC
        LOCFRAME DOVERLAY, 0, STATIC
        ARGFRAME ISTACK, 0, STACK
        ARGFRAME PSTACK, 0, STACK
        ARGFRAME XSTACK, 18, STACK
        ARGFRAME IOVERLAY, 0, STATIC
        ARGFRAME DOVERLAY, 0, STATIC
        FUNCALL rxStartIsr, macRxCheckMACPendingCallback
        LOCFRAME ISTACK, 0, STACK
        LOCFRAME PSTACK, 0, STACK
        LOCFRAME XSTACK, 18, STACK
        LOCFRAME IOVERLAY, 0, STATIC
        LOCFRAME DOVERLAY, 0, STATIC
        ARGFRAME ISTACK, 0, STACK
        ARGFRAME PSTACK, 0, STACK
        ARGFRAME XSTACK, 18, STACK
        ARGFRAME IOVERLAY, 0, STATIC
        ARGFRAME DOVERLAY, 0, STATIC
        FUNCALL rxStartIsr, MAC_SrcMatchCheckAllPending
        LOCFRAME ISTACK, 0, STACK
        LOCFRAME PSTACK, 0, STACK
        LOCFRAME XSTACK, 18, STACK
        LOCFRAME IOVERLAY, 0, STATIC
        LOCFRAME DOVERLAY, 0, STATIC
        ARGFRAME ISTACK, 0, STACK
        ARGFRAME PSTACK, 0, STACK
        ARGFRAME XSTACK, 18, STACK
        ARGFRAME IOVERLAY, 0, STATIC
        ARGFRAME DOVERLAY, 0, STATIC
        FUNCALL rxStartIsr, osal_memcpy
        LOCFRAME ISTACK, 0, STACK
        LOCFRAME PSTACK, 0, STACK
        LOCFRAME XSTACK, 21, STACK
        LOCFRAME IOVERLAY, 0, STATIC
        LOCFRAME DOVERLAY, 0, STATIC
        ARGFRAME ISTACK, 0, STACK
        ARGFRAME PSTACK, 0, STACK
        ARGFRAME XSTACK, 21, STACK
        ARGFRAME IOVERLAY, 0, STATIC
        ARGFRAME DOVERLAY, 0, STATIC
        FUNCALL rxStartIsr, macMcuOverflowCapture
        LOCFRAME ISTACK, 0, STACK
        LOCFRAME PSTACK, 0, STACK
        LOCFRAME XSTACK, 18, STACK
        LOCFRAME IOVERLAY, 0, STATIC
        LOCFRAME DOVERLAY, 0, STATIC
        ARGFRAME ISTACK, 0, STACK
        ARGFRAME PSTACK, 0, STACK
        ARGFRAME XSTACK, 18, STACK
        ARGFRAME IOVERLAY, 0, STATIC
        ARGFRAME DOVERLAY, 0, STATIC
        FUNCALL rxStartIsr, macMcuTimerCapture
        LOCFRAME ISTACK, 0, STACK
        LOCFRAME PSTACK, 0, STACK
        LOCFRAME XSTACK, 18, STACK
        LOCFRAME IOVERLAY, 0, STATIC
        LOCFRAME DOVERLAY, 0, STATIC
        ARGFRAME ISTACK, 0, STACK
        ARGFRAME PSTACK, 0, STACK
        ARGFRAME XSTACK, 18, STACK
        ARGFRAME IOVERLAY, 0, STATIC
        ARGFRAME DOVERLAY, 0, STATIC
        FUNCALL rxStartIsr, rxPrepPayload
        LOCFRAME ISTACK, 0, STACK
        LOCFRAME PSTACK, 0, STACK
        LOCFRAME XSTACK, 18, STACK
        LOCFRAME IOVERLAY, 0, STATIC
        LOCFRAME DOVERLAY, 0, STATIC
        ARGFRAME ISTACK, 0, STACK
        ARGFRAME PSTACK, 0, STACK
        ARGFRAME XSTACK, 18, STACK
        ARGFRAME IOVERLAY, 0, STATIC
        ARGFRAME DOVERLAY, 0, STATIC
        FUNCALL rxStartIsr, macRxCheckPendingCallback
        LOCFRAME ISTACK, 0, STACK
        LOCFRAME PSTACK, 0, STACK
        LOCFRAME XSTACK, 18, STACK
        LOCFRAME IOVERLAY, 0, STATIC
        LOCFRAME DOVERLAY, 0, STATIC
        ARGFRAME ISTACK, 0, STACK
        ARGFRAME PSTACK, 0, STACK
        ARGFRAME XSTACK, 18, STACK
        ARGFRAME IOVERLAY, 0, STATIC
        ARGFRAME DOVERLAY, 0, STATIC
        REQUIRE ?V0
        REQUIRE ?V1
        REQUIRE ?V2
        REQUIRE ?V3
        REQUIRE ?V4
        REQUIRE ?V5
        REQUIRE ?V6
        REQUIRE ?V7
        MOV       A,#-0x10
        LCALL     ?BANKED_ENTER_XDATA
          CFI DPH0 load(1, XDATA, add(CFA_XSP16, literal(-1)))
          CFI DPL0 load(1, XDATA, add(CFA_XSP16, literal(-2)))
          CFI ?BRET_EXT load(1, XDATA, add(CFA_XSP16, literal(-3)))
          CFI ?RET_HIGH load(1, XDATA, add(CFA_XSP16, literal(-4)))
          CFI ?RET_LOW load(1, XDATA, add(CFA_XSP16, literal(-5)))
          CFI R7 load(1, XDATA, add(CFA_XSP16, literal(-6)))
          CFI V7 load(1, XDATA, add(CFA_XSP16, literal(-7)))
          CFI V6 load(1, XDATA, add(CFA_XSP16, literal(-8)))
          CFI V5 load(1, XDATA, add(CFA_XSP16, literal(-9)))
          CFI V4 load(1, XDATA, add(CFA_XSP16, literal(-10)))
          CFI V3 load(1, XDATA, add(CFA_XSP16, literal(-11)))
          CFI V2 load(1, XDATA, add(CFA_XSP16, literal(-12)))
          CFI V1 load(1, XDATA, add(CFA_XSP16, literal(-13)))
          CFI V0 load(1, XDATA, add(CFA_XSP16, literal(-14)))
          CFI VB load(1, XDATA, add(CFA_XSP16, literal(-15)))
          CFI R6 load(1, XDATA, add(CFA_XSP16, literal(-16)))
          CFI CFA_SP SP+0
          CFI CFA_XSP16 add(XSP16, 16)
        ; Saved register size: 16
        ; Auto size: 2
        MOV       A,#-0x2
        LCALL     ?ALLOC_XSTACK8
          CFI CFA_XSP16 add(XSP16, 18)
//  413   uint8  addrLen;
//  414   uint8  ackWithPending;
//  415   uint8  dstAddrMode;
//  416   uint8  srcAddrMode;
//  417   uint8  mhrLen = 0;
        MOV       R6,#0x0
//  418 
//  419   MAC_ASSERT(!macRxActive); /* receive on top of receive */
        MOV       DPTR,#macRxActive
        MOVX      A,@DPTR
        JZ        ??rxStartIsr_0
        ; Setup parameters for call to function halAssertHandler
        LCALL     `??halAssertHandler::?relay`; Banked call to: halAssertHandler
//  420 
//  421   /* indicate rx is active */
//  422   macRxActive = MAC_RX_ACTIVE_STARTED;
??rxStartIsr_0:
        MOV       DPTR,#macRxActive
        MOV       A,#-0x7f
        MOVX      @DPTR,A
//  423 
//  424   /*
//  425    *  For bullet proof functionality, need to see if the receiver was just turned off.
//  426    *  The logic to request turning off the receiver, disables interrupts and then checks
//  427    *  the value of macRxActive.  If it is TRUE, the receiver will not be turned off.
//  428    *
//  429    *  There is a small hole though.  It's possible to attempt turning off the receiver
//  430    *  in the window from when the receive interrupt fires and the point where macRxActive
//  431    *  is set to TRUE.  To plug this hole, the on/off status must be tested *after*
//  432    *  macRxActive has been set.  If the receiver is off at this point, there is nothing
//  433    *  in the RX fifo and the receive is simply aborted.
//  434    *
//  435    *  Also, there are some considerations in case a hard disable just happened.  Usually,
//  436    *  the receiver will just be off at this point after a hard disable.  The check described
//  437    *  above will account for this case too.  However, if a hard disable were immediately
//  438    *  followed by an enable, the receiver would be on.  To catch this case, the receive
//  439    *  FIFO is also tested to see if it is empty.  Recovery is identical to the other cases.
//  440    */
//  441   if (!macRxOnFlag || MAC_RADIO_RX_FIFO_IS_EMPTY())
        MOV       DPTR,#macRxOnFlag
        MOVX      A,@DPTR
        JZ        ??rxStartIsr_1
        MOV       DPTR,#0x6193
        MOVX      A,@DPTR
        MOV       C,0xE0 /* A   */.7
        JC        ??rxStartIsr_2
        MOVX      A,@DPTR
        MOV       C,0xE0 /* A   */.6
        JC        ??rxStartIsr_2
//  442   {
//  443     /* reset active flag */
//  444     macRxActive = MAC_RX_ACTIVE_NO_ACTIVITY;
??rxStartIsr_1:
        MOV       DPTR,#macRxActive
        CLR       A
        MOVX      @DPTR,A
//  445 
//  446     /*
//  447      *  To be absolutely bulletproof, must make sure no transmit queue'ed up during
//  448      *  the tiny, tiny window when macRxActive was not zero.
//  449      */
//  450     rxPostRxUpdates();
        ; Setup parameters for call to function rxPostRxUpdates
        LCALL     `??rxPostRxUpdates::?relay`; Banked call to: rxPostRxUpdates
//  451 
//  452     /* return immediately from here */
//  453     return;
        LJMP      ??rxStartIsr_3 & 0xFFFF
//  454   }
//  455 
//  456   /*
//  457    *  If interrupts are held off for too long it's possible the previous "transmit done"
//  458    *  callback is pending.  If this is the case, it needs to be completed before
//  459    *  continuing with the receive logic.
//  460    */
//  461   MAC_RADIO_FORCE_TX_DONE_IF_PENDING();
??rxStartIsr_2:
        ; Setup parameters for call to function macCspForceTxDoneIfPending
        LCALL     `??macCspForceTxDoneIfPending::?relay`; Banked call to: macCspForceTxDoneIfPending
//  462 
//  463   /*
//  464    *  It's possible receive logic is still waiting for confirmation of an ACK that went out
//  465    *  for the previous receive.  This is OK but the callback needs to be canceled at this point.
//  466    *  That callback execute receive cleanup logic that will run at the completion
//  467    *  of *this* receive.  Also, it is important the flag for the outgoing ACK to be cleared.
//  468    */
//  469   MAC_RADIO_CANCEL_ACK_TX_DONE_CALLBACK();
        LCALL     ?Subroutine19 & 0xFFFF
//  470   macRxOutgoingAckFlag = 0;
//  471 
//  472   /*
//  473    *  Make a module-local copy of macRxFilter.  This prevents the selected
//  474    *  filter from changing in the middle of a receive.
//  475    */
//  476   rxFilter = macRxFilter;
??CrossCallReturnLabel_25:
        MOV       DPTR,#macRxFilter
        MOVX      A,@DPTR
        MOV       DPTR,#rxFilter
        MOVX      @DPTR,A
//  477 
//  478   /*-------------------------------------------------------------------------------
//  479    *  Read initial frame information from FIFO.
//  480    *
//  481    *   This code is not triggered until the following are in the RX FIFO:
//  482    *     frame length          - one byte containing length of MAC frame (excludes this field)
//  483    *     frame control field   - two bytes defining frame type, addressing fields, control flags
//  484    *     sequence number       - one byte unique sequence identifier
//  485    *     additional two bytes  - these bytes are available in case the received frame is an ACK,
//  486    *                             if so, the frame can be verified and responded to immediately,
//  487    *                             if not an ACK, these bytes will be processed normally
//  488    */
//  489 
//  490   /* read frame length, frame control field, and sequence number from FIFO */
//  491   MAC_RADIO_READ_RX_FIFO(rxBuf, MAC_PHY_PHR_LEN + MAC_FCF_FIELD_LEN + MAC_SEQ_NUM_FIELD_LEN);
        ; Setup parameters for call to function macMemReadRxFifo
        MOV       R1,#0x4
        MOV       R2,#rxBuf & 0xff
        MOV       R3,#(rxBuf >> 8) & 0xff
        LCALL     `??macMemReadRxFifo::?relay`; Banked call to: macMemReadRxFifo
//  492 
//  493   /* bytes to read from FIFO equals frame length minus length of MHR fields just read from FIFO */
//  494   rxUnreadLen = (rxBuf[0] & PHY_PACKET_SIZE_MASK) - MAC_FCF_FIELD_LEN - MAC_SEQ_NUM_FIELD_LEN;
        MOV       DPTR,#rxBuf
        MOVX      A,@DPTR
        ANL       A,#0x7f
        ADD       A,#-0x3
        MOV       DPTR,#rxUnreadLen
        MOVX      @DPTR,A
//  495 
//  496   /*
//  497    *  Workaround for chip bug #1547.  The receive buffer can sometimes be corrupted by hardware.
//  498    *  This usually occurs under heavy traffic.  If a corrupted receive buffer is detected
//  499    *  the entire receive buffer is flushed.
//  500    *
//  501    *  In the case that this workaround is not needed, an assert is used to make sure the
//  502    *  receive length field is not corrupted.  This is important because a corrupted receive
//  503    *  length field is utterly fatal and, if not caught here, extremely hard to track down.
//  504    */
//  505   if (macChipVersion == REV_A)
        MOV       DPTR,#macChipVersion
        MOVX      A,@DPTR
        MOV       DPTR,#rxUnreadLen
        JNZ       ??rxStartIsr_4
//  506   {
//  507     if ((rxUnreadLen > (MAC_A_MAX_PHY_PACKET_SIZE - MAC_FCF_FIELD_LEN - MAC_SEQ_NUM_FIELD_LEN)) ||
//  508         (MAC_FRAME_TYPE(&rxBuf[1]) > MAC_FRAME_TYPE_MAX_VALID))
        MOVX      A,@DPTR
        CLR       C
        SUBB      A,#0x7d
        JC        $+5
        LJMP      ??rxStartIsr_5 & 0xFFFF
        MOV       DPTR,#rxBuf + 1
        MOVX      A,@DPTR
        ANL       A,#0x7
        CLR       C
        SUBB      A,#0x4
        JC        ??rxStartIsr_6
        LJMP      ??rxStartIsr_5 & 0xFFFF
//  509     {
//  510       MAC_RADIO_FLUSH_RX_FIFO();
//  511       rxDone();
//  512       return;
//  513     }
//  514   }
//  515   else
//  516   {
//  517     /* radio supplied a corrupted receive buffer length */
//  518     MAC_ASSERT(rxUnreadLen <= (MAC_A_MAX_PHY_PACKET_SIZE - MAC_FCF_FIELD_LEN - MAC_SEQ_NUM_FIELD_LEN));
??rxStartIsr_4:
        MOVX      A,@DPTR
        CLR       C
        SUBB      A,#0x7d
        JC        ??rxStartIsr_6
        ; Setup parameters for call to function halAssertHandler
        LCALL     `??halAssertHandler::?relay`; Banked call to: halAssertHandler
//  519   }
//  520 
//  521 
//  522 
//  523   /*-------------------------------------------------------------------------------
//  524    *  Process ACKs.
//  525    *
//  526    *  If this frame is an ACK, process it immediately and exit from here.
//  527    *  If this frame is not an ACK and transmit is listening for an ACK, let
//  528    *  the transmit logic know an non-ACK was received so transmit can complete.
//  529    *
//  530    *  In promiscuous mode ACKs are treated like any other frame.
//  531    */
//  532   if ((MAC_FRAME_TYPE(&rxBuf[1]) == MAC_FRAME_TYPE_ACK) && (rxPromiscuousMode == PROMISCUOUS_MODE_OFF))
??rxStartIsr_6:
        MOV       DPTR,#rxBuf + 1
        MOVX      A,@DPTR
        ANL       A,#0x7
        XRL       A,#0x2
        JZ        $+5
        LJMP      ??rxStartIsr_7 & 0xFFFF
        MOV       DPTR,#rxPromiscuousMode
        MOVX      A,@DPTR
        JZ        $+5
        LJMP      ??rxStartIsr_7 & 0xFFFF
//  533   {
//  534     halIntState_t  s;
//  535     uint8 fcsBuf[MAC_FCF_FIELD_LEN];
//  536     /*
//  537      *  There are guaranteed to be two unread bytes in the FIFO.  By defintion, for ACK frames
//  538      *  these two bytes will be the FCS.
//  539      */
//  540 
//  541     /* read FCS from FIFO (threshold set so bytes are guaranteed to be there) */
//  542     MAC_RADIO_READ_RX_FIFO(fcsBuf, MAC_FCS_FIELD_LEN);
        ; Setup parameters for call to function macMemReadRxFifo
        MOV       R1,#0x2
        MOV       R2,?XSP + 0
        MOV       R3,?XSP + 1
        LCALL     `??macMemReadRxFifo::?relay`; Banked call to: macMemReadRxFifo
//  543 
//  544     /*
//  545      *  This critical section ensures that the ACK timeout won't be triggered in the
//  546      *  middle of receiving the ACK frame.
//  547      */
//  548     HAL_ENTER_CRITICAL_SECTION(s);
        MOV       C,0xa8.7
        CLR       A
        RLC       A
        MOV       ?V0,A
        CLR       0xa8.7
//  549 
//  550     /* see if transmit is listening for an ACK */
//  551     if (macTxActive == MAC_TX_ACTIVE_LISTEN_FOR_ACK)
        MOV       DPTR,#macTxActive
        MOVX      A,@DPTR
        XRL       A,#0x86
        JNZ       ??rxStartIsr_8
//  552     {
//  553       MAC_ASSERT(pMacDataTx != NULL); /* transmit buffer must be present */
        MOV       DPTR,#pMacDataTx
        LCALL     ??Subroutine31_0 & 0xFFFF
??CrossCallReturnLabel_57:
        MOV       R1,A
        MOV       A,R0
        ORL       A,R1
        JNZ       ??rxStartIsr_9
        ; Setup parameters for call to function halAssertHandler
        LCALL     `??halAssertHandler::?relay`; Banked call to: halAssertHandler
//  554 
//  555       /* record link quality metrics for the receive ACK */
//  556       {
//  557         int8 rssiDbm;
//  558         uint8 corr;
//  559 
//  560         rssiDbm = PROPRIETARY_FCS_RSSI(fcsBuf) + MAC_RADIO_RSSI_OFFSET;
??rxStartIsr_9:
        MOV       DPL,?XSP + 0
        MOV       DPH,?XSP + 1
        MOVX      A,@DPTR
        ADD       A,#-0x49
        MOV       R6,A
//  561         MAC_RADIO_RSSI_LNA_OFFSET(rssiDbm);
//  562         corr = PROPRIETARY_FCS_CORRELATION_VALUE(fcsBuf);
        MOV       A,#0x1
        LCALL     ?XSTACK_DISP0_8
        MOVX      A,@DPTR
        ANL       A,#0x7f
        MOV       R7,A
//  563 
//  564         pMacDataTx->internal.mpduLinkQuality = macRadioComputeLQI(rssiDbm, corr);
        ; Setup parameters for call to function macRadioComputeLQI
        MOV       R2,A
        MOV       A,R6
        MOV       R1,A
        LCALL     `??macRadioComputeLQI::?relay`; Banked call to: macRadioComputeLQI
        MOV       DPTR,#pMacDataTx
        LCALL     ??Subroutine33_0 & 0xFFFF
//  565         pMacDataTx->internal.correlation = corr;
//  566         pMacDataTx->internal.rssi= rssiDbm;
//  567       }
??CrossCallReturnLabel_47:
        ADD       A,#0x14
        MOV       DPL,A
        CLR       A
        ADDC      A,R0
        MOV       DPH,A
        MOV       A,R1
        LCALL     ?Subroutine5 & 0xFFFF
??CrossCallReturnLabel_3:
        ADD       A,#0x15
        MOV       DPL,A
        CLR       A
        ADDC      A,R0
        MOV       DPH,A
        MOV       A,R7
        LCALL     ?Subroutine5 & 0xFFFF
??CrossCallReturnLabel_4:
        ADD       A,#0x16
        MOV       DPL,A
        CLR       A
        ADDC      A,R0
        MOV       DPH,A
        MOV       A,R6
        MOVX      @DPTR,A
//  568 
//  569       /*
//  570        *  It's okay if the ACK timeout is triggered here. The callbacks for ACK received
//  571        *  or ACK not received will check "macTxActive" flag before taking any actions.
//  572        */
//  573       HAL_EXIT_CRITICAL_SECTION(s);
        MOV       A,?V0
        MOV       C,0xE0 /* A   */.0
        MOV       0xa8.7,C
//  574 
//  575       /*
//  576        *  An ACK was received so transmit logic needs to know.  If the FCS failed,
//  577        *  the transmit logic still needs to know.  In that case, treat the frame
//  578        *  as a non-ACK to complete the active transmit.
//  579        */
//  580       if (PROPRIETARY_FCS_CRC_OK(fcsBuf))
        MOV       A,#0x1
        LCALL     ?XSTACK_DISP0_8
        MOVX      A,@DPTR
        MOV       C,0xE0 /* A   */.7
        JNC       ??rxStartIsr_10
//  581       {
//  582         /* call transmit logic to indicate ACK was received */
//  583         macTxAckReceivedCallback(MAC_SEQ_NUMBER(&rxBuf[1]), MAC_FRAME_PENDING(&rxBuf[1]));
        ; Setup parameters for call to function macTxAckReceivedCallback
        MOV       DPTR,#rxBuf + 1
        MOVX      A,@DPTR
        ANL       A,#0x10
        MOV       R2,A
        MOV       DPTR,#rxBuf + 3
        MOVX      A,@DPTR
        MOV       R1,A
        LCALL     `??macTxAckReceivedCallback::?relay`; Banked call to: macTxAckReceivedCallback
        SJMP      ??rxStartIsr_11
//  584       }
//  585       else
//  586       {
//  587         macTxAckNotReceivedCallback();
??rxStartIsr_10:
        ; Setup parameters for call to function macTxAckNotReceivedCallback
        LCALL     `??macTxAckNotReceivedCallback::?relay`; Banked call to: macTxAckNotReceivedCallback
        SJMP      ??rxStartIsr_11
//  588       }
//  589     }
//  590     else
//  591     {
//  592       HAL_EXIT_CRITICAL_SECTION(s);
??rxStartIsr_8:
        MOV       A,?V0
        MOV       C,0xE0 /* A   */.0
        MOV       0xa8.7,C
//  593     }
//  594 
//  595     /* receive is done, exit from here */
//  596     rxDone();
        ; Setup parameters for call to function rxDone
        SJMP      ??rxStartIsr_11
//  597     return;
//  598   }
//  599   else if (macTxActive == MAC_TX_ACTIVE_LISTEN_FOR_ACK)
??rxStartIsr_7:
        MOV       DPTR,#macTxActive
        MOVX      A,@DPTR
        XRL       A,#0x86
        JNZ       ??rxStartIsr_12
//  600   {
//  601     macTxAckNotReceivedCallback();
        ; Setup parameters for call to function macTxAckNotReceivedCallback
        LCALL     `??macTxAckNotReceivedCallback::?relay`; Banked call to: macTxAckNotReceivedCallback
//  602   }
//  603 
//  604   /*-------------------------------------------------------------------------------
//  605    *  Apply filtering.
//  606    *
//  607    *  For efficiency, see if filtering is even 'on' before processing.  Also test
//  608    *  to make sure promiscuous mode is disabled.  If promiscuous mode is enabled,
//  609    *  do not apply filtering.
//  610    */
//  611   if ((rxFilter != RX_FILTER_OFF) && !rxPromiscuousMode)
??rxStartIsr_12:
        MOV       DPTR,#rxFilter
        MOVX      A,@DPTR
        JZ        ??rxStartIsr_13
        MOV       DPTR,#rxPromiscuousMode
        MOVX      A,@DPTR
        JNZ       ??rxStartIsr_13
//  612   {
//  613     if (/* filter all frames */
//  614          (rxFilter == RX_FILTER_ALL) ||
//  615 
//  616          /* filter non-beacon frames */
//  617          ((rxFilter == RX_FILTER_NON_BEACON_FRAMES) &&
//  618           (MAC_FRAME_TYPE(&rxBuf[1]) != MAC_FRAME_TYPE_BEACON)) ||
//  619 
//  620          /* filter non-command frames */
//  621          ((rxFilter == RX_FILTER_NON_COMMAND_FRAMES) &&
//  622           ((MAC_FRAME_TYPE(&rxBuf[1]) != MAC_FRAME_TYPE_COMMAND))))
        MOV       DPTR,#rxFilter
        MOVX      A,@DPTR
        XRL       A,#0x1
        JNZ       $+5
        LJMP      ??rxStartIsr_14 & 0xFFFF
        MOVX      A,@DPTR
        XRL       A,#0x2
        JNZ       ??rxStartIsr_15
        MOV       DPTR,#rxBuf + 1
        MOVX      A,@DPTR
        ANL       A,#0x7
        JNZ       ??rxStartIsr_14
        SJMP      ??rxStartIsr_13
??rxStartIsr_15:
        MOVX      A,@DPTR
        XRL       A,#0x3
        JNZ       ??rxStartIsr_13
        MOV       DPTR,#rxBuf + 1
        MOVX      A,@DPTR
        ANL       A,#0x7
        XRL       A,#0x3
        JNZ       ??rxStartIsr_14
//  623     {
//  624       /* discard rest of frame */
//  625       rxDiscardFrame();
//  626       return;
//  627     }
//  628   }
//  629 
//  630   /*-------------------------------------------------------------------------------
//  631    *  Compute length of addressing fields.  Compute payload length.
//  632    */
//  633 
//  634   /* decode addressing modes */
//  635   dstAddrMode = MAC_DEST_ADDR_MODE(&rxBuf[1]);
??rxStartIsr_13:
        MOV       DPTR,#rxBuf + 2
        MOVX      A,@DPTR
        MOV       R0,A
        RRC       A
        RRC       A
        ANL       A,#0x3f
        ANL       A,#0x3
        MOV       ?V2,A
//  636   srcAddrMode = MAC_SRC_ADDR_MODE(&rxBuf[1]);
        MOV       A,R0
        SWAP      A
        RRC       A
        RRC       A
        ANL       A,#0x3
        MOV       ?V0,A
//  637 
//  638   /*
//  639   *  Workaround for chip bug #1547.  The receive buffer can sometimes be corrupted by hardware.
//  640    *  This usually occurs under heavy traffic.  If a corrupted receive buffer is detected
//  641    *  the entire receive buffer is flushed.
//  642    */
//  643   if (macChipVersion == REV_A)
        MOV       DPTR,#macChipVersion
        MOVX      A,@DPTR
        JNZ       ??rxStartIsr_16
//  644   {
//  645     if ((srcAddrMode == ADDR_MODE_RESERVERED) || (dstAddrMode == ADDR_MODE_RESERVERED))
        MOV       A,#0x1
        XRL       A,?V0
        JZ        ??rxStartIsr_5
        MOV       A,#0x1
        XRL       A,?V2
        JNZ       ??rxStartIsr_16
//  646     {
//  647       MAC_RADIO_FLUSH_RX_FIFO();
??rxStartIsr_5:
        MOV       0xe1,#-0x13
        MOV       0xe1,#-0x13
//  648       rxDone();
        ; Setup parameters for call to function rxDone
??rxStartIsr_11:
        LCALL     `??rxDone::?relay`; Banked call to: rxDone
//  649       return;
        LJMP      ??rxStartIsr_3 & 0xFFFF
//  650     }
//  651   }
//  652 
//  653   /*
//  654    *  Compute the addressing field length.  A lookup table based on addressing
//  655    *  mode is used for efficiency.  If the source address is present and the
//  656    *  frame is intra-PAN, the PAN Id is not repeated.  In this case, the address
//  657    *  length is adjusted to match the smaller length.
//  658    */
//  659   addrLen = macRxAddrLen[dstAddrMode] + macRxAddrLen[srcAddrMode];
??rxStartIsr_16:
        MOV       R0,?V0
        LCALL     ?Subroutine20 & 0xFFFF
??CrossCallReturnLabel_27:
        MOV       R2,A
        MOV       R0,?V2
        LCALL     ?Subroutine20 & 0xFFFF
??CrossCallReturnLabel_28:
        ADD       A,R2
        MOV       ?V1,A
//  660   if ((srcAddrMode != SADDR_MODE_NONE) && MAC_INTRA_PAN(&rxBuf[1]))
        MOV       A,?V0
        JZ        ??rxStartIsr_17
        MOV       DPTR,#rxBuf + 1
        MOVX      A,@DPTR
        MOV       C,0xE0 /* A   */.6
        JNC       ??rxStartIsr_17
//  661   {
//  662     addrLen -= MAC_PAN_ID_FIELD_LEN;
        DEC       ?V1
        DEC       ?V1
//  663   }
//  664 
//  665   /*
//  666    *  If there are not enough unread bytes to include the computed address
//  667    *  plus FCS field, the frame is corrupted and must be discarded.
//  668    */
//  669   if ((addrLen + MAC_FCS_FIELD_LEN) > rxUnreadLen)
??rxStartIsr_17:
        MOV       DPTR,#rxUnreadLen
        MOVX      A,@DPTR
        MOV       R2,A
        MOV       R1,#0x0
        MOV       A,?V1
        ADD       A,#0x2
        MOV       R0,A
        JNC       ??rxStartIsr_18
        INC       R1
??rxStartIsr_18:
        CLR       C
        MOV       A,R2
        SUBB      A,R0
        CLR       A
        SUBB      A,R1
        MOV       C,0xD0 /* PSW */.2
        XRL       A,PSW
        RLC       A
        JNC       ??rxStartIsr_19
//  670   {
//  671     /* discard frame and exit */
//  672     rxDiscardFrame();
??rxStartIsr_14:
        ; Setup parameters for call to function rxDiscardFrame
        LCALL     `??rxDiscardFrame::?relay`; Banked call to: rxDiscardFrame
//  673     return;
        LJMP      ??rxStartIsr_3 & 0xFFFF
//  674   }
//  675 
//  676   /* aux security header plus payload length is equal to unread bytes minus
//  677    * address length, minus the FCS
//  678    */
//  679   rxPayloadLen = rxUnreadLen - addrLen - MAC_FCS_FIELD_LEN;
??rxStartIsr_19:
        MOVX      A,@DPTR
        CLR       C
        SUBB      A,?V1
        ADD       A,#-0x2
        MOV       DPTR,#rxPayloadLen
        LCALL     ?Subroutine4 & 0xFFFF
//  680 
//  681   /*-------------------------------------------------------------------------------
//  682    *  Allocate memory for the incoming frame.
//  683    */
//  684   if (MAC_SEC_ENABLED(&rxBuf[1]))
??CrossCallReturnLabel_0:
        JNC       ??rxStartIsr_20
//  685   {
//  686     /* increase the allocation size of MAC header for security */
//  687     mhrLen = MAC_MHR_LEN;
        MOV       R6,#0x25
//  688   }
//  689 
//  690   pRxBuf = (macRx_t *) MEM_ALLOC(sizeof(macRx_t) + mhrLen + rxPayloadLen);
??rxStartIsr_20:
        ; Setup parameters for call to function macDataRxMemAlloc
        MOV       DPTR,#rxPayloadLen
        MOVX      A,@DPTR
        MOV       R0,A
        MOV       A,R6
        ADD       A,R0
        MOV       R0,A
        CLR       A
        ADDC      A,#0x0
        MOV       R1,A
        MOV       A,R0
        ADD       A,#0x35
        MOV       R2,A
        CLR       A
        ADDC      A,R1
        MOV       R3,A
        LCALL     `??macDataRxMemAlloc::?relay`; Banked call to: macDataRxMemAlloc
        MOV       DPTR,#pRxBuf
        MOV       A,R2
        MOVX      @DPTR,A
        INC       DPTR
        MOV       A,R3
        LCALL     ?Subroutine6 & 0xFFFF
//  691   if (pRxBuf == NULL)
??CrossCallReturnLabel_5:
        MOV       R1,A
        MOV       A,R0
        ORL       A,R1
        JNZ       ??rxStartIsr_21
//  692   {
//  693     /* Cancel the outgoing TX ACK */
//  694     MAC_RADIO_CANCEL_TX_ACK();
        MOV       0xe1,#-0x18
        SJMP      ??rxStartIsr_14
//  695 
//  696     /* buffer allocation failed, discard the frame and exit*/
//  697     rxDiscardFrame();
//  698     return;
//  699   }
//  700 
//  701   /*-------------------------------------------------------------------------------
//  702    *  Set up to process ACK request.  Do not ACK if in promiscuous mode.
//  703    */
//  704   ackWithPending = 0;
??rxStartIsr_21:
        MOV       R6,#0x0
//  705   if (!rxPromiscuousMode)
        MOV       DPTR,#rxPromiscuousMode
        MOVX      A,@DPTR
        JNZ       ??rxStartIsr_22
//  706   {
//  707     macRxOutgoingAckFlag = MAC_ACK_REQUEST(&rxBuf[1]);
        MOV       DPTR,#rxBuf + 1
        MOVX      A,@DPTR
        ANL       A,#0x20
        MOV       DPTR,#macRxOutgoingAckFlag
        MOVX      @DPTR,A
//  708   }
//  709 
//  710   /*-------------------------------------------------------------------------------
//  711    *  Process any ACK request.
//  712    */
//  713   if (macRxOutgoingAckFlag)
??rxStartIsr_22:
        MOV       DPTR,#macRxOutgoingAckFlag
        MOVX      A,@DPTR
        JZ        ??rxStartIsr_23
//  714   {
//  715     halIntState_t  s;
//  716 
//  717     /*
//  718      *  This critical section ensures that the callback ISR is initiated within time
//  719      *  to guarantee correlation with the strobe.
//  720      */
//  721     HAL_ENTER_CRITICAL_SECTION(s);
        MOV       C,0xa8.7
        CLR       A
        RLC       A
        MOV       R7,A
        CLR       0xa8.7
//  722 
//  723     /* Do not ack data packet with pending more data */
//  724     if( MAC_FRAME_TYPE(&rxBuf[1]) == MAC_FRAME_TYPE_COMMAND )
        MOV       DPTR,#rxBuf + 1
        MOVX      A,@DPTR
        ANL       A,#0x7
        XRL       A,#0x3
        JNZ       ??rxStartIsr_24
//  725     {
//  726       if( macRxCheckMACPendingCallback())
        ; Setup parameters for call to function macRxCheckMACPendingCallback
        LCALL     `??macRxCheckMACPendingCallback::?relay`; Banked call to: macRxCheckMACPendingCallback
        MOV       A,R1
        JZ        $+5
        LJMP      ??rxStartIsr_25 & 0xFFFF
//  727       {
//  728         /* Check is any mac data pending for end devices */
//  729         ackWithPending = MAC_RX_FLAG_ACK_PENDING;
//  730       }
//  731       else
//  732       {
//  733         if( macSrcMatchIsEnabled )
        MOV       DPTR,#macSrcMatchIsEnabled
        MOVX      A,@DPTR
        JNZ       $+5
        LJMP      ??rxStartIsr_26 & 0xFFFF
//  734         {
//  735           /* When autopend is enabled, check if allpending is set to true */
//  736           if( MAC_SrcMatchCheckAllPending() == MAC_AUTOACK_PENDING_ALL_ON )
        ; Setup parameters for call to function MAC_SrcMatchCheckAllPending
        LCALL     `??MAC_SrcMatchCheckAllPending::?relay`; Banked call to: MAC_SrcMatchCheckAllPending
        MOV       A,R1
        XRL       A,#0xfe
        JNZ       $+5
        LJMP      ??rxStartIsr_25 & 0xFFFF
//  737           {
//  738             ackWithPending = MAC_RX_FLAG_ACK_PENDING;
//  739           }
//  740         }
//  741         else
//  742         {
//  743           /* When autopend is disabled, check the application pending callback */
//  744           if( macRxCheckPendingCallback() )
//  745           {
//  746             ackWithPending = MAC_RX_FLAG_ACK_PENDING;
//  747           }
//  748         }
//  749       }
//  750     }
//  751 
//  752     if( ackWithPending == MAC_RX_FLAG_ACK_PENDING )
//  753     {
//  754       MAC_RADIO_TX_ACK_PEND();
//  755     }
//  756     else
//  757     {
//  758       MAC_RADIO_TX_ACK();
??rxStartIsr_24:
        MOV       DPTR,#0x618a
        MOVX      A,@DPTR
        CLR       0xE0 /* A   */.2
//  759     }
??rxStartIsr_27:
        LCALL     ?Subroutine9 & 0xFFFF
//  760 
//  761 
//  762     /* request a callback to macRxAckTxDoneCallback() when the ACK transmit has finished */
//  763     MAC_RADIO_REQUEST_ACK_TX_DONE_CALLBACK();
??CrossCallReturnLabel_10:
        MOV       0x91,#-0x2
        MOV       A,R0
        MOV       C,0xE0 /* A   */.7
        MOV       0xa8.7,C
        MOV       DPTR,#0x61a4
        MOVX      A,@DPTR
        SETB      0xE0 /* A   */.0
        MOVX      @DPTR,A
//  764     HAL_EXIT_CRITICAL_SECTION(s);
        MOV       A,R7
        MOV       C,0xE0 /* A   */.0
        MOV       0xa8.7,C
//  765   }
//  766 
//  767  /*-------------------------------------------------------------------------------
//  768   *  Populate the receive buffer going up to high-level.
//  769   */
//  770 
//  771   /* configure the payload buffer
//  772    * save MAC header pointer regardless of security status.
//  773    */
//  774   pRxBuf->mhr.p   = pRxBuf->msdu.p   = (uint8 *) (pRxBuf + 1);
??rxStartIsr_23:
        LCALL     ?Subroutine14 & 0xFFFF
??CrossCallReturnLabel_17:
        MOV       DPH,A
        MOV       DPL,R2
        INC       DPTR
        INC       DPTR
        MOV       A,R0
        MOVX      @DPTR,A
        INC       DPTR
        MOV       A,R1
        LCALL     ?Subroutine7 & 0xFFFF
??CrossCallReturnLabel_8:
        LCALL     ?Subroutine8 & 0xFFFF
//  775   pRxBuf->mhr.len = pRxBuf->msdu.len =  rxPayloadLen;
??CrossCallReturnLabel_40:
        MOV       DPTR,#rxPayloadLen
        MOVX      A,@DPTR
        PUSH      A
          CFI CFA_SP SP+-1
        LCALL     ?Subroutine17 & 0xFFFF
??CrossCallReturnLabel_21:
        POP       A
          CFI CFA_SP SP+0
        LCALL     ?Subroutine6 & 0xFFFF
??CrossCallReturnLabel_6:
        MOV       DPH,A
        MOV       DPL,R0
        INC       DPTR
        INC       DPTR
        INC       DPTR
        INC       DPTR
        MOVX      A,@DPTR
        PUSH      A
          CFI CFA_SP SP+-1
        MOV       DPTR,#pRxBuf + 1
        LCALL     ??Subroutine28_0 & 0xFFFF
??CrossCallReturnLabel_33:
        POP       A
          CFI CFA_SP SP+0
        LCALL     ?Subroutine4 & 0xFFFF
//  776 
//  777   if (MAC_SEC_ENABLED(&rxBuf[1]))
??CrossCallReturnLabel_1:
        JNC       ??CrossCallReturnLabel_11
//  778   {
//  779     /* Copy FCF and sequence number to RX buffer */
//  780     pRxBuf->mhr.len = MAC_FCF_FIELD_LEN + MAC_SEQ_NUM_FIELD_LEN;
        LCALL     ?Subroutine13 & 0xFFFF
??CrossCallReturnLabel_34:
        MOV       A,#0x3
        MOVX      @DPTR,A
//  781     osal_memcpy(pRxBuf->mhr.p, &rxBuf[1], pRxBuf->mhr.len);
        ; Setup parameters for call to function osal_memcpy
        MOV       ?V4,#(rxBuf + 1) & 0xff
        MOV       ?V5,#((rxBuf + 1) >> 8) & 0xff
        MOV       ?V6,#0x0
        MOV       R0,#?V4
        LCALL     ?PUSH_XSTACK_I_THREE
          CFI CFA_XSP16 add(XSP16, 21)
        LCALL     ?Subroutine13 & 0xFFFF
??CrossCallReturnLabel_35:
        MOVX      A,@DPTR
        MOV       R4,A
        MOV       R5,#0x0
        LCALL     ?Subroutine12 & 0xFFFF
??CrossCallReturnLabel_15:
        LCALL     `??osal_memcpy::?relay`; Banked call to: osal_memcpy
        MOV       A,#0x3
        LCALL     ?DEALLOC_XSTACK8
          CFI CFA_XSP16 add(XSP16, 18)
//  782     pRxBuf->mhr.p += pRxBuf->mhr.len;
        MOV       DPTR,#pRxBuf
        MOVX      A,@DPTR
        ADD       A,#0x32
        LCALL     ?Subroutine11 & 0xFFFF
//  783   }
??CrossCallReturnLabel_13:
        LCALL     ?Subroutine10 & 0xFFFF
//  784 
//  785   /* set internal values */
//  786   pRxBuf->mac.srcAddr.addrMode  = srcAddrMode;
??CrossCallReturnLabel_11:
        LCALL     ?Subroutine16 & 0xFFFF
??CrossCallReturnLabel_48:
        ADD       A,#0x1a
        LCALL     ?Subroutine3 & 0xFFFF
//  787   pRxBuf->mac.dstAddr.addrMode  = dstAddrMode;
??CrossCallReturnLabel_42:
        ADD       A,#0x23
        MOV       DPL,A
        CLR       A
        ADDC      A,R0
        MOV       DPH,A
        MOV       A,?V2
        MOVX      @DPTR,A
//  788   pRxBuf->mac.timestamp         = MAC_RADIO_BACKOFF_CAPTURE();
        ; Setup parameters for call to function macMcuOverflowCapture
        LCALL     `??macMcuOverflowCapture::?relay`; Banked call to: macMcuOverflowCapture
        MOV       ?V4,R2
        MOV       ?V5,R3
        MOV       ?V6,R4
        MOV       ?V7,R5
        LCALL     ?Subroutine16 & 0xFFFF
??CrossCallReturnLabel_49:
        ADD       A,#0x24
        MOV       DPL,A
        CLR       A
        ADDC      A,R0
        MOV       DPH,A
        MOV       R0,#?V4
        LCALL     ?L_MOV_TO_X
//  789   pRxBuf->mac.timestamp2        = MAC_RADIO_TIMER_CAPTURE();
        ; Setup parameters for call to function macMcuTimerCapture
        LCALL     `??macMcuTimerCapture::?relay`; Banked call to: macMcuTimerCapture
        MOV       ?V2,R2
        LCALL     ??Subroutine36_0 & 0xFFFF
??CrossCallReturnLabel_64:
        XCH       A,R2
        ADD       A,#0x28
        MOV       DPL,A
        CLR       A
        ADDC      A,R2
        MOV       DPH,A
        MOV       A,?V2
        MOVX      @DPTR,A
        INC       DPTR
        MOV       A,R3
        MOVX      @DPTR,A
//  790   pRxBuf->internal.frameType    = MAC_FRAME_TYPE(&rxBuf[1]);
        MOV       DPTR,#rxBuf + 1
        MOVX      A,@DPTR
        ANL       A,#0x7
        PUSH      A
          CFI CFA_SP SP+-1
        LCALL     ?Subroutine17 & 0xFFFF
??CrossCallReturnLabel_22:
        INC       DPTR
        POP       A
          CFI CFA_SP SP+0
        MOVX      @DPTR,A
//  791   pRxBuf->mac.dsn               = MAC_SEQ_NUMBER(&rxBuf[1]);
        MOV       DPTR,#rxBuf + 3
        MOVX      A,@DPTR
        PUSH      A
          CFI CFA_SP SP+-1
        LCALL     ?Subroutine16 & 0xFFFF
??CrossCallReturnLabel_50:
        ADD       A,#0x31
        MOV       DPL,A
        CLR       A
        ADDC      A,R0
        MOV       DPH,A
        POP       A
          CFI CFA_SP SP+0
        MOVX      @DPTR,A
//  792   pRxBuf->internal.flags        = INTERNAL_FCF_FLAGS(&rxBuf[1]) | ackWithPending;
        MOV       DPTR,#rxBuf + 1
        MOVX      A,@DPTR
        ANL       A,#0x78
        MOV       R0,A
        INC       DPTR
        MOVX      A,@DPTR
        SWAP      A
        ANL       A,#0xf
        ANL       A,#0x3
        ORL       A,R0
        ORL       A,R6
        PUSH      A
          CFI CFA_SP SP+-1
        LCALL     ?Subroutine15 & 0xFFFF
??CrossCallReturnLabel_19:
        POP       A
          CFI CFA_SP SP+0
        MOVX      @DPTR,A
//  793 
//  794   /*-------------------------------------------------------------------------------
//  795    *  If the processing the addressing fields does not require more bytes from
//  796    *  the FIFO go directly address processing function.  Otherwise, configure
//  797    *  interrupt to jump there once bytes are received.
//  798    */
//  799   if (addrLen == 0)
        MOV       A,?V1
        JNZ       ??rxStartIsr_28
//  800   {
//  801     /* no addressing fields to read, prepare for payload interrupts */
//  802     pFuncRxState = &rxPayloadIsr;
        MOV       DPTR,#pFuncRxState
        MOV       A,#`??rxPayloadIsr::?relay` & 0xff
        MOVX      @DPTR,A
        INC       DPTR
        MOV       A,#(`??rxPayloadIsr::?relay` >> 8) & 0xff
        MOVX      @DPTR,A
//  803     rxPrepPayload();
        ; Setup parameters for call to function rxPrepPayload
        LCALL     `??rxPrepPayload::?relay`; Banked call to: rxPrepPayload
        SJMP      ??rxStartIsr_3
//  804   }
??rxStartIsr_26:
        ; Setup parameters for call to function macRxCheckPendingCallback
        LCALL     `??macRxCheckPendingCallback::?relay`; Banked call to: macRxCheckPendingCallback
        MOV       A,R1
        JNZ       $+5
        LJMP      ??rxStartIsr_24 & 0xFFFF
??rxStartIsr_25:
        MOV       R6,#0x4
        MOV       DPTR,#0x618a
        MOVX      A,@DPTR
        SETB      0xE0 /* A   */.2
        LJMP      ??rxStartIsr_27 & 0xFFFF
//  805   else
//  806   {
//  807     /* need to read and process addressing fields, prepare for address interrupt */
//  808     rxNextLen = addrLen;
??rxStartIsr_28:
        MOV       DPTR,#rxNextLen
        LCALL     ?Subroutine4 & 0xFFFF
//  809     if (MAC_SEC_ENABLED(&rxBuf[1]))
??CrossCallReturnLabel_2:
        MOV       DPTR,#rxNextLen
        MOVX      A,@DPTR
        JC        ??rxStartIsr_29
//  810     {
//  811       /* When security is enabled, read off security control field as well */
//  812       MAC_RADIO_SET_RX_THRESHOLD(rxNextLen + MAC_SEC_CONTROL_FIELD_LEN);
//  813     }
//  814     else
//  815     {
//  816       MAC_RADIO_SET_RX_THRESHOLD(rxNextLen);
        DEC       A
//  817     }
//  818     pFuncRxState = &rxAddrIsr;
//  819   }
??rxStartIsr_29:
        LCALL     ?Subroutine22 & 0xFFFF
??CrossCallReturnLabel_72:
        MOV       A,#`??rxAddrIsr::?relay` & 0xff
        MOVX      @DPTR,A
        INC       DPTR
        MOV       A,#(`??rxAddrIsr::?relay` >> 8) & 0xff
        MOVX      @DPTR,A
//  820 }
??rxStartIsr_3:
        MOV       A,#0x2
        LCALL     ?DEALLOC_XSTACK8
          CFI CFA_XSP16 add(XSP16, 16)
        MOV       R7,#0x8
        LJMP      ?BANKED_LEAVE_XDATA
          CFI EndBlock cfiBlock6
        REQUIRE RFST
        REQUIRE _A_IEN0
        REQUIRE S1CON
        REQUIRE RFIRQF1

        RSEG BANKED_CODE:HUGECODE:NOROOT(0)
?Subroutine20:
          CFI Block cfiCond7 Using cfiCommon0
          CFI Function rxStartIsr
          CFI Conditional ??CrossCallReturnLabel_27
          CFI R6 load(1, XDATA, add(CFA_XSP16, literal(-16)))
          CFI VB load(1, XDATA, add(CFA_XSP16, literal(-15)))
          CFI V0 load(1, XDATA, add(CFA_XSP16, literal(-14)))
          CFI V1 load(1, XDATA, add(CFA_XSP16, literal(-13)))
          CFI V2 load(1, XDATA, add(CFA_XSP16, literal(-12)))
          CFI V3 load(1, XDATA, add(CFA_XSP16, literal(-11)))
          CFI V4 load(1, XDATA, add(CFA_XSP16, literal(-10)))
          CFI V5 load(1, XDATA, add(CFA_XSP16, literal(-9)))
          CFI V6 load(1, XDATA, add(CFA_XSP16, literal(-8)))
          CFI V7 load(1, XDATA, add(CFA_XSP16, literal(-7)))
          CFI R7 load(1, XDATA, add(CFA_XSP16, literal(-6)))
          CFI ?RET_LOW load(1, XDATA, add(CFA_XSP16, literal(-5)))
          CFI ?RET_HIGH load(1, XDATA, add(CFA_XSP16, literal(-4)))
          CFI ?BRET_EXT load(1, XDATA, add(CFA_XSP16, literal(-3)))
          CFI DPL0 load(1, XDATA, add(CFA_XSP16, literal(-2)))
          CFI DPH0 load(1, XDATA, add(CFA_XSP16, literal(-1)))
          CFI CFA_SP SP+-2
          CFI CFA_XSP16 add(XSP16, 18)
          CFI Block cfiCond8 Using cfiCommon0
          CFI (cfiCond8) Function rxStartIsr
          CFI (cfiCond8) Conditional ??CrossCallReturnLabel_28
          CFI (cfiCond8) R6 load(1, XDATA, add(CFA_XSP16, literal(-16)))
          CFI (cfiCond8) VB load(1, XDATA, add(CFA_XSP16, literal(-15)))
          CFI (cfiCond8) V0 load(1, XDATA, add(CFA_XSP16, literal(-14)))
          CFI (cfiCond8) V1 load(1, XDATA, add(CFA_XSP16, literal(-13)))
          CFI (cfiCond8) V2 load(1, XDATA, add(CFA_XSP16, literal(-12)))
          CFI (cfiCond8) V3 load(1, XDATA, add(CFA_XSP16, literal(-11)))
          CFI (cfiCond8) V4 load(1, XDATA, add(CFA_XSP16, literal(-10)))
          CFI (cfiCond8) V5 load(1, XDATA, add(CFA_XSP16, literal(-9)))
          CFI (cfiCond8) V6 load(1, XDATA, add(CFA_XSP16, literal(-8)))
          CFI (cfiCond8) V7 load(1, XDATA, add(CFA_XSP16, literal(-7)))
          CFI (cfiCond8) R7 load(1, XDATA, add(CFA_XSP16, literal(-6)))
          CFI (cfiCond8) ?RET_LOW load(1, XDATA, add(CFA_XSP16, literal(-5)))
          CFI (cfiCond8) ?RET_HIGH load(1, XDATA, add(CFA_XSP16, literal(-4)))
          CFI (cfiCond8) ?BRET_EXT load(1, XDATA, add(CFA_XSP16, literal(-3)))
          CFI (cfiCond8) DPL0 load(1, XDATA, add(CFA_XSP16, literal(-2)))
          CFI (cfiCond8) DPH0 load(1, XDATA, add(CFA_XSP16, literal(-1)))
          CFI (cfiCond8) CFA_SP SP+-2
          CFI (cfiCond8) CFA_XSP16 add(XSP16, 18)
          CFI Block cfiPicker9 Using cfiCommon1
          CFI (cfiPicker9) NoFunction
          CFI (cfiPicker9) Picker
        MOV       A,#macRxAddrLen & 0xff
        ADD       A,R0
        MOV       DPL,A
        CLR       A
        ADDC      A,#(macRxAddrLen >> 8) & 0xff
        MOV       DPH,A
        CLR       A
        MOVC      A,@A+DPTR
        RET
          CFI EndBlock cfiCond7
          CFI EndBlock cfiCond8
          CFI EndBlock cfiPicker9

        RSEG BANKED_CODE:HUGECODE:NOROOT(0)
?Subroutine17:
          CFI Block cfiCond10 Using cfiCommon0
          CFI Function rxStartIsr
          CFI Conditional ??CrossCallReturnLabel_21
          CFI R6 load(1, XDATA, add(CFA_XSP16, literal(-16)))
          CFI VB load(1, XDATA, add(CFA_XSP16, literal(-15)))
          CFI V0 load(1, XDATA, add(CFA_XSP16, literal(-14)))
          CFI V1 load(1, XDATA, add(CFA_XSP16, literal(-13)))
          CFI V2 load(1, XDATA, add(CFA_XSP16, literal(-12)))
          CFI V3 load(1, XDATA, add(CFA_XSP16, literal(-11)))
          CFI V4 load(1, XDATA, add(CFA_XSP16, literal(-10)))
          CFI V5 load(1, XDATA, add(CFA_XSP16, literal(-9)))
          CFI V6 load(1, XDATA, add(CFA_XSP16, literal(-8)))
          CFI V7 load(1, XDATA, add(CFA_XSP16, literal(-7)))
          CFI R7 load(1, XDATA, add(CFA_XSP16, literal(-6)))
          CFI ?RET_LOW load(1, XDATA, add(CFA_XSP16, literal(-5)))
          CFI ?RET_HIGH load(1, XDATA, add(CFA_XSP16, literal(-4)))
          CFI ?BRET_EXT load(1, XDATA, add(CFA_XSP16, literal(-3)))
          CFI DPL0 load(1, XDATA, add(CFA_XSP16, literal(-2)))
          CFI DPH0 load(1, XDATA, add(CFA_XSP16, literal(-1)))
          CFI CFA_XSP16 add(XSP16, 18)
          CFI Block cfiCond11 Using cfiCommon0
          CFI (cfiCond11) Function rxStartIsr
          CFI (cfiCond11) Conditional ??CrossCallReturnLabel_22
          CFI (cfiCond11) R6 load(1, XDATA, add(CFA_XSP16, literal(-16)))
          CFI (cfiCond11) VB load(1, XDATA, add(CFA_XSP16, literal(-15)))
          CFI (cfiCond11) V0 load(1, XDATA, add(CFA_XSP16, literal(-14)))
          CFI (cfiCond11) V1 load(1, XDATA, add(CFA_XSP16, literal(-13)))
          CFI (cfiCond11) V2 load(1, XDATA, add(CFA_XSP16, literal(-12)))
          CFI (cfiCond11) V3 load(1, XDATA, add(CFA_XSP16, literal(-11)))
          CFI (cfiCond11) V4 load(1, XDATA, add(CFA_XSP16, literal(-10)))
          CFI (cfiCond11) V5 load(1, XDATA, add(CFA_XSP16, literal(-9)))
          CFI (cfiCond11) V6 load(1, XDATA, add(CFA_XSP16, literal(-8)))
          CFI (cfiCond11) V7 load(1, XDATA, add(CFA_XSP16, literal(-7)))
          CFI (cfiCond11) R7 load(1, XDATA, add(CFA_XSP16, literal(-6)))
          CFI (cfiCond11) ?RET_LOW load(1, XDATA, add(CFA_XSP16, literal(-5)))
          CFI (cfiCond11) ?RET_HIGH load(1, XDATA, add(CFA_XSP16, literal(-4)))
          CFI (cfiCond11) ?BRET_EXT load(1, XDATA, add(CFA_XSP16, literal(-3)))
          CFI (cfiCond11) DPL0 load(1, XDATA, add(CFA_XSP16, literal(-2)))
          CFI (cfiCond11) DPH0 load(1, XDATA, add(CFA_XSP16, literal(-1)))
          CFI (cfiCond11) CFA_XSP16 add(XSP16, 18)
          CFI Block cfiPicker12 Using cfiCommon1
          CFI (cfiPicker12) NoFunction
          CFI (cfiPicker12) Picker
        MOV       DPTR,#pRxBuf
        LCALL     ?Subroutine25 & 0xFFFF
??CrossCallReturnLabel_32:
        INC       DPTR
        INC       DPTR
        INC       DPTR
        INC       DPTR
        RET
          CFI EndBlock cfiCond10
          CFI EndBlock cfiCond11
          CFI EndBlock cfiPicker12

        RSEG BANKED_CODE:HUGECODE:NOROOT(0)
?Subroutine25:
          CFI Block cfiCond13 Using cfiCommon0
          CFI Function macRxThresholdIsr
          CFI Conditional ??CrossCallReturnLabel_31
          CFI DPL0 Frame(CFA_SP, 4)
          CFI DPH0 Frame(CFA_SP, 5)
          CFI CFA_SP SP+-7
          CFI Block cfiCond14 Using cfiCommon0
          CFI (cfiCond14) Function rxStartIsr
          CFI (cfiCond14) Conditional ??CrossCallReturnLabel_32, ??CrossCallReturnLabel_21
          CFI (cfiCond14) R6 load(1, XDATA, add(CFA_XSP16, literal(-16)))
          CFI (cfiCond14) VB load(1, XDATA, add(CFA_XSP16, literal(-15)))
          CFI (cfiCond14) V0 load(1, XDATA, add(CFA_XSP16, literal(-14)))
          CFI (cfiCond14) V1 load(1, XDATA, add(CFA_XSP16, literal(-13)))
          CFI (cfiCond14) V2 load(1, XDATA, add(CFA_XSP16, literal(-12)))
          CFI (cfiCond14) V3 load(1, XDATA, add(CFA_XSP16, literal(-11)))
          CFI (cfiCond14) V4 load(1, XDATA, add(CFA_XSP16, literal(-10)))
          CFI (cfiCond14) V5 load(1, XDATA, add(CFA_XSP16, literal(-9)))
          CFI (cfiCond14) V6 load(1, XDATA, add(CFA_XSP16, literal(-8)))
          CFI (cfiCond14) V7 load(1, XDATA, add(CFA_XSP16, literal(-7)))
          CFI (cfiCond14) R7 load(1, XDATA, add(CFA_XSP16, literal(-6)))
          CFI (cfiCond14) ?RET_LOW load(1, XDATA, add(CFA_XSP16, literal(-5)))
          CFI (cfiCond14) ?RET_HIGH load(1, XDATA, add(CFA_XSP16, literal(-4)))
          CFI (cfiCond14) ?BRET_EXT load(1, XDATA, add(CFA_XSP16, literal(-3)))
          CFI (cfiCond14) DPL0 load(1, XDATA, add(CFA_XSP16, literal(-2)))
          CFI (cfiCond14) DPH0 load(1, XDATA, add(CFA_XSP16, literal(-1)))
          CFI (cfiCond14) CFA_SP SP+-5
          CFI (cfiCond14) CFA_XSP16 add(XSP16, 18)
          CFI Block cfiCond15 Using cfiCommon0
          CFI (cfiCond15) Function rxStartIsr
          CFI (cfiCond15) Conditional ??CrossCallReturnLabel_32, ??CrossCallReturnLabel_22
          CFI (cfiCond15) R6 load(1, XDATA, add(CFA_XSP16, literal(-16)))
          CFI (cfiCond15) VB load(1, XDATA, add(CFA_XSP16, literal(-15)))
          CFI (cfiCond15) V0 load(1, XDATA, add(CFA_XSP16, literal(-14)))
          CFI (cfiCond15) V1 load(1, XDATA, add(CFA_XSP16, literal(-13)))
          CFI (cfiCond15) V2 load(1, XDATA, add(CFA_XSP16, literal(-12)))
          CFI (cfiCond15) V3 load(1, XDATA, add(CFA_XSP16, literal(-11)))
          CFI (cfiCond15) V4 load(1, XDATA, add(CFA_XSP16, literal(-10)))
          CFI (cfiCond15) V5 load(1, XDATA, add(CFA_XSP16, literal(-9)))
          CFI (cfiCond15) V6 load(1, XDATA, add(CFA_XSP16, literal(-8)))
          CFI (cfiCond15) V7 load(1, XDATA, add(CFA_XSP16, literal(-7)))
          CFI (cfiCond15) R7 load(1, XDATA, add(CFA_XSP16, literal(-6)))
          CFI (cfiCond15) ?RET_LOW load(1, XDATA, add(CFA_XSP16, literal(-5)))
          CFI (cfiCond15) ?RET_HIGH load(1, XDATA, add(CFA_XSP16, literal(-4)))
          CFI (cfiCond15) ?BRET_EXT load(1, XDATA, add(CFA_XSP16, literal(-3)))
          CFI (cfiCond15) DPL0 load(1, XDATA, add(CFA_XSP16, literal(-2)))
          CFI (cfiCond15) DPH0 load(1, XDATA, add(CFA_XSP16, literal(-1)))
          CFI (cfiCond15) CFA_SP SP+-5
          CFI (cfiCond15) CFA_XSP16 add(XSP16, 18)
          CFI Block cfiPicker16 Using cfiCommon1
          CFI (cfiPicker16) NoFunction
          CFI (cfiPicker16) Picker
        LCALL     ??Subroutine31_0 & 0xFFFF
??CrossCallReturnLabel_59:
        MOV       DPH,A
        MOV       DPL,R0
        RET
          CFI EndBlock cfiCond13
          CFI EndBlock cfiCond14
          CFI EndBlock cfiCond15
          CFI EndBlock cfiPicker16

        RSEG BANKED_CODE:HUGECODE:NOROOT(0)
?Subroutine13:
          CFI Block cfiCond17 Using cfiCommon0
          CFI Function rxStartIsr
          CFI Conditional ??CrossCallReturnLabel_34
          CFI R6 load(1, XDATA, add(CFA_XSP16, literal(-16)))
          CFI VB load(1, XDATA, add(CFA_XSP16, literal(-15)))
          CFI V0 load(1, XDATA, add(CFA_XSP16, literal(-14)))
          CFI V1 load(1, XDATA, add(CFA_XSP16, literal(-13)))
          CFI V2 load(1, XDATA, add(CFA_XSP16, literal(-12)))
          CFI V3 load(1, XDATA, add(CFA_XSP16, literal(-11)))
          CFI V4 load(1, XDATA, add(CFA_XSP16, literal(-10)))
          CFI V5 load(1, XDATA, add(CFA_XSP16, literal(-9)))
          CFI V6 load(1, XDATA, add(CFA_XSP16, literal(-8)))
          CFI V7 load(1, XDATA, add(CFA_XSP16, literal(-7)))
          CFI R7 load(1, XDATA, add(CFA_XSP16, literal(-6)))
          CFI ?RET_LOW load(1, XDATA, add(CFA_XSP16, literal(-5)))
          CFI ?RET_HIGH load(1, XDATA, add(CFA_XSP16, literal(-4)))
          CFI ?BRET_EXT load(1, XDATA, add(CFA_XSP16, literal(-3)))
          CFI DPL0 load(1, XDATA, add(CFA_XSP16, literal(-2)))
          CFI DPH0 load(1, XDATA, add(CFA_XSP16, literal(-1)))
          CFI CFA_SP SP+-2
          CFI CFA_XSP16 add(XSP16, 18)
          CFI Block cfiCond18 Using cfiCommon0
          CFI (cfiCond18) Function rxStartIsr
          CFI (cfiCond18) Conditional ??CrossCallReturnLabel_35
          CFI (cfiCond18) R6 load(1, XDATA, add(CFA_XSP16, literal(-16)))
          CFI (cfiCond18) VB load(1, XDATA, add(CFA_XSP16, literal(-15)))
          CFI (cfiCond18) V0 load(1, XDATA, add(CFA_XSP16, literal(-14)))
          CFI (cfiCond18) V1 load(1, XDATA, add(CFA_XSP16, literal(-13)))
          CFI (cfiCond18) V2 load(1, XDATA, add(CFA_XSP16, literal(-12)))
          CFI (cfiCond18) V3 load(1, XDATA, add(CFA_XSP16, literal(-11)))
          CFI (cfiCond18) V4 load(1, XDATA, add(CFA_XSP16, literal(-10)))
          CFI (cfiCond18) V5 load(1, XDATA, add(CFA_XSP16, literal(-9)))
          CFI (cfiCond18) V6 load(1, XDATA, add(CFA_XSP16, literal(-8)))
          CFI (cfiCond18) V7 load(1, XDATA, add(CFA_XSP16, literal(-7)))
          CFI (cfiCond18) R7 load(1, XDATA, add(CFA_XSP16, literal(-6)))
          CFI (cfiCond18) ?RET_LOW load(1, XDATA, add(CFA_XSP16, literal(-5)))
          CFI (cfiCond18) ?RET_HIGH load(1, XDATA, add(CFA_XSP16, literal(-4)))
          CFI (cfiCond18) ?BRET_EXT load(1, XDATA, add(CFA_XSP16, literal(-3)))
          CFI (cfiCond18) DPL0 load(1, XDATA, add(CFA_XSP16, literal(-2)))
          CFI (cfiCond18) DPH0 load(1, XDATA, add(CFA_XSP16, literal(-1)))
          CFI (cfiCond18) CFA_SP SP+-2
          CFI (cfiCond18) CFA_XSP16 add(XSP16, 21)
          CFI Block cfiPicker19 Using cfiCommon1
          CFI (cfiPicker19) NoFunction
          CFI (cfiPicker19) Picker
        MOV       DPTR,#pRxBuf
        MOVX      A,@DPTR
        MOV       R0,A
        INC       DPTR
          CFI EndBlock cfiCond17
          CFI EndBlock cfiCond18
          CFI EndBlock cfiPicker19
        REQUIRE ??Subroutine28_0
        ; // Fall through to label ??Subroutine28_0

        RSEG BANKED_CODE:HUGECODE:NOROOT(0)
??Subroutine28_0:
          CFI Block cfiCond20 Using cfiCommon0
          CFI Function rxStartIsr
          CFI Conditional ??CrossCallReturnLabel_33
          CFI R6 load(1, XDATA, add(CFA_XSP16, literal(-16)))
          CFI VB load(1, XDATA, add(CFA_XSP16, literal(-15)))
          CFI V0 load(1, XDATA, add(CFA_XSP16, literal(-14)))
          CFI V1 load(1, XDATA, add(CFA_XSP16, literal(-13)))
          CFI V2 load(1, XDATA, add(CFA_XSP16, literal(-12)))
          CFI V3 load(1, XDATA, add(CFA_XSP16, literal(-11)))
          CFI V4 load(1, XDATA, add(CFA_XSP16, literal(-10)))
          CFI V5 load(1, XDATA, add(CFA_XSP16, literal(-9)))
          CFI V6 load(1, XDATA, add(CFA_XSP16, literal(-8)))
          CFI V7 load(1, XDATA, add(CFA_XSP16, literal(-7)))
          CFI R7 load(1, XDATA, add(CFA_XSP16, literal(-6)))
          CFI ?RET_LOW load(1, XDATA, add(CFA_XSP16, literal(-5)))
          CFI ?RET_HIGH load(1, XDATA, add(CFA_XSP16, literal(-4)))
          CFI ?BRET_EXT load(1, XDATA, add(CFA_XSP16, literal(-3)))
          CFI DPL0 load(1, XDATA, add(CFA_XSP16, literal(-2)))
          CFI DPH0 load(1, XDATA, add(CFA_XSP16, literal(-1)))
          CFI CFA_XSP16 add(XSP16, 18)
          CFI Block cfiCond21 Using cfiCommon0
          CFI (cfiCond21) Function rxStartIsr
          CFI (cfiCond21) Conditional ??CrossCallReturnLabel_34
          CFI (cfiCond21) R6 load(1, XDATA, add(CFA_XSP16, literal(-16)))
          CFI (cfiCond21) VB load(1, XDATA, add(CFA_XSP16, literal(-15)))
          CFI (cfiCond21) V0 load(1, XDATA, add(CFA_XSP16, literal(-14)))
          CFI (cfiCond21) V1 load(1, XDATA, add(CFA_XSP16, literal(-13)))
          CFI (cfiCond21) V2 load(1, XDATA, add(CFA_XSP16, literal(-12)))
          CFI (cfiCond21) V3 load(1, XDATA, add(CFA_XSP16, literal(-11)))
          CFI (cfiCond21) V4 load(1, XDATA, add(CFA_XSP16, literal(-10)))
          CFI (cfiCond21) V5 load(1, XDATA, add(CFA_XSP16, literal(-9)))
          CFI (cfiCond21) V6 load(1, XDATA, add(CFA_XSP16, literal(-8)))
          CFI (cfiCond21) V7 load(1, XDATA, add(CFA_XSP16, literal(-7)))
          CFI (cfiCond21) R7 load(1, XDATA, add(CFA_XSP16, literal(-6)))
          CFI (cfiCond21) ?RET_LOW load(1, XDATA, add(CFA_XSP16, literal(-5)))
          CFI (cfiCond21) ?RET_HIGH load(1, XDATA, add(CFA_XSP16, literal(-4)))
          CFI (cfiCond21) ?BRET_EXT load(1, XDATA, add(CFA_XSP16, literal(-3)))
          CFI (cfiCond21) DPL0 load(1, XDATA, add(CFA_XSP16, literal(-2)))
          CFI (cfiCond21) DPH0 load(1, XDATA, add(CFA_XSP16, literal(-1)))
          CFI (cfiCond21) CFA_SP SP+-2
          CFI (cfiCond21) CFA_XSP16 add(XSP16, 18)
          CFI Block cfiCond22 Using cfiCommon0
          CFI (cfiCond22) Function rxStartIsr
          CFI (cfiCond22) Conditional ??CrossCallReturnLabel_35
          CFI (cfiCond22) R6 load(1, XDATA, add(CFA_XSP16, literal(-16)))
          CFI (cfiCond22) VB load(1, XDATA, add(CFA_XSP16, literal(-15)))
          CFI (cfiCond22) V0 load(1, XDATA, add(CFA_XSP16, literal(-14)))
          CFI (cfiCond22) V1 load(1, XDATA, add(CFA_XSP16, literal(-13)))
          CFI (cfiCond22) V2 load(1, XDATA, add(CFA_XSP16, literal(-12)))
          CFI (cfiCond22) V3 load(1, XDATA, add(CFA_XSP16, literal(-11)))
          CFI (cfiCond22) V4 load(1, XDATA, add(CFA_XSP16, literal(-10)))
          CFI (cfiCond22) V5 load(1, XDATA, add(CFA_XSP16, literal(-9)))
          CFI (cfiCond22) V6 load(1, XDATA, add(CFA_XSP16, literal(-8)))
          CFI (cfiCond22) V7 load(1, XDATA, add(CFA_XSP16, literal(-7)))
          CFI (cfiCond22) R7 load(1, XDATA, add(CFA_XSP16, literal(-6)))
          CFI (cfiCond22) ?RET_LOW load(1, XDATA, add(CFA_XSP16, literal(-5)))
          CFI (cfiCond22) ?RET_HIGH load(1, XDATA, add(CFA_XSP16, literal(-4)))
          CFI (cfiCond22) ?BRET_EXT load(1, XDATA, add(CFA_XSP16, literal(-3)))
          CFI (cfiCond22) DPL0 load(1, XDATA, add(CFA_XSP16, literal(-2)))
          CFI (cfiCond22) DPH0 load(1, XDATA, add(CFA_XSP16, literal(-1)))
          CFI (cfiCond22) CFA_SP SP+-2
          CFI (cfiCond22) CFA_XSP16 add(XSP16, 21)
          CFI Block cfiPicker23 Using cfiCommon1
          CFI (cfiPicker23) NoFunction
          CFI (cfiPicker23) Picker
        MOVX      A,@DPTR
        XCH       A,R0
        ADD       A,#0x34
        MOV       DPL,A
        CLR       A
        ADDC      A,R0
        MOV       DPH,A
        RET
          CFI EndBlock cfiCond20
          CFI EndBlock cfiCond21
          CFI EndBlock cfiCond22
          CFI EndBlock cfiPicker23

        RSEG BANKED_CODE:HUGECODE:NOROOT(0)
?Subroutine9:
          CFI Block cfiCond24 Using cfiCommon0
          CFI Function macRxRadioPowerUpInit
          CFI Conditional ??CrossCallReturnLabel_9
          CFI DPL0 Frame(CFA_SP, 4)
          CFI DPH0 Frame(CFA_SP, 5)
          CFI CFA_SP SP+-7
          CFI Block cfiCond25 Using cfiCommon0
          CFI (cfiCond25) Function rxStartIsr
          CFI (cfiCond25) Conditional ??CrossCallReturnLabel_10
          CFI (cfiCond25) R6 load(1, XDATA, add(CFA_XSP16, literal(-16)))
          CFI (cfiCond25) VB load(1, XDATA, add(CFA_XSP16, literal(-15)))
          CFI (cfiCond25) V0 load(1, XDATA, add(CFA_XSP16, literal(-14)))
          CFI (cfiCond25) V1 load(1, XDATA, add(CFA_XSP16, literal(-13)))
          CFI (cfiCond25) V2 load(1, XDATA, add(CFA_XSP16, literal(-12)))
          CFI (cfiCond25) V3 load(1, XDATA, add(CFA_XSP16, literal(-11)))
          CFI (cfiCond25) V4 load(1, XDATA, add(CFA_XSP16, literal(-10)))
          CFI (cfiCond25) V5 load(1, XDATA, add(CFA_XSP16, literal(-9)))
          CFI (cfiCond25) V6 load(1, XDATA, add(CFA_XSP16, literal(-8)))
          CFI (cfiCond25) V7 load(1, XDATA, add(CFA_XSP16, literal(-7)))
          CFI (cfiCond25) R7 load(1, XDATA, add(CFA_XSP16, literal(-6)))
          CFI (cfiCond25) ?RET_LOW load(1, XDATA, add(CFA_XSP16, literal(-5)))
          CFI (cfiCond25) ?RET_HIGH load(1, XDATA, add(CFA_XSP16, literal(-4)))
          CFI (cfiCond25) ?BRET_EXT load(1, XDATA, add(CFA_XSP16, literal(-3)))
          CFI (cfiCond25) DPL0 load(1, XDATA, add(CFA_XSP16, literal(-2)))
          CFI (cfiCond25) DPH0 load(1, XDATA, add(CFA_XSP16, literal(-1)))
          CFI (cfiCond25) CFA_SP SP+-2
          CFI (cfiCond25) CFA_XSP16 add(XSP16, 18)
          CFI Block cfiPicker26 Using cfiCommon1
          CFI (cfiPicker26) NoFunction
          CFI (cfiPicker26) Picker
        MOVX      @DPTR,A
        MOV       R0,0xa8+0x0
        CLR       0xa8.7
        MOV       0x9b,#0x0
        RET
          CFI EndBlock cfiCond24
          CFI EndBlock cfiCond25
          CFI EndBlock cfiPicker26

        RSEG BANKED_CODE:HUGECODE:NOROOT(0)
?Subroutine8:
          CFI Block cfiCond27 Using cfiCommon0
          CFI Function rxStartIsr
          CFI Conditional ??CrossCallReturnLabel_40
          CFI R6 load(1, XDATA, add(CFA_XSP16, literal(-16)))
          CFI VB load(1, XDATA, add(CFA_XSP16, literal(-15)))
          CFI V0 load(1, XDATA, add(CFA_XSP16, literal(-14)))
          CFI V1 load(1, XDATA, add(CFA_XSP16, literal(-13)))
          CFI V2 load(1, XDATA, add(CFA_XSP16, literal(-12)))
          CFI V3 load(1, XDATA, add(CFA_XSP16, literal(-11)))
          CFI V4 load(1, XDATA, add(CFA_XSP16, literal(-10)))
          CFI V5 load(1, XDATA, add(CFA_XSP16, literal(-9)))
          CFI V6 load(1, XDATA, add(CFA_XSP16, literal(-8)))
          CFI V7 load(1, XDATA, add(CFA_XSP16, literal(-7)))
          CFI R7 load(1, XDATA, add(CFA_XSP16, literal(-6)))
          CFI ?RET_LOW load(1, XDATA, add(CFA_XSP16, literal(-5)))
          CFI ?RET_HIGH load(1, XDATA, add(CFA_XSP16, literal(-4)))
          CFI ?BRET_EXT load(1, XDATA, add(CFA_XSP16, literal(-3)))
          CFI DPL0 load(1, XDATA, add(CFA_XSP16, literal(-2)))
          CFI DPH0 load(1, XDATA, add(CFA_XSP16, literal(-1)))
          CFI CFA_SP SP+-2
          CFI CFA_XSP16 add(XSP16, 18)
          CFI Block cfiCond28 Using cfiCommon0
          CFI (cfiCond28) Function rxFcsIsr
          CFI (cfiCond28) Conditional ??CrossCallReturnLabel_41
          CFI (cfiCond28) R6 load(1, XDATA, add(CFA_XSP16, literal(-10)))
          CFI (cfiCond28) VB load(1, XDATA, add(CFA_XSP16, literal(-9)))
          CFI (cfiCond28) V0 load(1, XDATA, add(CFA_XSP16, literal(-8)))
          CFI (cfiCond28) V1 load(1, XDATA, add(CFA_XSP16, literal(-7)))
          CFI (cfiCond28) R7 load(1, XDATA, add(CFA_XSP16, literal(-6)))
          CFI (cfiCond28) ?RET_LOW load(1, XDATA, add(CFA_XSP16, literal(-5)))
          CFI (cfiCond28) ?RET_HIGH load(1, XDATA, add(CFA_XSP16, literal(-4)))
          CFI (cfiCond28) ?BRET_EXT load(1, XDATA, add(CFA_XSP16, literal(-3)))
          CFI (cfiCond28) DPL0 load(1, XDATA, add(CFA_XSP16, literal(-2)))
          CFI (cfiCond28) DPH0 load(1, XDATA, add(CFA_XSP16, literal(-1)))
          CFI (cfiCond28) CFA_SP SP+-2
          CFI (cfiCond28) CFA_XSP16 add(XSP16, 10)
          CFI Block cfiPicker29 Using cfiCommon1
          CFI (cfiPicker29) NoFunction
          CFI (cfiPicker29) Picker
        XCH       A,R2
        ADD       A,#0x32
          CFI EndBlock cfiCond27
          CFI EndBlock cfiCond28
          CFI EndBlock cfiPicker29
        REQUIRE ??Subroutine29_0
        ; // Fall through to label ??Subroutine29_0

        RSEG BANKED_CODE:HUGECODE:NOROOT(0)
??Subroutine29_0:
          CFI Block cfiCond30 Using cfiCommon0
          CFI Function rxAddrIsr
          CFI Conditional ??CrossCallReturnLabel_37
          CFI R6 load(1, XDATA, add(CFA_XSP16, literal(-10)))
          CFI VB load(1, XDATA, add(CFA_XSP16, literal(-9)))
          CFI V0 load(1, XDATA, add(CFA_XSP16, literal(-8)))
          CFI V1 load(1, XDATA, add(CFA_XSP16, literal(-7)))
          CFI R7 load(1, XDATA, add(CFA_XSP16, literal(-6)))
          CFI ?RET_LOW load(1, XDATA, add(CFA_XSP16, literal(-5)))
          CFI ?RET_HIGH load(1, XDATA, add(CFA_XSP16, literal(-4)))
          CFI ?BRET_EXT load(1, XDATA, add(CFA_XSP16, literal(-3)))
          CFI DPL0 load(1, XDATA, add(CFA_XSP16, literal(-2)))
          CFI DPH0 load(1, XDATA, add(CFA_XSP16, literal(-1)))
          CFI CFA_SP SP+-2
          CFI CFA_XSP16 add(XSP16, 30)
          CFI Block cfiCond31 Using cfiCommon0
          CFI (cfiCond31) Function rxAddrIsr
          CFI (cfiCond31) Conditional ??CrossCallReturnLabel_38
          CFI (cfiCond31) R6 load(1, XDATA, add(CFA_XSP16, literal(-10)))
          CFI (cfiCond31) VB load(1, XDATA, add(CFA_XSP16, literal(-9)))
          CFI (cfiCond31) V0 load(1, XDATA, add(CFA_XSP16, literal(-8)))
          CFI (cfiCond31) V1 load(1, XDATA, add(CFA_XSP16, literal(-7)))
          CFI (cfiCond31) R7 load(1, XDATA, add(CFA_XSP16, literal(-6)))
          CFI (cfiCond31) ?RET_LOW load(1, XDATA, add(CFA_XSP16, literal(-5)))
          CFI (cfiCond31) ?RET_HIGH load(1, XDATA, add(CFA_XSP16, literal(-4)))
          CFI (cfiCond31) ?BRET_EXT load(1, XDATA, add(CFA_XSP16, literal(-3)))
          CFI (cfiCond31) DPL0 load(1, XDATA, add(CFA_XSP16, literal(-2)))
          CFI (cfiCond31) DPH0 load(1, XDATA, add(CFA_XSP16, literal(-1)))
          CFI (cfiCond31) CFA_SP SP+-2
          CFI (cfiCond31) CFA_XSP16 add(XSP16, 30)
          CFI Block cfiCond32 Using cfiCommon0
          CFI (cfiCond32) Function rxAddrIsr
          CFI (cfiCond32) Conditional ??CrossCallReturnLabel_39
          CFI (cfiCond32) R6 load(1, XDATA, add(CFA_XSP16, literal(-10)))
          CFI (cfiCond32) VB load(1, XDATA, add(CFA_XSP16, literal(-9)))
          CFI (cfiCond32) V0 load(1, XDATA, add(CFA_XSP16, literal(-8)))
          CFI (cfiCond32) V1 load(1, XDATA, add(CFA_XSP16, literal(-7)))
          CFI (cfiCond32) R7 load(1, XDATA, add(CFA_XSP16, literal(-6)))
          CFI (cfiCond32) ?RET_LOW load(1, XDATA, add(CFA_XSP16, literal(-5)))
          CFI (cfiCond32) ?RET_HIGH load(1, XDATA, add(CFA_XSP16, literal(-4)))
          CFI (cfiCond32) ?BRET_EXT load(1, XDATA, add(CFA_XSP16, literal(-3)))
          CFI (cfiCond32) DPL0 load(1, XDATA, add(CFA_XSP16, literal(-2)))
          CFI (cfiCond32) DPH0 load(1, XDATA, add(CFA_XSP16, literal(-1)))
          CFI (cfiCond32) CFA_SP SP+-2
          CFI (cfiCond32) CFA_XSP16 add(XSP16, 30)
          CFI Block cfiCond33 Using cfiCommon0
          CFI (cfiCond33) Function rxStartIsr
          CFI (cfiCond33) Conditional ??CrossCallReturnLabel_40
          CFI (cfiCond33) R6 load(1, XDATA, add(CFA_XSP16, literal(-16)))
          CFI (cfiCond33) VB load(1, XDATA, add(CFA_XSP16, literal(-15)))
          CFI (cfiCond33) V0 load(1, XDATA, add(CFA_XSP16, literal(-14)))
          CFI (cfiCond33) V1 load(1, XDATA, add(CFA_XSP16, literal(-13)))
          CFI (cfiCond33) V2 load(1, XDATA, add(CFA_XSP16, literal(-12)))
          CFI (cfiCond33) V3 load(1, XDATA, add(CFA_XSP16, literal(-11)))
          CFI (cfiCond33) V4 load(1, XDATA, add(CFA_XSP16, literal(-10)))
          CFI (cfiCond33) V5 load(1, XDATA, add(CFA_XSP16, literal(-9)))
          CFI (cfiCond33) V6 load(1, XDATA, add(CFA_XSP16, literal(-8)))
          CFI (cfiCond33) V7 load(1, XDATA, add(CFA_XSP16, literal(-7)))
          CFI (cfiCond33) R7 load(1, XDATA, add(CFA_XSP16, literal(-6)))
          CFI (cfiCond33) ?RET_LOW load(1, XDATA, add(CFA_XSP16, literal(-5)))
          CFI (cfiCond33) ?RET_HIGH load(1, XDATA, add(CFA_XSP16, literal(-4)))
          CFI (cfiCond33) ?BRET_EXT load(1, XDATA, add(CFA_XSP16, literal(-3)))
          CFI (cfiCond33) DPL0 load(1, XDATA, add(CFA_XSP16, literal(-2)))
          CFI (cfiCond33) DPH0 load(1, XDATA, add(CFA_XSP16, literal(-1)))
          CFI (cfiCond33) CFA_SP SP+-2
          CFI (cfiCond33) CFA_XSP16 add(XSP16, 18)
          CFI Block cfiCond34 Using cfiCommon0
          CFI (cfiCond34) Function rxFcsIsr
          CFI (cfiCond34) Conditional ??CrossCallReturnLabel_41
          CFI (cfiCond34) R6 load(1, XDATA, add(CFA_XSP16, literal(-10)))
          CFI (cfiCond34) VB load(1, XDATA, add(CFA_XSP16, literal(-9)))
          CFI (cfiCond34) V0 load(1, XDATA, add(CFA_XSP16, literal(-8)))
          CFI (cfiCond34) V1 load(1, XDATA, add(CFA_XSP16, literal(-7)))
          CFI (cfiCond34) R7 load(1, XDATA, add(CFA_XSP16, literal(-6)))
          CFI (cfiCond34) ?RET_LOW load(1, XDATA, add(CFA_XSP16, literal(-5)))
          CFI (cfiCond34) ?RET_HIGH load(1, XDATA, add(CFA_XSP16, literal(-4)))
          CFI (cfiCond34) ?BRET_EXT load(1, XDATA, add(CFA_XSP16, literal(-3)))
          CFI (cfiCond34) DPL0 load(1, XDATA, add(CFA_XSP16, literal(-2)))
          CFI (cfiCond34) DPH0 load(1, XDATA, add(CFA_XSP16, literal(-1)))
          CFI (cfiCond34) CFA_SP SP+-2
          CFI (cfiCond34) CFA_XSP16 add(XSP16, 10)
          CFI Block cfiPicker35 Using cfiCommon1
          CFI (cfiPicker35) NoFunction
          CFI (cfiPicker35) Picker
        MOV       DPL,A
        CLR       A
        ADDC      A,R2
          CFI EndBlock cfiCond30
          CFI EndBlock cfiCond31
          CFI EndBlock cfiCond32
          CFI EndBlock cfiCond33
          CFI EndBlock cfiCond34
          CFI EndBlock cfiPicker35
        REQUIRE ??Subroutine30_0
        ; // Fall through to label ??Subroutine30_0

        RSEG BANKED_CODE:HUGECODE:NOROOT(0)
??Subroutine30_0:
          CFI Block cfiCond36 Using cfiCommon0
          CFI Function rxAddrIsr
          CFI Conditional ??CrossCallReturnLabel_36
          CFI R6 load(1, XDATA, add(CFA_XSP16, literal(-10)))
          CFI VB load(1, XDATA, add(CFA_XSP16, literal(-9)))
          CFI V0 load(1, XDATA, add(CFA_XSP16, literal(-8)))
          CFI V1 load(1, XDATA, add(CFA_XSP16, literal(-7)))
          CFI R7 load(1, XDATA, add(CFA_XSP16, literal(-6)))
          CFI ?RET_LOW load(1, XDATA, add(CFA_XSP16, literal(-5)))
          CFI ?RET_HIGH load(1, XDATA, add(CFA_XSP16, literal(-4)))
          CFI ?BRET_EXT load(1, XDATA, add(CFA_XSP16, literal(-3)))
          CFI DPL0 load(1, XDATA, add(CFA_XSP16, literal(-2)))
          CFI DPH0 load(1, XDATA, add(CFA_XSP16, literal(-1)))
          CFI CFA_SP SP+-2
          CFI CFA_XSP16 add(XSP16, 30)
          CFI Block cfiCond37 Using cfiCommon0
          CFI (cfiCond37) Function rxAddrIsr
          CFI (cfiCond37) Conditional ??CrossCallReturnLabel_37
          CFI (cfiCond37) R6 load(1, XDATA, add(CFA_XSP16, literal(-10)))
          CFI (cfiCond37) VB load(1, XDATA, add(CFA_XSP16, literal(-9)))
          CFI (cfiCond37) V0 load(1, XDATA, add(CFA_XSP16, literal(-8)))
          CFI (cfiCond37) V1 load(1, XDATA, add(CFA_XSP16, literal(-7)))
          CFI (cfiCond37) R7 load(1, XDATA, add(CFA_XSP16, literal(-6)))
          CFI (cfiCond37) ?RET_LOW load(1, XDATA, add(CFA_XSP16, literal(-5)))
          CFI (cfiCond37) ?RET_HIGH load(1, XDATA, add(CFA_XSP16, literal(-4)))
          CFI (cfiCond37) ?BRET_EXT load(1, XDATA, add(CFA_XSP16, literal(-3)))
          CFI (cfiCond37) DPL0 load(1, XDATA, add(CFA_XSP16, literal(-2)))
          CFI (cfiCond37) DPH0 load(1, XDATA, add(CFA_XSP16, literal(-1)))
          CFI (cfiCond37) CFA_SP SP+-2
          CFI (cfiCond37) CFA_XSP16 add(XSP16, 30)
          CFI Block cfiCond38 Using cfiCommon0
          CFI (cfiCond38) Function rxAddrIsr
          CFI (cfiCond38) Conditional ??CrossCallReturnLabel_38
          CFI (cfiCond38) R6 load(1, XDATA, add(CFA_XSP16, literal(-10)))
          CFI (cfiCond38) VB load(1, XDATA, add(CFA_XSP16, literal(-9)))
          CFI (cfiCond38) V0 load(1, XDATA, add(CFA_XSP16, literal(-8)))
          CFI (cfiCond38) V1 load(1, XDATA, add(CFA_XSP16, literal(-7)))
          CFI (cfiCond38) R7 load(1, XDATA, add(CFA_XSP16, literal(-6)))
          CFI (cfiCond38) ?RET_LOW load(1, XDATA, add(CFA_XSP16, literal(-5)))
          CFI (cfiCond38) ?RET_HIGH load(1, XDATA, add(CFA_XSP16, literal(-4)))
          CFI (cfiCond38) ?BRET_EXT load(1, XDATA, add(CFA_XSP16, literal(-3)))
          CFI (cfiCond38) DPL0 load(1, XDATA, add(CFA_XSP16, literal(-2)))
          CFI (cfiCond38) DPH0 load(1, XDATA, add(CFA_XSP16, literal(-1)))
          CFI (cfiCond38) CFA_SP SP+-2
          CFI (cfiCond38) CFA_XSP16 add(XSP16, 30)
          CFI Block cfiCond39 Using cfiCommon0
          CFI (cfiCond39) Function rxAddrIsr
          CFI (cfiCond39) Conditional ??CrossCallReturnLabel_39
          CFI (cfiCond39) R6 load(1, XDATA, add(CFA_XSP16, literal(-10)))
          CFI (cfiCond39) VB load(1, XDATA, add(CFA_XSP16, literal(-9)))
          CFI (cfiCond39) V0 load(1, XDATA, add(CFA_XSP16, literal(-8)))
          CFI (cfiCond39) V1 load(1, XDATA, add(CFA_XSP16, literal(-7)))
          CFI (cfiCond39) R7 load(1, XDATA, add(CFA_XSP16, literal(-6)))
          CFI (cfiCond39) ?RET_LOW load(1, XDATA, add(CFA_XSP16, literal(-5)))
          CFI (cfiCond39) ?RET_HIGH load(1, XDATA, add(CFA_XSP16, literal(-4)))
          CFI (cfiCond39) ?BRET_EXT load(1, XDATA, add(CFA_XSP16, literal(-3)))
          CFI (cfiCond39) DPL0 load(1, XDATA, add(CFA_XSP16, literal(-2)))
          CFI (cfiCond39) DPH0 load(1, XDATA, add(CFA_XSP16, literal(-1)))
          CFI (cfiCond39) CFA_SP SP+-2
          CFI (cfiCond39) CFA_XSP16 add(XSP16, 30)
          CFI Block cfiCond40 Using cfiCommon0
          CFI (cfiCond40) Function rxStartIsr
          CFI (cfiCond40) Conditional ??CrossCallReturnLabel_40
          CFI (cfiCond40) R6 load(1, XDATA, add(CFA_XSP16, literal(-16)))
          CFI (cfiCond40) VB load(1, XDATA, add(CFA_XSP16, literal(-15)))
          CFI (cfiCond40) V0 load(1, XDATA, add(CFA_XSP16, literal(-14)))
          CFI (cfiCond40) V1 load(1, XDATA, add(CFA_XSP16, literal(-13)))
          CFI (cfiCond40) V2 load(1, XDATA, add(CFA_XSP16, literal(-12)))
          CFI (cfiCond40) V3 load(1, XDATA, add(CFA_XSP16, literal(-11)))
          CFI (cfiCond40) V4 load(1, XDATA, add(CFA_XSP16, literal(-10)))
          CFI (cfiCond40) V5 load(1, XDATA, add(CFA_XSP16, literal(-9)))
          CFI (cfiCond40) V6 load(1, XDATA, add(CFA_XSP16, literal(-8)))
          CFI (cfiCond40) V7 load(1, XDATA, add(CFA_XSP16, literal(-7)))
          CFI (cfiCond40) R7 load(1, XDATA, add(CFA_XSP16, literal(-6)))
          CFI (cfiCond40) ?RET_LOW load(1, XDATA, add(CFA_XSP16, literal(-5)))
          CFI (cfiCond40) ?RET_HIGH load(1, XDATA, add(CFA_XSP16, literal(-4)))
          CFI (cfiCond40) ?BRET_EXT load(1, XDATA, add(CFA_XSP16, literal(-3)))
          CFI (cfiCond40) DPL0 load(1, XDATA, add(CFA_XSP16, literal(-2)))
          CFI (cfiCond40) DPH0 load(1, XDATA, add(CFA_XSP16, literal(-1)))
          CFI (cfiCond40) CFA_SP SP+-2
          CFI (cfiCond40) CFA_XSP16 add(XSP16, 18)
          CFI Block cfiCond41 Using cfiCommon0
          CFI (cfiCond41) Function rxFcsIsr
          CFI (cfiCond41) Conditional ??CrossCallReturnLabel_41
          CFI (cfiCond41) R6 load(1, XDATA, add(CFA_XSP16, literal(-10)))
          CFI (cfiCond41) VB load(1, XDATA, add(CFA_XSP16, literal(-9)))
          CFI (cfiCond41) V0 load(1, XDATA, add(CFA_XSP16, literal(-8)))
          CFI (cfiCond41) V1 load(1, XDATA, add(CFA_XSP16, literal(-7)))
          CFI (cfiCond41) R7 load(1, XDATA, add(CFA_XSP16, literal(-6)))
          CFI (cfiCond41) ?RET_LOW load(1, XDATA, add(CFA_XSP16, literal(-5)))
          CFI (cfiCond41) ?RET_HIGH load(1, XDATA, add(CFA_XSP16, literal(-4)))
          CFI (cfiCond41) ?BRET_EXT load(1, XDATA, add(CFA_XSP16, literal(-3)))
          CFI (cfiCond41) DPL0 load(1, XDATA, add(CFA_XSP16, literal(-2)))
          CFI (cfiCond41) DPH0 load(1, XDATA, add(CFA_XSP16, literal(-1)))
          CFI (cfiCond41) CFA_SP SP+-2
          CFI (cfiCond41) CFA_XSP16 add(XSP16, 10)
          CFI Block cfiPicker42 Using cfiCommon1
          CFI (cfiPicker42) NoFunction
          CFI (cfiPicker42) Picker
        MOV       DPH,A
        MOV       A,R0
        MOVX      @DPTR,A
        INC       DPTR
        MOV       A,R1
        MOVX      @DPTR,A
        RET
          CFI EndBlock cfiCond36
          CFI EndBlock cfiCond37
          CFI EndBlock cfiCond38
          CFI EndBlock cfiCond39
          CFI EndBlock cfiCond40
          CFI EndBlock cfiCond41
          CFI EndBlock cfiPicker42

        RSEG BANKED_CODE:HUGECODE:NOROOT(0)
?Subroutine6:
          CFI Block cfiCond43 Using cfiCommon0
          CFI Function rxStartIsr
          CFI Conditional ??CrossCallReturnLabel_5
          CFI R6 load(1, XDATA, add(CFA_XSP16, literal(-16)))
          CFI VB load(1, XDATA, add(CFA_XSP16, literal(-15)))
          CFI V0 load(1, XDATA, add(CFA_XSP16, literal(-14)))
          CFI V1 load(1, XDATA, add(CFA_XSP16, literal(-13)))
          CFI V2 load(1, XDATA, add(CFA_XSP16, literal(-12)))
          CFI V3 load(1, XDATA, add(CFA_XSP16, literal(-11)))
          CFI V4 load(1, XDATA, add(CFA_XSP16, literal(-10)))
          CFI V5 load(1, XDATA, add(CFA_XSP16, literal(-9)))
          CFI V6 load(1, XDATA, add(CFA_XSP16, literal(-8)))
          CFI V7 load(1, XDATA, add(CFA_XSP16, literal(-7)))
          CFI R7 load(1, XDATA, add(CFA_XSP16, literal(-6)))
          CFI ?RET_LOW load(1, XDATA, add(CFA_XSP16, literal(-5)))
          CFI ?RET_HIGH load(1, XDATA, add(CFA_XSP16, literal(-4)))
          CFI ?BRET_EXT load(1, XDATA, add(CFA_XSP16, literal(-3)))
          CFI DPL0 load(1, XDATA, add(CFA_XSP16, literal(-2)))
          CFI DPH0 load(1, XDATA, add(CFA_XSP16, literal(-1)))
          CFI CFA_SP SP+-2
          CFI CFA_XSP16 add(XSP16, 18)
          CFI Block cfiCond44 Using cfiCommon0
          CFI (cfiCond44) Function rxStartIsr
          CFI (cfiCond44) Conditional ??CrossCallReturnLabel_6
          CFI (cfiCond44) R6 load(1, XDATA, add(CFA_XSP16, literal(-16)))
          CFI (cfiCond44) VB load(1, XDATA, add(CFA_XSP16, literal(-15)))
          CFI (cfiCond44) V0 load(1, XDATA, add(CFA_XSP16, literal(-14)))
          CFI (cfiCond44) V1 load(1, XDATA, add(CFA_XSP16, literal(-13)))
          CFI (cfiCond44) V2 load(1, XDATA, add(CFA_XSP16, literal(-12)))
          CFI (cfiCond44) V3 load(1, XDATA, add(CFA_XSP16, literal(-11)))
          CFI (cfiCond44) V4 load(1, XDATA, add(CFA_XSP16, literal(-10)))
          CFI (cfiCond44) V5 load(1, XDATA, add(CFA_XSP16, literal(-9)))
          CFI (cfiCond44) V6 load(1, XDATA, add(CFA_XSP16, literal(-8)))
          CFI (cfiCond44) V7 load(1, XDATA, add(CFA_XSP16, literal(-7)))
          CFI (cfiCond44) R7 load(1, XDATA, add(CFA_XSP16, literal(-6)))
          CFI (cfiCond44) ?RET_LOW load(1, XDATA, add(CFA_XSP16, literal(-5)))
          CFI (cfiCond44) ?RET_HIGH load(1, XDATA, add(CFA_XSP16, literal(-4)))
          CFI (cfiCond44) ?BRET_EXT load(1, XDATA, add(CFA_XSP16, literal(-3)))
          CFI (cfiCond44) DPL0 load(1, XDATA, add(CFA_XSP16, literal(-2)))
          CFI (cfiCond44) DPH0 load(1, XDATA, add(CFA_XSP16, literal(-1)))
          CFI (cfiCond44) CFA_SP SP+-2
          CFI (cfiCond44) CFA_XSP16 add(XSP16, 18)
          CFI Block cfiPicker45 Using cfiCommon1
          CFI (cfiPicker45) NoFunction
          CFI (cfiPicker45) Picker
        LCALL     ?Subroutine21 & 0xFFFF
??CrossCallReturnLabel_45:
        RET
          CFI EndBlock cfiCond43
          CFI EndBlock cfiCond44
          CFI EndBlock cfiPicker45

        RSEG BANKED_CODE:HUGECODE:NOROOT(0)
?Subroutine21:
          CFI Block cfiCond46 Using cfiCommon0
          CFI Function rxStartIsr
          CFI Conditional ??CrossCallReturnLabel_45, ??CrossCallReturnLabel_5
          CFI R6 load(1, XDATA, add(CFA_XSP16, literal(-16)))
          CFI VB load(1, XDATA, add(CFA_XSP16, literal(-15)))
          CFI V0 load(1, XDATA, add(CFA_XSP16, literal(-14)))
          CFI V1 load(1, XDATA, add(CFA_XSP16, literal(-13)))
          CFI V2 load(1, XDATA, add(CFA_XSP16, literal(-12)))
          CFI V3 load(1, XDATA, add(CFA_XSP16, literal(-11)))
          CFI V4 load(1, XDATA, add(CFA_XSP16, literal(-10)))
          CFI V5 load(1, XDATA, add(CFA_XSP16, literal(-9)))
          CFI V6 load(1, XDATA, add(CFA_XSP16, literal(-8)))
          CFI V7 load(1, XDATA, add(CFA_XSP16, literal(-7)))
          CFI R7 load(1, XDATA, add(CFA_XSP16, literal(-6)))
          CFI ?RET_LOW load(1, XDATA, add(CFA_XSP16, literal(-5)))
          CFI ?RET_HIGH load(1, XDATA, add(CFA_XSP16, literal(-4)))
          CFI ?BRET_EXT load(1, XDATA, add(CFA_XSP16, literal(-3)))
          CFI DPL0 load(1, XDATA, add(CFA_XSP16, literal(-2)))
          CFI DPH0 load(1, XDATA, add(CFA_XSP16, literal(-1)))
          CFI CFA_SP SP+-4
          CFI CFA_XSP16 add(XSP16, 18)
          CFI Block cfiCond47 Using cfiCommon0
          CFI (cfiCond47) Function rxStartIsr
          CFI (cfiCond47) Conditional ??CrossCallReturnLabel_45, ??CrossCallReturnLabel_6
          CFI (cfiCond47) R6 load(1, XDATA, add(CFA_XSP16, literal(-16)))
          CFI (cfiCond47) VB load(1, XDATA, add(CFA_XSP16, literal(-15)))
          CFI (cfiCond47) V0 load(1, XDATA, add(CFA_XSP16, literal(-14)))
          CFI (cfiCond47) V1 load(1, XDATA, add(CFA_XSP16, literal(-13)))
          CFI (cfiCond47) V2 load(1, XDATA, add(CFA_XSP16, literal(-12)))
          CFI (cfiCond47) V3 load(1, XDATA, add(CFA_XSP16, literal(-11)))
          CFI (cfiCond47) V4 load(1, XDATA, add(CFA_XSP16, literal(-10)))
          CFI (cfiCond47) V5 load(1, XDATA, add(CFA_XSP16, literal(-9)))
          CFI (cfiCond47) V6 load(1, XDATA, add(CFA_XSP16, literal(-8)))
          CFI (cfiCond47) V7 load(1, XDATA, add(CFA_XSP16, literal(-7)))
          CFI (cfiCond47) R7 load(1, XDATA, add(CFA_XSP16, literal(-6)))
          CFI (cfiCond47) ?RET_LOW load(1, XDATA, add(CFA_XSP16, literal(-5)))
          CFI (cfiCond47) ?RET_HIGH load(1, XDATA, add(CFA_XSP16, literal(-4)))
          CFI (cfiCond47) ?BRET_EXT load(1, XDATA, add(CFA_XSP16, literal(-3)))
          CFI (cfiCond47) DPL0 load(1, XDATA, add(CFA_XSP16, literal(-2)))
          CFI (cfiCond47) DPH0 load(1, XDATA, add(CFA_XSP16, literal(-1)))
          CFI (cfiCond47) CFA_SP SP+-4
          CFI (cfiCond47) CFA_XSP16 add(XSP16, 18)
          CFI Block cfiCond48 Using cfiCommon0
          CFI (cfiCond48) Function rxStartIsr
          CFI (cfiCond48) Conditional ??CrossCallReturnLabel_46, ??CrossCallReturnLabel_42
          CFI (cfiCond48) R6 load(1, XDATA, add(CFA_XSP16, literal(-16)))
          CFI (cfiCond48) VB load(1, XDATA, add(CFA_XSP16, literal(-15)))
          CFI (cfiCond48) V0 load(1, XDATA, add(CFA_XSP16, literal(-14)))
          CFI (cfiCond48) V1 load(1, XDATA, add(CFA_XSP16, literal(-13)))
          CFI (cfiCond48) V2 load(1, XDATA, add(CFA_XSP16, literal(-12)))
          CFI (cfiCond48) V3 load(1, XDATA, add(CFA_XSP16, literal(-11)))
          CFI (cfiCond48) V4 load(1, XDATA, add(CFA_XSP16, literal(-10)))
          CFI (cfiCond48) V5 load(1, XDATA, add(CFA_XSP16, literal(-9)))
          CFI (cfiCond48) V6 load(1, XDATA, add(CFA_XSP16, literal(-8)))
          CFI (cfiCond48) V7 load(1, XDATA, add(CFA_XSP16, literal(-7)))
          CFI (cfiCond48) R7 load(1, XDATA, add(CFA_XSP16, literal(-6)))
          CFI (cfiCond48) ?RET_LOW load(1, XDATA, add(CFA_XSP16, literal(-5)))
          CFI (cfiCond48) ?RET_HIGH load(1, XDATA, add(CFA_XSP16, literal(-4)))
          CFI (cfiCond48) ?BRET_EXT load(1, XDATA, add(CFA_XSP16, literal(-3)))
          CFI (cfiCond48) DPL0 load(1, XDATA, add(CFA_XSP16, literal(-2)))
          CFI (cfiCond48) DPH0 load(1, XDATA, add(CFA_XSP16, literal(-1)))
          CFI (cfiCond48) CFA_SP SP+-4
          CFI (cfiCond48) CFA_XSP16 add(XSP16, 18)
          CFI Block cfiCond49 Using cfiCommon0
          CFI (cfiCond49) Function rxFcsIsr
          CFI (cfiCond49) Conditional ??CrossCallReturnLabel_46, ??CrossCallReturnLabel_43
          CFI (cfiCond49) R6 load(1, XDATA, add(CFA_XSP16, literal(-10)))
          CFI (cfiCond49) VB load(1, XDATA, add(CFA_XSP16, literal(-9)))
          CFI (cfiCond49) V0 load(1, XDATA, add(CFA_XSP16, literal(-8)))
          CFI (cfiCond49) V1 load(1, XDATA, add(CFA_XSP16, literal(-7)))
          CFI (cfiCond49) R7 load(1, XDATA, add(CFA_XSP16, literal(-6)))
          CFI (cfiCond49) ?RET_LOW load(1, XDATA, add(CFA_XSP16, literal(-5)))
          CFI (cfiCond49) ?RET_HIGH load(1, XDATA, add(CFA_XSP16, literal(-4)))
          CFI (cfiCond49) ?BRET_EXT load(1, XDATA, add(CFA_XSP16, literal(-3)))
          CFI (cfiCond49) DPL0 load(1, XDATA, add(CFA_XSP16, literal(-2)))
          CFI (cfiCond49) DPH0 load(1, XDATA, add(CFA_XSP16, literal(-1)))
          CFI (cfiCond49) CFA_SP SP+-4
          CFI (cfiCond49) CFA_XSP16 add(XSP16, 10)
          CFI Block cfiCond50 Using cfiCommon0
          CFI (cfiCond50) Function rxFcsIsr
          CFI (cfiCond50) Conditional ??CrossCallReturnLabel_46, ??CrossCallReturnLabel_44
          CFI (cfiCond50) R6 load(1, XDATA, add(CFA_XSP16, literal(-10)))
          CFI (cfiCond50) VB load(1, XDATA, add(CFA_XSP16, literal(-9)))
          CFI (cfiCond50) V0 load(1, XDATA, add(CFA_XSP16, literal(-8)))
          CFI (cfiCond50) V1 load(1, XDATA, add(CFA_XSP16, literal(-7)))
          CFI (cfiCond50) R7 load(1, XDATA, add(CFA_XSP16, literal(-6)))
          CFI (cfiCond50) ?RET_LOW load(1, XDATA, add(CFA_XSP16, literal(-5)))
          CFI (cfiCond50) ?RET_HIGH load(1, XDATA, add(CFA_XSP16, literal(-4)))
          CFI (cfiCond50) ?BRET_EXT load(1, XDATA, add(CFA_XSP16, literal(-3)))
          CFI (cfiCond50) DPL0 load(1, XDATA, add(CFA_XSP16, literal(-2)))
          CFI (cfiCond50) DPH0 load(1, XDATA, add(CFA_XSP16, literal(-1)))
          CFI (cfiCond50) CFA_SP SP+-4
          CFI (cfiCond50) CFA_XSP16 add(XSP16, 10)
          CFI Block cfiPicker51 Using cfiCommon1
          CFI (cfiPicker51) NoFunction
          CFI (cfiPicker51) Picker
        MOVX      @DPTR,A
        LCALL     ?Subroutine26 & 0xFFFF
??CrossCallReturnLabel_61:
        RET
          CFI EndBlock cfiCond46
          CFI EndBlock cfiCond47
          CFI EndBlock cfiCond48
          CFI EndBlock cfiCond49
          CFI EndBlock cfiCond50
          CFI EndBlock cfiPicker51

        RSEG BANKED_CODE:HUGECODE:NOROOT(0)
?Subroutine26:
          CFI Block cfiCond52 Using cfiCommon0
          CFI Function rxHaltCleanupFinalStep
          CFI Conditional ??CrossCallReturnLabel_60
          CFI DPL0 Frame(CFA_SP, 4)
          CFI DPH0 Frame(CFA_SP, 5)
          CFI CFA_SP SP+-7
          CFI Block cfiCond53 Using cfiCommon0
          CFI (cfiCond53) Function rxStartIsr
          CFI (cfiCond53) Conditional ??CrossCallReturnLabel_61, ??CrossCallReturnLabel_45, ??CrossCallReturnLabel_5
          CFI (cfiCond53) R6 load(1, XDATA, add(CFA_XSP16, literal(-16)))
          CFI (cfiCond53) VB load(1, XDATA, add(CFA_XSP16, literal(-15)))
          CFI (cfiCond53) V0 load(1, XDATA, add(CFA_XSP16, literal(-14)))
          CFI (cfiCond53) V1 load(1, XDATA, add(CFA_XSP16, literal(-13)))
          CFI (cfiCond53) V2 load(1, XDATA, add(CFA_XSP16, literal(-12)))
          CFI (cfiCond53) V3 load(1, XDATA, add(CFA_XSP16, literal(-11)))
          CFI (cfiCond53) V4 load(1, XDATA, add(CFA_XSP16, literal(-10)))
          CFI (cfiCond53) V5 load(1, XDATA, add(CFA_XSP16, literal(-9)))
          CFI (cfiCond53) V6 load(1, XDATA, add(CFA_XSP16, literal(-8)))
          CFI (cfiCond53) V7 load(1, XDATA, add(CFA_XSP16, literal(-7)))
          CFI (cfiCond53) R7 load(1, XDATA, add(CFA_XSP16, literal(-6)))
          CFI (cfiCond53) ?RET_LOW load(1, XDATA, add(CFA_XSP16, literal(-5)))
          CFI (cfiCond53) ?RET_HIGH load(1, XDATA, add(CFA_XSP16, literal(-4)))
          CFI (cfiCond53) ?BRET_EXT load(1, XDATA, add(CFA_XSP16, literal(-3)))
          CFI (cfiCond53) DPL0 load(1, XDATA, add(CFA_XSP16, literal(-2)))
          CFI (cfiCond53) DPH0 load(1, XDATA, add(CFA_XSP16, literal(-1)))
          CFI (cfiCond53) CFA_SP SP+-6
          CFI (cfiCond53) CFA_XSP16 add(XSP16, 18)
          CFI Block cfiCond54 Using cfiCommon0
          CFI (cfiCond54) Function rxStartIsr
          CFI (cfiCond54) Conditional ??CrossCallReturnLabel_61, ??CrossCallReturnLabel_45, ??CrossCallReturnLabel_6
          CFI (cfiCond54) R6 load(1, XDATA, add(CFA_XSP16, literal(-16)))
          CFI (cfiCond54) VB load(1, XDATA, add(CFA_XSP16, literal(-15)))
          CFI (cfiCond54) V0 load(1, XDATA, add(CFA_XSP16, literal(-14)))
          CFI (cfiCond54) V1 load(1, XDATA, add(CFA_XSP16, literal(-13)))
          CFI (cfiCond54) V2 load(1, XDATA, add(CFA_XSP16, literal(-12)))
          CFI (cfiCond54) V3 load(1, XDATA, add(CFA_XSP16, literal(-11)))
          CFI (cfiCond54) V4 load(1, XDATA, add(CFA_XSP16, literal(-10)))
          CFI (cfiCond54) V5 load(1, XDATA, add(CFA_XSP16, literal(-9)))
          CFI (cfiCond54) V6 load(1, XDATA, add(CFA_XSP16, literal(-8)))
          CFI (cfiCond54) V7 load(1, XDATA, add(CFA_XSP16, literal(-7)))
          CFI (cfiCond54) R7 load(1, XDATA, add(CFA_XSP16, literal(-6)))
          CFI (cfiCond54) ?RET_LOW load(1, XDATA, add(CFA_XSP16, literal(-5)))
          CFI (cfiCond54) ?RET_HIGH load(1, XDATA, add(CFA_XSP16, literal(-4)))
          CFI (cfiCond54) ?BRET_EXT load(1, XDATA, add(CFA_XSP16, literal(-3)))
          CFI (cfiCond54) DPL0 load(1, XDATA, add(CFA_XSP16, literal(-2)))
          CFI (cfiCond54) DPH0 load(1, XDATA, add(CFA_XSP16, literal(-1)))
          CFI (cfiCond54) CFA_SP SP+-6
          CFI (cfiCond54) CFA_XSP16 add(XSP16, 18)
          CFI Block cfiCond55 Using cfiCommon0
          CFI (cfiCond55) Function rxStartIsr
          CFI (cfiCond55) Conditional ??CrossCallReturnLabel_61, ??CrossCallReturnLabel_46, ??CrossCallReturnLabel_42
          CFI (cfiCond55) R6 load(1, XDATA, add(CFA_XSP16, literal(-16)))
          CFI (cfiCond55) VB load(1, XDATA, add(CFA_XSP16, literal(-15)))
          CFI (cfiCond55) V0 load(1, XDATA, add(CFA_XSP16, literal(-14)))
          CFI (cfiCond55) V1 load(1, XDATA, add(CFA_XSP16, literal(-13)))
          CFI (cfiCond55) V2 load(1, XDATA, add(CFA_XSP16, literal(-12)))
          CFI (cfiCond55) V3 load(1, XDATA, add(CFA_XSP16, literal(-11)))
          CFI (cfiCond55) V4 load(1, XDATA, add(CFA_XSP16, literal(-10)))
          CFI (cfiCond55) V5 load(1, XDATA, add(CFA_XSP16, literal(-9)))
          CFI (cfiCond55) V6 load(1, XDATA, add(CFA_XSP16, literal(-8)))
          CFI (cfiCond55) V7 load(1, XDATA, add(CFA_XSP16, literal(-7)))
          CFI (cfiCond55) R7 load(1, XDATA, add(CFA_XSP16, literal(-6)))
          CFI (cfiCond55) ?RET_LOW load(1, XDATA, add(CFA_XSP16, literal(-5)))
          CFI (cfiCond55) ?RET_HIGH load(1, XDATA, add(CFA_XSP16, literal(-4)))
          CFI (cfiCond55) ?BRET_EXT load(1, XDATA, add(CFA_XSP16, literal(-3)))
          CFI (cfiCond55) DPL0 load(1, XDATA, add(CFA_XSP16, literal(-2)))
          CFI (cfiCond55) DPH0 load(1, XDATA, add(CFA_XSP16, literal(-1)))
          CFI (cfiCond55) CFA_SP SP+-6
          CFI (cfiCond55) CFA_XSP16 add(XSP16, 18)
          CFI Block cfiCond56 Using cfiCommon0
          CFI (cfiCond56) Function rxFcsIsr
          CFI (cfiCond56) Conditional ??CrossCallReturnLabel_61, ??CrossCallReturnLabel_46, ??CrossCallReturnLabel_43
          CFI (cfiCond56) R6 load(1, XDATA, add(CFA_XSP16, literal(-10)))
          CFI (cfiCond56) VB load(1, XDATA, add(CFA_XSP16, literal(-9)))
          CFI (cfiCond56) V0 load(1, XDATA, add(CFA_XSP16, literal(-8)))
          CFI (cfiCond56) V1 load(1, XDATA, add(CFA_XSP16, literal(-7)))
          CFI (cfiCond56) R7 load(1, XDATA, add(CFA_XSP16, literal(-6)))
          CFI (cfiCond56) ?RET_LOW load(1, XDATA, add(CFA_XSP16, literal(-5)))
          CFI (cfiCond56) ?RET_HIGH load(1, XDATA, add(CFA_XSP16, literal(-4)))
          CFI (cfiCond56) ?BRET_EXT load(1, XDATA, add(CFA_XSP16, literal(-3)))
          CFI (cfiCond56) DPL0 load(1, XDATA, add(CFA_XSP16, literal(-2)))
          CFI (cfiCond56) DPH0 load(1, XDATA, add(CFA_XSP16, literal(-1)))
          CFI (cfiCond56) CFA_SP SP+-6
          CFI (cfiCond56) CFA_XSP16 add(XSP16, 10)
          CFI Block cfiCond57 Using cfiCommon0
          CFI (cfiCond57) Function rxFcsIsr
          CFI (cfiCond57) Conditional ??CrossCallReturnLabel_61, ??CrossCallReturnLabel_46, ??CrossCallReturnLabel_44
          CFI (cfiCond57) R6 load(1, XDATA, add(CFA_XSP16, literal(-10)))
          CFI (cfiCond57) VB load(1, XDATA, add(CFA_XSP16, literal(-9)))
          CFI (cfiCond57) V0 load(1, XDATA, add(CFA_XSP16, literal(-8)))
          CFI (cfiCond57) V1 load(1, XDATA, add(CFA_XSP16, literal(-7)))
          CFI (cfiCond57) R7 load(1, XDATA, add(CFA_XSP16, literal(-6)))
          CFI (cfiCond57) ?RET_LOW load(1, XDATA, add(CFA_XSP16, literal(-5)))
          CFI (cfiCond57) ?RET_HIGH load(1, XDATA, add(CFA_XSP16, literal(-4)))
          CFI (cfiCond57) ?BRET_EXT load(1, XDATA, add(CFA_XSP16, literal(-3)))
          CFI (cfiCond57) DPL0 load(1, XDATA, add(CFA_XSP16, literal(-2)))
          CFI (cfiCond57) DPH0 load(1, XDATA, add(CFA_XSP16, literal(-1)))
          CFI (cfiCond57) CFA_SP SP+-6
          CFI (cfiCond57) CFA_XSP16 add(XSP16, 10)
          CFI Block cfiPicker58 Using cfiCommon1
          CFI (cfiPicker58) NoFunction
          CFI (cfiPicker58) Picker
        MOV       DPTR,#pRxBuf
          CFI EndBlock cfiCond52
          CFI EndBlock cfiCond53
          CFI EndBlock cfiCond54
          CFI EndBlock cfiCond55
          CFI EndBlock cfiCond56
          CFI EndBlock cfiCond57
          CFI EndBlock cfiPicker58
        REQUIRE ??Subroutine31_0
        ; // Fall through to label ??Subroutine31_0

        RSEG BANKED_CODE:HUGECODE:NOROOT(0)
??Subroutine31_0:
          CFI Block cfiCond59 Using cfiCommon0
          CFI Function rxStartIsr
          CFI Conditional ??CrossCallReturnLabel_57
          CFI R6 load(1, XDATA, add(CFA_XSP16, literal(-16)))
          CFI VB load(1, XDATA, add(CFA_XSP16, literal(-15)))
          CFI V0 load(1, XDATA, add(CFA_XSP16, literal(-14)))
          CFI V1 load(1, XDATA, add(CFA_XSP16, literal(-13)))
          CFI V2 load(1, XDATA, add(CFA_XSP16, literal(-12)))
          CFI V3 load(1, XDATA, add(CFA_XSP16, literal(-11)))
          CFI V4 load(1, XDATA, add(CFA_XSP16, literal(-10)))
          CFI V5 load(1, XDATA, add(CFA_XSP16, literal(-9)))
          CFI V6 load(1, XDATA, add(CFA_XSP16, literal(-8)))
          CFI V7 load(1, XDATA, add(CFA_XSP16, literal(-7)))
          CFI R7 load(1, XDATA, add(CFA_XSP16, literal(-6)))
          CFI ?RET_LOW load(1, XDATA, add(CFA_XSP16, literal(-5)))
          CFI ?RET_HIGH load(1, XDATA, add(CFA_XSP16, literal(-4)))
          CFI ?BRET_EXT load(1, XDATA, add(CFA_XSP16, literal(-3)))
          CFI DPL0 load(1, XDATA, add(CFA_XSP16, literal(-2)))
          CFI DPH0 load(1, XDATA, add(CFA_XSP16, literal(-1)))
          CFI CFA_SP SP+-2
          CFI CFA_XSP16 add(XSP16, 18)
          CFI Block cfiCond60 Using cfiCommon0
          CFI (cfiCond60) Function macRxThresholdIsr
          CFI (cfiCond60) Conditional ??CrossCallReturnLabel_59, ??CrossCallReturnLabel_31
          CFI (cfiCond60) DPL0 Frame(CFA_SP, 4)
          CFI (cfiCond60) DPH0 Frame(CFA_SP, 5)
          CFI (cfiCond60) CFA_SP SP+-9
          CFI Block cfiCond61 Using cfiCommon0
          CFI (cfiCond61) Function rxStartIsr
          CFI (cfiCond61) Conditional ??CrossCallReturnLabel_59, ??CrossCallReturnLabel_32, ??CrossCallReturnLabel_21
          CFI (cfiCond61) R6 load(1, XDATA, add(CFA_XSP16, literal(-16)))
          CFI (cfiCond61) VB load(1, XDATA, add(CFA_XSP16, literal(-15)))
          CFI (cfiCond61) V0 load(1, XDATA, add(CFA_XSP16, literal(-14)))
          CFI (cfiCond61) V1 load(1, XDATA, add(CFA_XSP16, literal(-13)))
          CFI (cfiCond61) V2 load(1, XDATA, add(CFA_XSP16, literal(-12)))
          CFI (cfiCond61) V3 load(1, XDATA, add(CFA_XSP16, literal(-11)))
          CFI (cfiCond61) V4 load(1, XDATA, add(CFA_XSP16, literal(-10)))
          CFI (cfiCond61) V5 load(1, XDATA, add(CFA_XSP16, literal(-9)))
          CFI (cfiCond61) V6 load(1, XDATA, add(CFA_XSP16, literal(-8)))
          CFI (cfiCond61) V7 load(1, XDATA, add(CFA_XSP16, literal(-7)))
          CFI (cfiCond61) R7 load(1, XDATA, add(CFA_XSP16, literal(-6)))
          CFI (cfiCond61) ?RET_LOW load(1, XDATA, add(CFA_XSP16, literal(-5)))
          CFI (cfiCond61) ?RET_HIGH load(1, XDATA, add(CFA_XSP16, literal(-4)))
          CFI (cfiCond61) ?BRET_EXT load(1, XDATA, add(CFA_XSP16, literal(-3)))
          CFI (cfiCond61) DPL0 load(1, XDATA, add(CFA_XSP16, literal(-2)))
          CFI (cfiCond61) DPH0 load(1, XDATA, add(CFA_XSP16, literal(-1)))
          CFI (cfiCond61) CFA_SP SP+-7
          CFI (cfiCond61) CFA_XSP16 add(XSP16, 18)
          CFI Block cfiCond62 Using cfiCommon0
          CFI (cfiCond62) Function rxStartIsr
          CFI (cfiCond62) Conditional ??CrossCallReturnLabel_59, ??CrossCallReturnLabel_32, ??CrossCallReturnLabel_22
          CFI (cfiCond62) R6 load(1, XDATA, add(CFA_XSP16, literal(-16)))
          CFI (cfiCond62) VB load(1, XDATA, add(CFA_XSP16, literal(-15)))
          CFI (cfiCond62) V0 load(1, XDATA, add(CFA_XSP16, literal(-14)))
          CFI (cfiCond62) V1 load(1, XDATA, add(CFA_XSP16, literal(-13)))
          CFI (cfiCond62) V2 load(1, XDATA, add(CFA_XSP16, literal(-12)))
          CFI (cfiCond62) V3 load(1, XDATA, add(CFA_XSP16, literal(-11)))
          CFI (cfiCond62) V4 load(1, XDATA, add(CFA_XSP16, literal(-10)))
          CFI (cfiCond62) V5 load(1, XDATA, add(CFA_XSP16, literal(-9)))
          CFI (cfiCond62) V6 load(1, XDATA, add(CFA_XSP16, literal(-8)))
          CFI (cfiCond62) V7 load(1, XDATA, add(CFA_XSP16, literal(-7)))
          CFI (cfiCond62) R7 load(1, XDATA, add(CFA_XSP16, literal(-6)))
          CFI (cfiCond62) ?RET_LOW load(1, XDATA, add(CFA_XSP16, literal(-5)))
          CFI (cfiCond62) ?RET_HIGH load(1, XDATA, add(CFA_XSP16, literal(-4)))
          CFI (cfiCond62) ?BRET_EXT load(1, XDATA, add(CFA_XSP16, literal(-3)))
          CFI (cfiCond62) DPL0 load(1, XDATA, add(CFA_XSP16, literal(-2)))
          CFI (cfiCond62) DPH0 load(1, XDATA, add(CFA_XSP16, literal(-1)))
          CFI (cfiCond62) CFA_SP SP+-7
          CFI (cfiCond62) CFA_XSP16 add(XSP16, 18)
          CFI Block cfiCond63 Using cfiCommon0
          CFI (cfiCond63) Function rxAddrIsr
          CFI (cfiCond63) Conditional ??CrossCallReturnLabel_58
          CFI (cfiCond63) R6 load(1, XDATA, add(CFA_XSP16, literal(-10)))
          CFI (cfiCond63) VB load(1, XDATA, add(CFA_XSP16, literal(-9)))
          CFI (cfiCond63) V0 load(1, XDATA, add(CFA_XSP16, literal(-8)))
          CFI (cfiCond63) V1 load(1, XDATA, add(CFA_XSP16, literal(-7)))
          CFI (cfiCond63) R7 load(1, XDATA, add(CFA_XSP16, literal(-6)))
          CFI (cfiCond63) ?RET_LOW load(1, XDATA, add(CFA_XSP16, literal(-5)))
          CFI (cfiCond63) ?RET_HIGH load(1, XDATA, add(CFA_XSP16, literal(-4)))
          CFI (cfiCond63) ?BRET_EXT load(1, XDATA, add(CFA_XSP16, literal(-3)))
          CFI (cfiCond63) DPL0 load(1, XDATA, add(CFA_XSP16, literal(-2)))
          CFI (cfiCond63) DPH0 load(1, XDATA, add(CFA_XSP16, literal(-1)))
          CFI (cfiCond63) CFA_SP SP+-2
          CFI (cfiCond63) CFA_XSP16 add(XSP16, 30)
          CFI Block cfiCond64 Using cfiCommon0
          CFI (cfiCond64) Function rxStartIsr
          CFI (cfiCond64) Conditional ??CrossCallReturnLabel_62, ??CrossCallReturnLabel_55, ??CrossCallReturnLabel_19
          CFI (cfiCond64) R6 load(1, XDATA, add(CFA_XSP16, literal(-16)))
          CFI (cfiCond64) VB load(1, XDATA, add(CFA_XSP16, literal(-15)))
          CFI (cfiCond64) V0 load(1, XDATA, add(CFA_XSP16, literal(-14)))
          CFI (cfiCond64) V1 load(1, XDATA, add(CFA_XSP16, literal(-13)))
          CFI (cfiCond64) V2 load(1, XDATA, add(CFA_XSP16, literal(-12)))
          CFI (cfiCond64) V3 load(1, XDATA, add(CFA_XSP16, literal(-11)))
          CFI (cfiCond64) V4 load(1, XDATA, add(CFA_XSP16, literal(-10)))
          CFI (cfiCond64) V5 load(1, XDATA, add(CFA_XSP16, literal(-9)))
          CFI (cfiCond64) V6 load(1, XDATA, add(CFA_XSP16, literal(-8)))
          CFI (cfiCond64) V7 load(1, XDATA, add(CFA_XSP16, literal(-7)))
          CFI (cfiCond64) R7 load(1, XDATA, add(CFA_XSP16, literal(-6)))
          CFI (cfiCond64) ?RET_LOW load(1, XDATA, add(CFA_XSP16, literal(-5)))
          CFI (cfiCond64) ?RET_HIGH load(1, XDATA, add(CFA_XSP16, literal(-4)))
          CFI (cfiCond64) ?BRET_EXT load(1, XDATA, add(CFA_XSP16, literal(-3)))
          CFI (cfiCond64) DPL0 load(1, XDATA, add(CFA_XSP16, literal(-2)))
          CFI (cfiCond64) DPH0 load(1, XDATA, add(CFA_XSP16, literal(-1)))
          CFI (cfiCond64) CFA_SP SP+-7
          CFI (cfiCond64) CFA_XSP16 add(XSP16, 18)
          CFI Block cfiCond65 Using cfiCommon0
          CFI (cfiCond65) Function rxAddrIsr
          CFI (cfiCond65) Conditional ??CrossCallReturnLabel_62, ??CrossCallReturnLabel_55, ??CrossCallReturnLabel_20
          CFI (cfiCond65) R6 load(1, XDATA, add(CFA_XSP16, literal(-10)))
          CFI (cfiCond65) VB load(1, XDATA, add(CFA_XSP16, literal(-9)))
          CFI (cfiCond65) V0 load(1, XDATA, add(CFA_XSP16, literal(-8)))
          CFI (cfiCond65) V1 load(1, XDATA, add(CFA_XSP16, literal(-7)))
          CFI (cfiCond65) R7 load(1, XDATA, add(CFA_XSP16, literal(-6)))
          CFI (cfiCond65) ?RET_LOW load(1, XDATA, add(CFA_XSP16, literal(-5)))
          CFI (cfiCond65) ?RET_HIGH load(1, XDATA, add(CFA_XSP16, literal(-4)))
          CFI (cfiCond65) ?BRET_EXT load(1, XDATA, add(CFA_XSP16, literal(-3)))
          CFI (cfiCond65) DPL0 load(1, XDATA, add(CFA_XSP16, literal(-2)))
          CFI (cfiCond65) DPH0 load(1, XDATA, add(CFA_XSP16, literal(-1)))
          CFI (cfiCond65) CFA_SP SP+-6
          CFI (cfiCond65) CFA_XSP16 add(XSP16, 30)
          CFI Block cfiCond66 Using cfiCommon0
          CFI (cfiCond66) Function rxStartIsr
          CFI (cfiCond66) Conditional ??CrossCallReturnLabel_62, ??CrossCallReturnLabel_54, ??CrossCallReturnLabel_15
          CFI (cfiCond66) R6 load(1, XDATA, add(CFA_XSP16, literal(-16)))
          CFI (cfiCond66) VB load(1, XDATA, add(CFA_XSP16, literal(-15)))
          CFI (cfiCond66) V0 load(1, XDATA, add(CFA_XSP16, literal(-14)))
          CFI (cfiCond66) V1 load(1, XDATA, add(CFA_XSP16, literal(-13)))
          CFI (cfiCond66) V2 load(1, XDATA, add(CFA_XSP16, literal(-12)))
          CFI (cfiCond66) V3 load(1, XDATA, add(CFA_XSP16, literal(-11)))
          CFI (cfiCond66) V4 load(1, XDATA, add(CFA_XSP16, literal(-10)))
          CFI (cfiCond66) V5 load(1, XDATA, add(CFA_XSP16, literal(-9)))
          CFI (cfiCond66) V6 load(1, XDATA, add(CFA_XSP16, literal(-8)))
          CFI (cfiCond66) V7 load(1, XDATA, add(CFA_XSP16, literal(-7)))
          CFI (cfiCond66) R7 load(1, XDATA, add(CFA_XSP16, literal(-6)))
          CFI (cfiCond66) ?RET_LOW load(1, XDATA, add(CFA_XSP16, literal(-5)))
          CFI (cfiCond66) ?RET_HIGH load(1, XDATA, add(CFA_XSP16, literal(-4)))
          CFI (cfiCond66) ?BRET_EXT load(1, XDATA, add(CFA_XSP16, literal(-3)))
          CFI (cfiCond66) DPL0 load(1, XDATA, add(CFA_XSP16, literal(-2)))
          CFI (cfiCond66) DPH0 load(1, XDATA, add(CFA_XSP16, literal(-1)))
          CFI (cfiCond66) CFA_SP SP+-6
          CFI (cfiCond66) CFA_XSP16 add(XSP16, 21)
          CFI Block cfiCond67 Using cfiCommon0
          CFI (cfiCond67) Function rxPayloadIsr
          CFI (cfiCond67) Conditional ??CrossCallReturnLabel_62, ??CrossCallReturnLabel_54, ??CrossCallReturnLabel_16
          CFI (cfiCond67) DPL0 Frame(CFA_SP, 4)
          CFI (cfiCond67) DPH0 Frame(CFA_SP, 5)
          CFI (cfiCond67) CFA_SP SP+-11
          CFI Block cfiCond68 Using cfiCommon0
          CFI (cfiCond68) Function rxStartIsr
          CFI (cfiCond68) Conditional ??CrossCallReturnLabel_62, ??CrossCallReturnLabel_53, ??CrossCallReturnLabel_3
          CFI (cfiCond68) R6 load(1, XDATA, add(CFA_XSP16, literal(-16)))
          CFI (cfiCond68) VB load(1, XDATA, add(CFA_XSP16, literal(-15)))
          CFI (cfiCond68) V0 load(1, XDATA, add(CFA_XSP16, literal(-14)))
          CFI (cfiCond68) V1 load(1, XDATA, add(CFA_XSP16, literal(-13)))
          CFI (cfiCond68) V2 load(1, XDATA, add(CFA_XSP16, literal(-12)))
          CFI (cfiCond68) V3 load(1, XDATA, add(CFA_XSP16, literal(-11)))
          CFI (cfiCond68) V4 load(1, XDATA, add(CFA_XSP16, literal(-10)))
          CFI (cfiCond68) V5 load(1, XDATA, add(CFA_XSP16, literal(-9)))
          CFI (cfiCond68) V6 load(1, XDATA, add(CFA_XSP16, literal(-8)))
          CFI (cfiCond68) V7 load(1, XDATA, add(CFA_XSP16, literal(-7)))
          CFI (cfiCond68) R7 load(1, XDATA, add(CFA_XSP16, literal(-6)))
          CFI (cfiCond68) ?RET_LOW load(1, XDATA, add(CFA_XSP16, literal(-5)))
          CFI (cfiCond68) ?RET_HIGH load(1, XDATA, add(CFA_XSP16, literal(-4)))
          CFI (cfiCond68) ?BRET_EXT load(1, XDATA, add(CFA_XSP16, literal(-3)))
          CFI (cfiCond68) DPL0 load(1, XDATA, add(CFA_XSP16, literal(-2)))
          CFI (cfiCond68) DPH0 load(1, XDATA, add(CFA_XSP16, literal(-1)))
          CFI (cfiCond68) CFA_SP SP+-6
          CFI (cfiCond68) CFA_XSP16 add(XSP16, 18)
          CFI Block cfiCond69 Using cfiCommon0
          CFI (cfiCond69) Function rxStartIsr
          CFI (cfiCond69) Conditional ??CrossCallReturnLabel_62, ??CrossCallReturnLabel_53, ??CrossCallReturnLabel_4
          CFI (cfiCond69) R6 load(1, XDATA, add(CFA_XSP16, literal(-16)))
          CFI (cfiCond69) VB load(1, XDATA, add(CFA_XSP16, literal(-15)))
          CFI (cfiCond69) V0 load(1, XDATA, add(CFA_XSP16, literal(-14)))
          CFI (cfiCond69) V1 load(1, XDATA, add(CFA_XSP16, literal(-13)))
          CFI (cfiCond69) V2 load(1, XDATA, add(CFA_XSP16, literal(-12)))
          CFI (cfiCond69) V3 load(1, XDATA, add(CFA_XSP16, literal(-11)))
          CFI (cfiCond69) V4 load(1, XDATA, add(CFA_XSP16, literal(-10)))
          CFI (cfiCond69) V5 load(1, XDATA, add(CFA_XSP16, literal(-9)))
          CFI (cfiCond69) V6 load(1, XDATA, add(CFA_XSP16, literal(-8)))
          CFI (cfiCond69) V7 load(1, XDATA, add(CFA_XSP16, literal(-7)))
          CFI (cfiCond69) R7 load(1, XDATA, add(CFA_XSP16, literal(-6)))
          CFI (cfiCond69) ?RET_LOW load(1, XDATA, add(CFA_XSP16, literal(-5)))
          CFI (cfiCond69) ?RET_HIGH load(1, XDATA, add(CFA_XSP16, literal(-4)))
          CFI (cfiCond69) ?BRET_EXT load(1, XDATA, add(CFA_XSP16, literal(-3)))
          CFI (cfiCond69) DPL0 load(1, XDATA, add(CFA_XSP16, literal(-2)))
          CFI (cfiCond69) DPH0 load(1, XDATA, add(CFA_XSP16, literal(-1)))
          CFI (cfiCond69) CFA_SP SP+-6
          CFI (cfiCond69) CFA_XSP16 add(XSP16, 18)
          CFI Block cfiCond70 Using cfiCommon0
          CFI (cfiCond70) Function rxStartIsr
          CFI (cfiCond70) Conditional ??CrossCallReturnLabel_62, ??CrossCallReturnLabel_56, ??CrossCallReturnLabel_48
          CFI (cfiCond70) R6 load(1, XDATA, add(CFA_XSP16, literal(-16)))
          CFI (cfiCond70) VB load(1, XDATA, add(CFA_XSP16, literal(-15)))
          CFI (cfiCond70) V0 load(1, XDATA, add(CFA_XSP16, literal(-14)))
          CFI (cfiCond70) V1 load(1, XDATA, add(CFA_XSP16, literal(-13)))
          CFI (cfiCond70) V2 load(1, XDATA, add(CFA_XSP16, literal(-12)))
          CFI (cfiCond70) V3 load(1, XDATA, add(CFA_XSP16, literal(-11)))
          CFI (cfiCond70) V4 load(1, XDATA, add(CFA_XSP16, literal(-10)))
          CFI (cfiCond70) V5 load(1, XDATA, add(CFA_XSP16, literal(-9)))
          CFI (cfiCond70) V6 load(1, XDATA, add(CFA_XSP16, literal(-8)))
          CFI (cfiCond70) V7 load(1, XDATA, add(CFA_XSP16, literal(-7)))
          CFI (cfiCond70) R7 load(1, XDATA, add(CFA_XSP16, literal(-6)))
          CFI (cfiCond70) ?RET_LOW load(1, XDATA, add(CFA_XSP16, literal(-5)))
          CFI (cfiCond70) ?RET_HIGH load(1, XDATA, add(CFA_XSP16, literal(-4)))
          CFI (cfiCond70) ?BRET_EXT load(1, XDATA, add(CFA_XSP16, literal(-3)))
          CFI (cfiCond70) DPL0 load(1, XDATA, add(CFA_XSP16, literal(-2)))
          CFI (cfiCond70) DPH0 load(1, XDATA, add(CFA_XSP16, literal(-1)))
          CFI (cfiCond70) CFA_SP SP+-6
          CFI (cfiCond70) CFA_XSP16 add(XSP16, 18)
          CFI Block cfiCond71 Using cfiCommon0
          CFI (cfiCond71) Function rxStartIsr
          CFI (cfiCond71) Conditional ??CrossCallReturnLabel_62, ??CrossCallReturnLabel_56, ??CrossCallReturnLabel_49
          CFI (cfiCond71) R6 load(1, XDATA, add(CFA_XSP16, literal(-16)))
          CFI (cfiCond71) VB load(1, XDATA, add(CFA_XSP16, literal(-15)))
          CFI (cfiCond71) V0 load(1, XDATA, add(CFA_XSP16, literal(-14)))
          CFI (cfiCond71) V1 load(1, XDATA, add(CFA_XSP16, literal(-13)))
          CFI (cfiCond71) V2 load(1, XDATA, add(CFA_XSP16, literal(-12)))
          CFI (cfiCond71) V3 load(1, XDATA, add(CFA_XSP16, literal(-11)))
          CFI (cfiCond71) V4 load(1, XDATA, add(CFA_XSP16, literal(-10)))
          CFI (cfiCond71) V5 load(1, XDATA, add(CFA_XSP16, literal(-9)))
          CFI (cfiCond71) V6 load(1, XDATA, add(CFA_XSP16, literal(-8)))
          CFI (cfiCond71) V7 load(1, XDATA, add(CFA_XSP16, literal(-7)))
          CFI (cfiCond71) R7 load(1, XDATA, add(CFA_XSP16, literal(-6)))
          CFI (cfiCond71) ?RET_LOW load(1, XDATA, add(CFA_XSP16, literal(-5)))
          CFI (cfiCond71) ?RET_HIGH load(1, XDATA, add(CFA_XSP16, literal(-4)))
          CFI (cfiCond71) ?BRET_EXT load(1, XDATA, add(CFA_XSP16, literal(-3)))
          CFI (cfiCond71) DPL0 load(1, XDATA, add(CFA_XSP16, literal(-2)))
          CFI (cfiCond71) DPH0 load(1, XDATA, add(CFA_XSP16, literal(-1)))
          CFI (cfiCond71) CFA_SP SP+-6
          CFI (cfiCond71) CFA_XSP16 add(XSP16, 18)
          CFI Block cfiCond72 Using cfiCommon0
          CFI (cfiCond72) Function rxStartIsr
          CFI (cfiCond72) Conditional ??CrossCallReturnLabel_62, ??CrossCallReturnLabel_56, ??CrossCallReturnLabel_50
          CFI (cfiCond72) R6 load(1, XDATA, add(CFA_XSP16, literal(-16)))
          CFI (cfiCond72) VB load(1, XDATA, add(CFA_XSP16, literal(-15)))
          CFI (cfiCond72) V0 load(1, XDATA, add(CFA_XSP16, literal(-14)))
          CFI (cfiCond72) V1 load(1, XDATA, add(CFA_XSP16, literal(-13)))
          CFI (cfiCond72) V2 load(1, XDATA, add(CFA_XSP16, literal(-12)))
          CFI (cfiCond72) V3 load(1, XDATA, add(CFA_XSP16, literal(-11)))
          CFI (cfiCond72) V4 load(1, XDATA, add(CFA_XSP16, literal(-10)))
          CFI (cfiCond72) V5 load(1, XDATA, add(CFA_XSP16, literal(-9)))
          CFI (cfiCond72) V6 load(1, XDATA, add(CFA_XSP16, literal(-8)))
          CFI (cfiCond72) V7 load(1, XDATA, add(CFA_XSP16, literal(-7)))
          CFI (cfiCond72) R7 load(1, XDATA, add(CFA_XSP16, literal(-6)))
          CFI (cfiCond72) ?RET_LOW load(1, XDATA, add(CFA_XSP16, literal(-5)))
          CFI (cfiCond72) ?RET_HIGH load(1, XDATA, add(CFA_XSP16, literal(-4)))
          CFI (cfiCond72) ?BRET_EXT load(1, XDATA, add(CFA_XSP16, literal(-3)))
          CFI (cfiCond72) DPL0 load(1, XDATA, add(CFA_XSP16, literal(-2)))
          CFI (cfiCond72) DPH0 load(1, XDATA, add(CFA_XSP16, literal(-1)))
          CFI (cfiCond72) CFA_SP SP+-7
          CFI (cfiCond72) CFA_XSP16 add(XSP16, 18)
          CFI Block cfiCond73 Using cfiCommon0
          CFI (cfiCond73) Function rxAddrIsr
          CFI (cfiCond73) Conditional ??CrossCallReturnLabel_62, ??CrossCallReturnLabel_56, ??CrossCallReturnLabel_51
          CFI (cfiCond73) R6 load(1, XDATA, add(CFA_XSP16, literal(-10)))
          CFI (cfiCond73) VB load(1, XDATA, add(CFA_XSP16, literal(-9)))
          CFI (cfiCond73) V0 load(1, XDATA, add(CFA_XSP16, literal(-8)))
          CFI (cfiCond73) V1 load(1, XDATA, add(CFA_XSP16, literal(-7)))
          CFI (cfiCond73) R7 load(1, XDATA, add(CFA_XSP16, literal(-6)))
          CFI (cfiCond73) ?RET_LOW load(1, XDATA, add(CFA_XSP16, literal(-5)))
          CFI (cfiCond73) ?RET_HIGH load(1, XDATA, add(CFA_XSP16, literal(-4)))
          CFI (cfiCond73) ?BRET_EXT load(1, XDATA, add(CFA_XSP16, literal(-3)))
          CFI (cfiCond73) DPL0 load(1, XDATA, add(CFA_XSP16, literal(-2)))
          CFI (cfiCond73) DPH0 load(1, XDATA, add(CFA_XSP16, literal(-1)))
          CFI (cfiCond73) CFA_SP SP+-6
          CFI (cfiCond73) CFA_XSP16 add(XSP16, 30)
          CFI Block cfiCond74 Using cfiCommon0
          CFI (cfiCond74) Function rxFcsIsr
          CFI (cfiCond74) Conditional ??CrossCallReturnLabel_62, ??CrossCallReturnLabel_56, ??CrossCallReturnLabel_52
          CFI (cfiCond74) R6 load(1, XDATA, add(CFA_XSP16, literal(-10)))
          CFI (cfiCond74) VB load(1, XDATA, add(CFA_XSP16, literal(-9)))
          CFI (cfiCond74) V0 load(1, XDATA, add(CFA_XSP16, literal(-8)))
          CFI (cfiCond74) V1 load(1, XDATA, add(CFA_XSP16, literal(-7)))
          CFI (cfiCond74) R7 load(1, XDATA, add(CFA_XSP16, literal(-6)))
          CFI (cfiCond74) ?RET_LOW load(1, XDATA, add(CFA_XSP16, literal(-5)))
          CFI (cfiCond74) ?RET_HIGH load(1, XDATA, add(CFA_XSP16, literal(-4)))
          CFI (cfiCond74) ?BRET_EXT load(1, XDATA, add(CFA_XSP16, literal(-3)))
          CFI (cfiCond74) DPL0 load(1, XDATA, add(CFA_XSP16, literal(-2)))
          CFI (cfiCond74) DPH0 load(1, XDATA, add(CFA_XSP16, literal(-1)))
          CFI (cfiCond74) CFA_SP SP+-6
          CFI (cfiCond74) CFA_XSP16 add(XSP16, 10)
          CFI Block cfiCond75 Using cfiCommon0
          CFI (cfiCond75) Function rxStartIsr
          CFI (cfiCond75) Conditional ??CrossCallReturnLabel_62, ??CrossCallReturnLabel_56, ??CrossCallReturnLabel_47
          CFI (cfiCond75) R6 load(1, XDATA, add(CFA_XSP16, literal(-16)))
          CFI (cfiCond75) VB load(1, XDATA, add(CFA_XSP16, literal(-15)))
          CFI (cfiCond75) V0 load(1, XDATA, add(CFA_XSP16, literal(-14)))
          CFI (cfiCond75) V1 load(1, XDATA, add(CFA_XSP16, literal(-13)))
          CFI (cfiCond75) V2 load(1, XDATA, add(CFA_XSP16, literal(-12)))
          CFI (cfiCond75) V3 load(1, XDATA, add(CFA_XSP16, literal(-11)))
          CFI (cfiCond75) V4 load(1, XDATA, add(CFA_XSP16, literal(-10)))
          CFI (cfiCond75) V5 load(1, XDATA, add(CFA_XSP16, literal(-9)))
          CFI (cfiCond75) V6 load(1, XDATA, add(CFA_XSP16, literal(-8)))
          CFI (cfiCond75) V7 load(1, XDATA, add(CFA_XSP16, literal(-7)))
          CFI (cfiCond75) R7 load(1, XDATA, add(CFA_XSP16, literal(-6)))
          CFI (cfiCond75) ?RET_LOW load(1, XDATA, add(CFA_XSP16, literal(-5)))
          CFI (cfiCond75) ?RET_HIGH load(1, XDATA, add(CFA_XSP16, literal(-4)))
          CFI (cfiCond75) ?BRET_EXT load(1, XDATA, add(CFA_XSP16, literal(-3)))
          CFI (cfiCond75) DPL0 load(1, XDATA, add(CFA_XSP16, literal(-2)))
          CFI (cfiCond75) DPH0 load(1, XDATA, add(CFA_XSP16, literal(-1)))
          CFI (cfiCond75) CFA_SP SP+-6
          CFI (cfiCond75) CFA_XSP16 add(XSP16, 18)
          CFI Block cfiCond76 Using cfiCommon0
          CFI (cfiCond76) Function rxHaltCleanupFinalStep
          CFI (cfiCond76) Conditional ??CrossCallReturnLabel_60
          CFI (cfiCond76) DPL0 Frame(CFA_SP, 4)
          CFI (cfiCond76) DPH0 Frame(CFA_SP, 5)
          CFI (cfiCond76) CFA_SP SP+-7
          CFI Block cfiCond77 Using cfiCommon0
          CFI (cfiCond77) Function rxStartIsr
          CFI (cfiCond77) Conditional ??CrossCallReturnLabel_61, ??CrossCallReturnLabel_45, ??CrossCallReturnLabel_5
          CFI (cfiCond77) R6 load(1, XDATA, add(CFA_XSP16, literal(-16)))
          CFI (cfiCond77) VB load(1, XDATA, add(CFA_XSP16, literal(-15)))
          CFI (cfiCond77) V0 load(1, XDATA, add(CFA_XSP16, literal(-14)))
          CFI (cfiCond77) V1 load(1, XDATA, add(CFA_XSP16, literal(-13)))
          CFI (cfiCond77) V2 load(1, XDATA, add(CFA_XSP16, literal(-12)))
          CFI (cfiCond77) V3 load(1, XDATA, add(CFA_XSP16, literal(-11)))
          CFI (cfiCond77) V4 load(1, XDATA, add(CFA_XSP16, literal(-10)))
          CFI (cfiCond77) V5 load(1, XDATA, add(CFA_XSP16, literal(-9)))
          CFI (cfiCond77) V6 load(1, XDATA, add(CFA_XSP16, literal(-8)))
          CFI (cfiCond77) V7 load(1, XDATA, add(CFA_XSP16, literal(-7)))
          CFI (cfiCond77) R7 load(1, XDATA, add(CFA_XSP16, literal(-6)))
          CFI (cfiCond77) ?RET_LOW load(1, XDATA, add(CFA_XSP16, literal(-5)))
          CFI (cfiCond77) ?RET_HIGH load(1, XDATA, add(CFA_XSP16, literal(-4)))
          CFI (cfiCond77) ?BRET_EXT load(1, XDATA, add(CFA_XSP16, literal(-3)))
          CFI (cfiCond77) DPL0 load(1, XDATA, add(CFA_XSP16, literal(-2)))
          CFI (cfiCond77) DPH0 load(1, XDATA, add(CFA_XSP16, literal(-1)))
          CFI (cfiCond77) CFA_SP SP+-6
          CFI (cfiCond77) CFA_XSP16 add(XSP16, 18)
          CFI Block cfiCond78 Using cfiCommon0
          CFI (cfiCond78) Function rxStartIsr
          CFI (cfiCond78) Conditional ??CrossCallReturnLabel_61, ??CrossCallReturnLabel_45, ??CrossCallReturnLabel_6
          CFI (cfiCond78) R6 load(1, XDATA, add(CFA_XSP16, literal(-16)))
          CFI (cfiCond78) VB load(1, XDATA, add(CFA_XSP16, literal(-15)))
          CFI (cfiCond78) V0 load(1, XDATA, add(CFA_XSP16, literal(-14)))
          CFI (cfiCond78) V1 load(1, XDATA, add(CFA_XSP16, literal(-13)))
          CFI (cfiCond78) V2 load(1, XDATA, add(CFA_XSP16, literal(-12)))
          CFI (cfiCond78) V3 load(1, XDATA, add(CFA_XSP16, literal(-11)))
          CFI (cfiCond78) V4 load(1, XDATA, add(CFA_XSP16, literal(-10)))
          CFI (cfiCond78) V5 load(1, XDATA, add(CFA_XSP16, literal(-9)))
          CFI (cfiCond78) V6 load(1, XDATA, add(CFA_XSP16, literal(-8)))
          CFI (cfiCond78) V7 load(1, XDATA, add(CFA_XSP16, literal(-7)))
          CFI (cfiCond78) R7 load(1, XDATA, add(CFA_XSP16, literal(-6)))
          CFI (cfiCond78) ?RET_LOW load(1, XDATA, add(CFA_XSP16, literal(-5)))
          CFI (cfiCond78) ?RET_HIGH load(1, XDATA, add(CFA_XSP16, literal(-4)))
          CFI (cfiCond78) ?BRET_EXT load(1, XDATA, add(CFA_XSP16, literal(-3)))
          CFI (cfiCond78) DPL0 load(1, XDATA, add(CFA_XSP16, literal(-2)))
          CFI (cfiCond78) DPH0 load(1, XDATA, add(CFA_XSP16, literal(-1)))
          CFI (cfiCond78) CFA_SP SP+-6
          CFI (cfiCond78) CFA_XSP16 add(XSP16, 18)
          CFI Block cfiCond79 Using cfiCommon0
          CFI (cfiCond79) Function rxStartIsr
          CFI (cfiCond79) Conditional ??CrossCallReturnLabel_61, ??CrossCallReturnLabel_46, ??CrossCallReturnLabel_42
          CFI (cfiCond79) R6 load(1, XDATA, add(CFA_XSP16, literal(-16)))
          CFI (cfiCond79) VB load(1, XDATA, add(CFA_XSP16, literal(-15)))
          CFI (cfiCond79) V0 load(1, XDATA, add(CFA_XSP16, literal(-14)))
          CFI (cfiCond79) V1 load(1, XDATA, add(CFA_XSP16, literal(-13)))
          CFI (cfiCond79) V2 load(1, XDATA, add(CFA_XSP16, literal(-12)))
          CFI (cfiCond79) V3 load(1, XDATA, add(CFA_XSP16, literal(-11)))
          CFI (cfiCond79) V4 load(1, XDATA, add(CFA_XSP16, literal(-10)))
          CFI (cfiCond79) V5 load(1, XDATA, add(CFA_XSP16, literal(-9)))
          CFI (cfiCond79) V6 load(1, XDATA, add(CFA_XSP16, literal(-8)))
          CFI (cfiCond79) V7 load(1, XDATA, add(CFA_XSP16, literal(-7)))
          CFI (cfiCond79) R7 load(1, XDATA, add(CFA_XSP16, literal(-6)))
          CFI (cfiCond79) ?RET_LOW load(1, XDATA, add(CFA_XSP16, literal(-5)))
          CFI (cfiCond79) ?RET_HIGH load(1, XDATA, add(CFA_XSP16, literal(-4)))
          CFI (cfiCond79) ?BRET_EXT load(1, XDATA, add(CFA_XSP16, literal(-3)))
          CFI (cfiCond79) DPL0 load(1, XDATA, add(CFA_XSP16, literal(-2)))
          CFI (cfiCond79) DPH0 load(1, XDATA, add(CFA_XSP16, literal(-1)))
          CFI (cfiCond79) CFA_SP SP+-6
          CFI (cfiCond79) CFA_XSP16 add(XSP16, 18)
          CFI Block cfiCond80 Using cfiCommon0
          CFI (cfiCond80) Function rxFcsIsr
          CFI (cfiCond80) Conditional ??CrossCallReturnLabel_61, ??CrossCallReturnLabel_46, ??CrossCallReturnLabel_43
          CFI (cfiCond80) R6 load(1, XDATA, add(CFA_XSP16, literal(-10)))
          CFI (cfiCond80) VB load(1, XDATA, add(CFA_XSP16, literal(-9)))
          CFI (cfiCond80) V0 load(1, XDATA, add(CFA_XSP16, literal(-8)))
          CFI (cfiCond80) V1 load(1, XDATA, add(CFA_XSP16, literal(-7)))
          CFI (cfiCond80) R7 load(1, XDATA, add(CFA_XSP16, literal(-6)))
          CFI (cfiCond80) ?RET_LOW load(1, XDATA, add(CFA_XSP16, literal(-5)))
          CFI (cfiCond80) ?RET_HIGH load(1, XDATA, add(CFA_XSP16, literal(-4)))
          CFI (cfiCond80) ?BRET_EXT load(1, XDATA, add(CFA_XSP16, literal(-3)))
          CFI (cfiCond80) DPL0 load(1, XDATA, add(CFA_XSP16, literal(-2)))
          CFI (cfiCond80) DPH0 load(1, XDATA, add(CFA_XSP16, literal(-1)))
          CFI (cfiCond80) CFA_SP SP+-6
          CFI (cfiCond80) CFA_XSP16 add(XSP16, 10)
          CFI Block cfiCond81 Using cfiCommon0
          CFI (cfiCond81) Function rxFcsIsr
          CFI (cfiCond81) Conditional ??CrossCallReturnLabel_61, ??CrossCallReturnLabel_46, ??CrossCallReturnLabel_44
          CFI (cfiCond81) R6 load(1, XDATA, add(CFA_XSP16, literal(-10)))
          CFI (cfiCond81) VB load(1, XDATA, add(CFA_XSP16, literal(-9)))
          CFI (cfiCond81) V0 load(1, XDATA, add(CFA_XSP16, literal(-8)))
          CFI (cfiCond81) V1 load(1, XDATA, add(CFA_XSP16, literal(-7)))
          CFI (cfiCond81) R7 load(1, XDATA, add(CFA_XSP16, literal(-6)))
          CFI (cfiCond81) ?RET_LOW load(1, XDATA, add(CFA_XSP16, literal(-5)))
          CFI (cfiCond81) ?RET_HIGH load(1, XDATA, add(CFA_XSP16, literal(-4)))
          CFI (cfiCond81) ?BRET_EXT load(1, XDATA, add(CFA_XSP16, literal(-3)))
          CFI (cfiCond81) DPL0 load(1, XDATA, add(CFA_XSP16, literal(-2)))
          CFI (cfiCond81) DPH0 load(1, XDATA, add(CFA_XSP16, literal(-1)))
          CFI (cfiCond81) CFA_SP SP+-6
          CFI (cfiCond81) CFA_XSP16 add(XSP16, 10)
          CFI Block cfiPicker82 Using cfiCommon1
          CFI (cfiPicker82) NoFunction
          CFI (cfiPicker82) Picker
        MOVX      A,@DPTR
        MOV       R0,A
        INC       DPTR
        MOVX      A,@DPTR
        RET
          CFI EndBlock cfiCond59
          CFI EndBlock cfiCond60
          CFI EndBlock cfiCond61
          CFI EndBlock cfiCond62
          CFI EndBlock cfiCond63
          CFI EndBlock cfiCond64
          CFI EndBlock cfiCond65
          CFI EndBlock cfiCond66
          CFI EndBlock cfiCond67
          CFI EndBlock cfiCond68
          CFI EndBlock cfiCond69
          CFI EndBlock cfiCond70
          CFI EndBlock cfiCond71
          CFI EndBlock cfiCond72
          CFI EndBlock cfiCond73
          CFI EndBlock cfiCond74
          CFI EndBlock cfiCond75
          CFI EndBlock cfiCond76
          CFI EndBlock cfiCond77
          CFI EndBlock cfiCond78
          CFI EndBlock cfiCond79
          CFI EndBlock cfiCond80
          CFI EndBlock cfiCond81
          CFI EndBlock cfiPicker82

        RSEG BANKED_CODE:HUGECODE:NOROOT(0)
?Subroutine5:
          CFI Block cfiCond83 Using cfiCommon0
          CFI Function rxStartIsr
          CFI Conditional ??CrossCallReturnLabel_3
          CFI R6 load(1, XDATA, add(CFA_XSP16, literal(-16)))
          CFI VB load(1, XDATA, add(CFA_XSP16, literal(-15)))
          CFI V0 load(1, XDATA, add(CFA_XSP16, literal(-14)))
          CFI V1 load(1, XDATA, add(CFA_XSP16, literal(-13)))
          CFI V2 load(1, XDATA, add(CFA_XSP16, literal(-12)))
          CFI V3 load(1, XDATA, add(CFA_XSP16, literal(-11)))
          CFI V4 load(1, XDATA, add(CFA_XSP16, literal(-10)))
          CFI V5 load(1, XDATA, add(CFA_XSP16, literal(-9)))
          CFI V6 load(1, XDATA, add(CFA_XSP16, literal(-8)))
          CFI V7 load(1, XDATA, add(CFA_XSP16, literal(-7)))
          CFI R7 load(1, XDATA, add(CFA_XSP16, literal(-6)))
          CFI ?RET_LOW load(1, XDATA, add(CFA_XSP16, literal(-5)))
          CFI ?RET_HIGH load(1, XDATA, add(CFA_XSP16, literal(-4)))
          CFI ?BRET_EXT load(1, XDATA, add(CFA_XSP16, literal(-3)))
          CFI DPL0 load(1, XDATA, add(CFA_XSP16, literal(-2)))
          CFI DPH0 load(1, XDATA, add(CFA_XSP16, literal(-1)))
          CFI CFA_SP SP+-2
          CFI CFA_XSP16 add(XSP16, 18)
          CFI Block cfiCond84 Using cfiCommon0
          CFI (cfiCond84) Function rxStartIsr
          CFI (cfiCond84) Conditional ??CrossCallReturnLabel_4
          CFI (cfiCond84) R6 load(1, XDATA, add(CFA_XSP16, literal(-16)))
          CFI (cfiCond84) VB load(1, XDATA, add(CFA_XSP16, literal(-15)))
          CFI (cfiCond84) V0 load(1, XDATA, add(CFA_XSP16, literal(-14)))
          CFI (cfiCond84) V1 load(1, XDATA, add(CFA_XSP16, literal(-13)))
          CFI (cfiCond84) V2 load(1, XDATA, add(CFA_XSP16, literal(-12)))
          CFI (cfiCond84) V3 load(1, XDATA, add(CFA_XSP16, literal(-11)))
          CFI (cfiCond84) V4 load(1, XDATA, add(CFA_XSP16, literal(-10)))
          CFI (cfiCond84) V5 load(1, XDATA, add(CFA_XSP16, literal(-9)))
          CFI (cfiCond84) V6 load(1, XDATA, add(CFA_XSP16, literal(-8)))
          CFI (cfiCond84) V7 load(1, XDATA, add(CFA_XSP16, literal(-7)))
          CFI (cfiCond84) R7 load(1, XDATA, add(CFA_XSP16, literal(-6)))
          CFI (cfiCond84) ?RET_LOW load(1, XDATA, add(CFA_XSP16, literal(-5)))
          CFI (cfiCond84) ?RET_HIGH load(1, XDATA, add(CFA_XSP16, literal(-4)))
          CFI (cfiCond84) ?BRET_EXT load(1, XDATA, add(CFA_XSP16, literal(-3)))
          CFI (cfiCond84) DPL0 load(1, XDATA, add(CFA_XSP16, literal(-2)))
          CFI (cfiCond84) DPH0 load(1, XDATA, add(CFA_XSP16, literal(-1)))
          CFI (cfiCond84) CFA_SP SP+-2
          CFI (cfiCond84) CFA_XSP16 add(XSP16, 18)
          CFI Block cfiPicker85 Using cfiCommon1
          CFI (cfiPicker85) NoFunction
          CFI (cfiPicker85) Picker
        MOVX      @DPTR,A
        MOV       DPTR,#pMacDataTx
        LCALL     ??Subroutine34_0 & 0xFFFF
??CrossCallReturnLabel_53:
        RET
          CFI EndBlock cfiCond83
          CFI EndBlock cfiCond84
          CFI EndBlock cfiPicker85

        RSEG BANKED_CODE:HUGECODE:NOROOT(0)
?Subroutine4:
          CFI Block cfiCond86 Using cfiCommon0
          CFI Function rxStartIsr
          CFI Conditional ??CrossCallReturnLabel_0
          CFI R6 load(1, XDATA, add(CFA_XSP16, literal(-16)))
          CFI VB load(1, XDATA, add(CFA_XSP16, literal(-15)))
          CFI V0 load(1, XDATA, add(CFA_XSP16, literal(-14)))
          CFI V1 load(1, XDATA, add(CFA_XSP16, literal(-13)))
          CFI V2 load(1, XDATA, add(CFA_XSP16, literal(-12)))
          CFI V3 load(1, XDATA, add(CFA_XSP16, literal(-11)))
          CFI V4 load(1, XDATA, add(CFA_XSP16, literal(-10)))
          CFI V5 load(1, XDATA, add(CFA_XSP16, literal(-9)))
          CFI V6 load(1, XDATA, add(CFA_XSP16, literal(-8)))
          CFI V7 load(1, XDATA, add(CFA_XSP16, literal(-7)))
          CFI R7 load(1, XDATA, add(CFA_XSP16, literal(-6)))
          CFI ?RET_LOW load(1, XDATA, add(CFA_XSP16, literal(-5)))
          CFI ?RET_HIGH load(1, XDATA, add(CFA_XSP16, literal(-4)))
          CFI ?BRET_EXT load(1, XDATA, add(CFA_XSP16, literal(-3)))
          CFI DPL0 load(1, XDATA, add(CFA_XSP16, literal(-2)))
          CFI DPH0 load(1, XDATA, add(CFA_XSP16, literal(-1)))
          CFI CFA_SP SP+-2
          CFI CFA_XSP16 add(XSP16, 18)
          CFI Block cfiCond87 Using cfiCommon0
          CFI (cfiCond87) Function rxStartIsr
          CFI (cfiCond87) Conditional ??CrossCallReturnLabel_1
          CFI (cfiCond87) R6 load(1, XDATA, add(CFA_XSP16, literal(-16)))
          CFI (cfiCond87) VB load(1, XDATA, add(CFA_XSP16, literal(-15)))
          CFI (cfiCond87) V0 load(1, XDATA, add(CFA_XSP16, literal(-14)))
          CFI (cfiCond87) V1 load(1, XDATA, add(CFA_XSP16, literal(-13)))
          CFI (cfiCond87) V2 load(1, XDATA, add(CFA_XSP16, literal(-12)))
          CFI (cfiCond87) V3 load(1, XDATA, add(CFA_XSP16, literal(-11)))
          CFI (cfiCond87) V4 load(1, XDATA, add(CFA_XSP16, literal(-10)))
          CFI (cfiCond87) V5 load(1, XDATA, add(CFA_XSP16, literal(-9)))
          CFI (cfiCond87) V6 load(1, XDATA, add(CFA_XSP16, literal(-8)))
          CFI (cfiCond87) V7 load(1, XDATA, add(CFA_XSP16, literal(-7)))
          CFI (cfiCond87) R7 load(1, XDATA, add(CFA_XSP16, literal(-6)))
          CFI (cfiCond87) ?RET_LOW load(1, XDATA, add(CFA_XSP16, literal(-5)))
          CFI (cfiCond87) ?RET_HIGH load(1, XDATA, add(CFA_XSP16, literal(-4)))
          CFI (cfiCond87) ?BRET_EXT load(1, XDATA, add(CFA_XSP16, literal(-3)))
          CFI (cfiCond87) DPL0 load(1, XDATA, add(CFA_XSP16, literal(-2)))
          CFI (cfiCond87) DPH0 load(1, XDATA, add(CFA_XSP16, literal(-1)))
          CFI (cfiCond87) CFA_SP SP+-2
          CFI (cfiCond87) CFA_XSP16 add(XSP16, 18)
          CFI Block cfiCond88 Using cfiCommon0
          CFI (cfiCond88) Function rxStartIsr
          CFI (cfiCond88) Conditional ??CrossCallReturnLabel_2
          CFI (cfiCond88) R6 load(1, XDATA, add(CFA_XSP16, literal(-16)))
          CFI (cfiCond88) VB load(1, XDATA, add(CFA_XSP16, literal(-15)))
          CFI (cfiCond88) V0 load(1, XDATA, add(CFA_XSP16, literal(-14)))
          CFI (cfiCond88) V1 load(1, XDATA, add(CFA_XSP16, literal(-13)))
          CFI (cfiCond88) V2 load(1, XDATA, add(CFA_XSP16, literal(-12)))
          CFI (cfiCond88) V3 load(1, XDATA, add(CFA_XSP16, literal(-11)))
          CFI (cfiCond88) V4 load(1, XDATA, add(CFA_XSP16, literal(-10)))
          CFI (cfiCond88) V5 load(1, XDATA, add(CFA_XSP16, literal(-9)))
          CFI (cfiCond88) V6 load(1, XDATA, add(CFA_XSP16, literal(-8)))
          CFI (cfiCond88) V7 load(1, XDATA, add(CFA_XSP16, literal(-7)))
          CFI (cfiCond88) R7 load(1, XDATA, add(CFA_XSP16, literal(-6)))
          CFI (cfiCond88) ?RET_LOW load(1, XDATA, add(CFA_XSP16, literal(-5)))
          CFI (cfiCond88) ?RET_HIGH load(1, XDATA, add(CFA_XSP16, literal(-4)))
          CFI (cfiCond88) ?BRET_EXT load(1, XDATA, add(CFA_XSP16, literal(-3)))
          CFI (cfiCond88) DPL0 load(1, XDATA, add(CFA_XSP16, literal(-2)))
          CFI (cfiCond88) DPH0 load(1, XDATA, add(CFA_XSP16, literal(-1)))
          CFI (cfiCond88) CFA_SP SP+-2
          CFI (cfiCond88) CFA_XSP16 add(XSP16, 18)
          CFI Block cfiPicker89 Using cfiCommon1
          CFI (cfiPicker89) NoFunction
          CFI (cfiPicker89) Picker
        MOVX      @DPTR,A
        MOV       DPTR,#rxBuf + 1
        MOVX      A,@DPTR
        MOV       C,0xE0 /* A   */.3
        RET
          CFI EndBlock cfiCond86
          CFI EndBlock cfiCond87
          CFI EndBlock cfiCond88
          CFI EndBlock cfiPicker89

        RSEG BANKED_CODE:HUGECODE:NOROOT(0)
?Subroutine3:
          CFI Block cfiCond90 Using cfiCommon0
          CFI Function rxStartIsr
          CFI Conditional ??CrossCallReturnLabel_42
          CFI R6 load(1, XDATA, add(CFA_XSP16, literal(-16)))
          CFI VB load(1, XDATA, add(CFA_XSP16, literal(-15)))
          CFI V0 load(1, XDATA, add(CFA_XSP16, literal(-14)))
          CFI V1 load(1, XDATA, add(CFA_XSP16, literal(-13)))
          CFI V2 load(1, XDATA, add(CFA_XSP16, literal(-12)))
          CFI V3 load(1, XDATA, add(CFA_XSP16, literal(-11)))
          CFI V4 load(1, XDATA, add(CFA_XSP16, literal(-10)))
          CFI V5 load(1, XDATA, add(CFA_XSP16, literal(-9)))
          CFI V6 load(1, XDATA, add(CFA_XSP16, literal(-8)))
          CFI V7 load(1, XDATA, add(CFA_XSP16, literal(-7)))
          CFI R7 load(1, XDATA, add(CFA_XSP16, literal(-6)))
          CFI ?RET_LOW load(1, XDATA, add(CFA_XSP16, literal(-5)))
          CFI ?RET_HIGH load(1, XDATA, add(CFA_XSP16, literal(-4)))
          CFI ?BRET_EXT load(1, XDATA, add(CFA_XSP16, literal(-3)))
          CFI DPL0 load(1, XDATA, add(CFA_XSP16, literal(-2)))
          CFI DPH0 load(1, XDATA, add(CFA_XSP16, literal(-1)))
          CFI CFA_SP SP+-2
          CFI CFA_XSP16 add(XSP16, 18)
          CFI Block cfiCond91 Using cfiCommon0
          CFI (cfiCond91) Function rxFcsIsr
          CFI (cfiCond91) Conditional ??CrossCallReturnLabel_43
          CFI (cfiCond91) R6 load(1, XDATA, add(CFA_XSP16, literal(-10)))
          CFI (cfiCond91) VB load(1, XDATA, add(CFA_XSP16, literal(-9)))
          CFI (cfiCond91) V0 load(1, XDATA, add(CFA_XSP16, literal(-8)))
          CFI (cfiCond91) V1 load(1, XDATA, add(CFA_XSP16, literal(-7)))
          CFI (cfiCond91) R7 load(1, XDATA, add(CFA_XSP16, literal(-6)))
          CFI (cfiCond91) ?RET_LOW load(1, XDATA, add(CFA_XSP16, literal(-5)))
          CFI (cfiCond91) ?RET_HIGH load(1, XDATA, add(CFA_XSP16, literal(-4)))
          CFI (cfiCond91) ?BRET_EXT load(1, XDATA, add(CFA_XSP16, literal(-3)))
          CFI (cfiCond91) DPL0 load(1, XDATA, add(CFA_XSP16, literal(-2)))
          CFI (cfiCond91) DPH0 load(1, XDATA, add(CFA_XSP16, literal(-1)))
          CFI (cfiCond91) CFA_SP SP+-2
          CFI (cfiCond91) CFA_XSP16 add(XSP16, 10)
          CFI Block cfiPicker92 Using cfiCommon1
          CFI (cfiPicker92) NoFunction
          CFI (cfiPicker92) Picker
        MOV       DPL,A
        CLR       A
        ADDC      A,R0
        MOV       DPH,A
        MOV       A,?V0
          CFI EndBlock cfiCond90
          CFI EndBlock cfiCond91
          CFI EndBlock cfiPicker92
        REQUIRE ??Subroutine32_0
        ; // Fall through to label ??Subroutine32_0

        RSEG BANKED_CODE:HUGECODE:NOROOT(0)
??Subroutine32_0:
          CFI Block cfiCond93 Using cfiCommon0
          CFI Function rxFcsIsr
          CFI Conditional ??CrossCallReturnLabel_44
          CFI R6 load(1, XDATA, add(CFA_XSP16, literal(-10)))
          CFI VB load(1, XDATA, add(CFA_XSP16, literal(-9)))
          CFI V0 load(1, XDATA, add(CFA_XSP16, literal(-8)))
          CFI V1 load(1, XDATA, add(CFA_XSP16, literal(-7)))
          CFI R7 load(1, XDATA, add(CFA_XSP16, literal(-6)))
          CFI ?RET_LOW load(1, XDATA, add(CFA_XSP16, literal(-5)))
          CFI ?RET_HIGH load(1, XDATA, add(CFA_XSP16, literal(-4)))
          CFI ?BRET_EXT load(1, XDATA, add(CFA_XSP16, literal(-3)))
          CFI DPL0 load(1, XDATA, add(CFA_XSP16, literal(-2)))
          CFI DPH0 load(1, XDATA, add(CFA_XSP16, literal(-1)))
          CFI CFA_SP SP+-2
          CFI CFA_XSP16 add(XSP16, 10)
          CFI Block cfiCond94 Using cfiCommon0
          CFI (cfiCond94) Function rxStartIsr
          CFI (cfiCond94) Conditional ??CrossCallReturnLabel_42
          CFI (cfiCond94) R6 load(1, XDATA, add(CFA_XSP16, literal(-16)))
          CFI (cfiCond94) VB load(1, XDATA, add(CFA_XSP16, literal(-15)))
          CFI (cfiCond94) V0 load(1, XDATA, add(CFA_XSP16, literal(-14)))
          CFI (cfiCond94) V1 load(1, XDATA, add(CFA_XSP16, literal(-13)))
          CFI (cfiCond94) V2 load(1, XDATA, add(CFA_XSP16, literal(-12)))
          CFI (cfiCond94) V3 load(1, XDATA, add(CFA_XSP16, literal(-11)))
          CFI (cfiCond94) V4 load(1, XDATA, add(CFA_XSP16, literal(-10)))
          CFI (cfiCond94) V5 load(1, XDATA, add(CFA_XSP16, literal(-9)))
          CFI (cfiCond94) V6 load(1, XDATA, add(CFA_XSP16, literal(-8)))
          CFI (cfiCond94) V7 load(1, XDATA, add(CFA_XSP16, literal(-7)))
          CFI (cfiCond94) R7 load(1, XDATA, add(CFA_XSP16, literal(-6)))
          CFI (cfiCond94) ?RET_LOW load(1, XDATA, add(CFA_XSP16, literal(-5)))
          CFI (cfiCond94) ?RET_HIGH load(1, XDATA, add(CFA_XSP16, literal(-4)))
          CFI (cfiCond94) ?BRET_EXT load(1, XDATA, add(CFA_XSP16, literal(-3)))
          CFI (cfiCond94) DPL0 load(1, XDATA, add(CFA_XSP16, literal(-2)))
          CFI (cfiCond94) DPH0 load(1, XDATA, add(CFA_XSP16, literal(-1)))
          CFI (cfiCond94) CFA_SP SP+-2
          CFI (cfiCond94) CFA_XSP16 add(XSP16, 18)
          CFI Block cfiCond95 Using cfiCommon0
          CFI (cfiCond95) Function rxFcsIsr
          CFI (cfiCond95) Conditional ??CrossCallReturnLabel_43
          CFI (cfiCond95) R6 load(1, XDATA, add(CFA_XSP16, literal(-10)))
          CFI (cfiCond95) VB load(1, XDATA, add(CFA_XSP16, literal(-9)))
          CFI (cfiCond95) V0 load(1, XDATA, add(CFA_XSP16, literal(-8)))
          CFI (cfiCond95) V1 load(1, XDATA, add(CFA_XSP16, literal(-7)))
          CFI (cfiCond95) R7 load(1, XDATA, add(CFA_XSP16, literal(-6)))
          CFI (cfiCond95) ?RET_LOW load(1, XDATA, add(CFA_XSP16, literal(-5)))
          CFI (cfiCond95) ?RET_HIGH load(1, XDATA, add(CFA_XSP16, literal(-4)))
          CFI (cfiCond95) ?BRET_EXT load(1, XDATA, add(CFA_XSP16, literal(-3)))
          CFI (cfiCond95) DPL0 load(1, XDATA, add(CFA_XSP16, literal(-2)))
          CFI (cfiCond95) DPH0 load(1, XDATA, add(CFA_XSP16, literal(-1)))
          CFI (cfiCond95) CFA_SP SP+-2
          CFI (cfiCond95) CFA_XSP16 add(XSP16, 10)
          CFI Block cfiPicker96 Using cfiCommon1
          CFI (cfiPicker96) NoFunction
          CFI (cfiPicker96) Picker
        LCALL     ?Subroutine21 & 0xFFFF
??CrossCallReturnLabel_46:
        XCH       A,R0
        RET
          CFI EndBlock cfiCond93
          CFI EndBlock cfiCond94
          CFI EndBlock cfiCond95
          CFI EndBlock cfiPicker96
//  821 
//  822 
//  823 /*=================================================================================================
//  824  * @fn          rxAddrIsr
//  825  *
//  826  * @brief       Receive ISR state for decoding address.  Reads and stores the address information
//  827  *              from the incoming packet.
//  828  *
//  829  * @param       none
//  830  *
//  831  * @return      none
//  832  *=================================================================================================
//  833  */

        RSEG BANKED_CODE:HUGECODE:NOROOT(0)
//  834 static void rxAddrIsr(void)
rxAddrIsr:
          CFI Block cfiBlock97 Using cfiCommon0
          CFI Function rxAddrIsr
        CODE
//  835 {
        FUNCALL rxAddrIsr, halAssertHandler
        LOCFRAME ISTACK, 0, STACK
        LOCFRAME PSTACK, 0, STACK
        LOCFRAME XSTACK, 30, STACK
        LOCFRAME IOVERLAY, 0, STATIC
        LOCFRAME DOVERLAY, 0, STATIC
        ARGFRAME ISTACK, 0, STACK
        ARGFRAME PSTACK, 0, STACK
        ARGFRAME XSTACK, 30, STACK
        ARGFRAME IOVERLAY, 0, STATIC
        ARGFRAME DOVERLAY, 0, STATIC
        FUNCALL rxAddrIsr, macMemReadRxFifo
        LOCFRAME ISTACK, 0, STACK
        LOCFRAME PSTACK, 0, STACK
        LOCFRAME XSTACK, 30, STACK
        LOCFRAME IOVERLAY, 0, STATIC
        LOCFRAME DOVERLAY, 0, STATIC
        ARGFRAME ISTACK, 0, STACK
        ARGFRAME PSTACK, 0, STACK
        ARGFRAME XSTACK, 30, STACK
        ARGFRAME IOVERLAY, 0, STATIC
        ARGFRAME DOVERLAY, 0, STATIC
        FUNCALL rxAddrIsr, sAddrExtCpy
        LOCFRAME ISTACK, 0, STACK
        LOCFRAME PSTACK, 0, STACK
        LOCFRAME XSTACK, 30, STACK
        LOCFRAME IOVERLAY, 0, STATIC
        LOCFRAME DOVERLAY, 0, STATIC
        ARGFRAME ISTACK, 0, STACK
        ARGFRAME PSTACK, 0, STACK
        ARGFRAME XSTACK, 30, STACK
        ARGFRAME IOVERLAY, 0, STATIC
        ARGFRAME DOVERLAY, 0, STATIC
        FUNCALL rxAddrIsr, sAddrExtCpy
        LOCFRAME ISTACK, 0, STACK
        LOCFRAME PSTACK, 0, STACK
        LOCFRAME XSTACK, 30, STACK
        LOCFRAME IOVERLAY, 0, STATIC
        LOCFRAME DOVERLAY, 0, STATIC
        ARGFRAME ISTACK, 0, STACK
        ARGFRAME PSTACK, 0, STACK
        ARGFRAME XSTACK, 30, STACK
        ARGFRAME IOVERLAY, 0, STATIC
        ARGFRAME DOVERLAY, 0, STATIC
        FUNCALL rxAddrIsr, rxPrepPayload
        LOCFRAME ISTACK, 0, STACK
        LOCFRAME PSTACK, 0, STACK
        LOCFRAME XSTACK, 30, STACK
        LOCFRAME IOVERLAY, 0, STATIC
        LOCFRAME DOVERLAY, 0, STATIC
        ARGFRAME ISTACK, 0, STACK
        ARGFRAME PSTACK, 0, STACK
        ARGFRAME XSTACK, 30, STACK
        ARGFRAME IOVERLAY, 0, STATIC
        ARGFRAME DOVERLAY, 0, STATIC
        REQUIRE ?V0
        REQUIRE ?V1
        MOV       A,#-0xa
        LCALL     ?BANKED_ENTER_XDATA
          CFI DPH0 load(1, XDATA, add(CFA_XSP16, literal(-1)))
          CFI DPL0 load(1, XDATA, add(CFA_XSP16, literal(-2)))
          CFI ?BRET_EXT load(1, XDATA, add(CFA_XSP16, literal(-3)))
          CFI ?RET_HIGH load(1, XDATA, add(CFA_XSP16, literal(-4)))
          CFI ?RET_LOW load(1, XDATA, add(CFA_XSP16, literal(-5)))
          CFI R7 load(1, XDATA, add(CFA_XSP16, literal(-6)))
          CFI V1 load(1, XDATA, add(CFA_XSP16, literal(-7)))
          CFI V0 load(1, XDATA, add(CFA_XSP16, literal(-8)))
          CFI VB load(1, XDATA, add(CFA_XSP16, literal(-9)))
          CFI R6 load(1, XDATA, add(CFA_XSP16, literal(-10)))
          CFI CFA_SP SP+0
          CFI CFA_XSP16 add(XSP16, 10)
        ; Saved register size: 10
        ; Auto size: 20
        MOV       A,#-0x14
        LCALL     ?ALLOC_XSTACK8
          CFI CFA_XSP16 add(XSP16, 30)
//  836   uint8 buf[MAX_ADDR_FIELDS_LEN];
//  837   uint8 dstAddrMode;
//  838   uint8 srcAddrMode;
//  839 #ifdef MAC_SECURITY  
//  840   uint8 securityControl;
//  841 #endif /* MAC_SECURITY */  
//  842   uint8  * p;
//  843 
//  844   MAC_ASSERT(rxNextLen != 0); /* logic assumes at least one address byte in buffer */
        MOV       DPTR,#rxNextLen
        MOVX      A,@DPTR
        JNZ       ??rxAddrIsr_0
        ; Setup parameters for call to function halAssertHandler
        LCALL     `??halAssertHandler::?relay`; Banked call to: halAssertHandler
//  845 
//  846   /*  read out address fields into local buffer in one shot */
//  847   MAC_RADIO_READ_RX_FIFO(buf, rxNextLen);
??rxAddrIsr_0:
        ; Setup parameters for call to function macMemReadRxFifo
        MOV       DPTR,#rxNextLen
        MOVX      A,@DPTR
        MOV       R1,A
        MOV       R2,?XSP + 0
        MOV       R3,?XSP + 1
        LCALL     `??macMemReadRxFifo::?relay`; Banked call to: macMemReadRxFifo
//  848 
//  849   /* set pointer to buffer with addressing fields */
//  850   p = buf;
        MOV       R0,?XSP + 0
        MOV       R1,?XSP + 1
        MOV       ?V0,R0
        MOV       ?V1,R1
        MOV       R4,?V0
        MOV       R5,?V1
//  851 
//  852   /* destination address */
//  853   dstAddrMode = MAC_DEST_ADDR_MODE(&rxBuf[1]);
        MOV       DPTR,#rxBuf + 2
        MOVX      A,@DPTR
        RRC       A
        RRC       A
        ANL       A,#0x3f
        ANL       A,#0x3
        MOV       R6,A
//  854   if (dstAddrMode != SADDR_MODE_NONE)
        JZ        ??rxAddrIsr_1
//  855   {
//  856     pRxBuf->mac.srcPanId = pRxBuf->mac.dstPanId = BUILD_UINT16(p[0], p[1]);
        MOV       DPTR,#pRxBuf
        MOVX      A,@DPTR
        ADD       A,#0x2c
        MOV       R0,A
        INC       DPTR
        MOVX      A,@DPTR
        ADDC      A,#0x0
        MOV       R1,A
        MOV       DPL,?XSP + 0
        MOV       DPH,?XSP + 1
        MOVX      A,@DPTR
        MOV       R4,A
        MOV       A,#0x1
        LCALL     ?XSTACK_DISP0_8
        MOVX      A,@DPTR
        MOV       R3,A
        MOV       A,R4
        MOV       DPL,R0
        MOV       DPH,R1
        MOVX      @DPTR,A
        INC       DPTR
        MOV       A,R3
        MOVX      @DPTR,A
        MOV       DPL,R0
        MOV       DPH,R1
        LCALL     ??Subroutine31_0 & 0xFFFF
??CrossCallReturnLabel_58:
        LCALL     ?Subroutine27 & 0xFFFF
??CrossCallReturnLabel_67:
        XCH       A,R2
        ADD       A,#0x2a
        LCALL     ??Subroutine29_0 & 0xFFFF
//  857     p += MAC_PAN_ID_FIELD_LEN;
//  858     if (dstAddrMode == SADDR_MODE_EXT)
??CrossCallReturnLabel_37:
        MOV       A,#0x3
        XRL       A,R6
        JNZ       ??rxAddrIsr_2
//  859     {
//  860       sAddrExtCpy(pRxBuf->mac.dstAddr.addr.extAddr, p);
        ; Setup parameters for call to function sAddrExtCpy
        MOV       A,#0x2
        LCALL     ?XSTACK_DISP0_8
        MOV       R4,DPL
        MOV       R5,DPH
        MOV       DPTR,#pRxBuf
        MOVX      A,@DPTR
        ADD       A,#0x1b
        MOV       R2,A
        INC       DPTR
        MOVX      A,@DPTR
        ADDC      A,#0x0
        MOV       R3,A
        LCALL     `??sAddrExtCpy::?relay`; Banked call to: sAddrExtCpy
//  861       p += MAC_EXT_ADDR_FIELD_LEN;
        MOV       A,#0xa
        SJMP      ??rxAddrIsr_3
//  862     }
//  863     else
//  864     {
//  865       pRxBuf->mac.dstAddr.addr.shortAddr = BUILD_UINT16(p[0], p[1]);
??rxAddrIsr_2:
        MOV       A,#0x2
        LCALL     ?XSTACK_DISP0_8
        MOVX      A,@DPTR
        MOV       R2,A
        MOV       A,#0x3
        LCALL     ?XSTACK_DISP0_8
        LCALL     ?Subroutine18 & 0xFFFF
??CrossCallReturnLabel_23:
        ADD       A,#0x1b
        LCALL     ??Subroutine29_0 & 0xFFFF
//  866       p += MAC_SHORT_ADDR_FIELD_LEN;
??CrossCallReturnLabel_38:
        MOV       A,#0x4
??rxAddrIsr_3:
        LCALL     ?XSTACK_DISP0_8
        MOV       R4,DPL
        MOV       R5,DPH
//  867     }
//  868   }
//  869 
//  870   /* sources address */
//  871   srcAddrMode = MAC_SRC_ADDR_MODE(&rxBuf[1]);
??rxAddrIsr_1:
        MOV       DPTR,#rxBuf + 2
        MOVX      A,@DPTR
        SWAP      A
        RRC       A
        RRC       A
        ANL       A,#0x3
        MOV       R2,A
//  872   if (srcAddrMode != SADDR_MODE_NONE)
        JZ        ??CrossCallReturnLabel_39
//  873   {
//  874     if (!(pRxBuf->internal.flags & MAC_RX_FLAG_INTRA_PAN))
        LCALL     ?Subroutine15 & 0xFFFF
??CrossCallReturnLabel_20:
        MOVX      A,@DPTR
        MOV       C,0xE0 /* A   */.6
        JC        ??rxAddrIsr_4
//  875     {
//  876       pRxBuf->mac.srcPanId = BUILD_UINT16(p[0], p[1]);
        MOV       DPL,R4
        MOV       DPH,R5
        MOVX      A,@DPTR
        MOV       R6,A
        INC       DPTR
        MOVX      A,@DPTR
        MOV       R1,A
        MOV       A,R6
        MOV       R0,A
        MOV       DPTR,#pRxBuf
        MOVX      A,@DPTR
        MOV       R3,A
        INC       DPTR
        MOVX      A,@DPTR
        XCH       A,R3
        ADD       A,#0x2a
        MOV       DPL,A
        CLR       A
        ADDC      A,R3
        LCALL     ??Subroutine30_0 & 0xFFFF
//  877       p += MAC_PAN_ID_FIELD_LEN;
??CrossCallReturnLabel_36:
        MOV       A,R4
        ADD       A,#0x2
        MOV       R4,A
        JNC       ??rxAddrIsr_4
        INC       R5
//  878     }
//  879     if (srcAddrMode == SADDR_MODE_EXT)
??rxAddrIsr_4:
        MOV       A,#0x3
        XRL       A,R2
        JNZ       ??rxAddrIsr_5
//  880     {
//  881       sAddrExtCpy(pRxBuf->mac.srcAddr.addr.extAddr, p);
        ; Setup parameters for call to function sAddrExtCpy
        MOV       DPTR,#pRxBuf
        MOVX      A,@DPTR
        ADD       A,#0x12
        MOV       R2,A
        INC       DPTR
        MOVX      A,@DPTR
        ADDC      A,#0x0
        MOV       R3,A
        LCALL     `??sAddrExtCpy::?relay`; Banked call to: sAddrExtCpy
        SJMP      ??CrossCallReturnLabel_39
//  882     }
//  883     else
//  884     {
//  885       pRxBuf->mac.srcAddr.addr.shortAddr = BUILD_UINT16(p[0], p[1]);
??rxAddrIsr_5:
        MOV       DPL,R4
        MOV       DPH,R5
        MOVX      A,@DPTR
        MOV       R2,A
        INC       DPTR
        LCALL     ?Subroutine18 & 0xFFFF
//  886     }
//  887   }
??CrossCallReturnLabel_24:
        ADD       A,#0x12
        LCALL     ??Subroutine29_0 & 0xFFFF
//  888 
//  889 #ifdef MAC_SECURITY
//  890   if (MAC_SEC_ENABLED(&rxBuf[1]))
//  891   {
//  892     uint8 keyIdMode;
//  893 
//  894     if (MAC_FRAME_VERSION(&rxBuf[1]) == 0)
//  895     {
//  896       /* MAC_UNSUPPORTED_LEGACY - Cancel the outgoing TX ACK.
//  897        * It may be too late but we have to try.
//  898        */
//  899       MAC_RADIO_CANCEL_TX_ACK();
//  900 
//  901       /* clean up after unsupported security legacy */
//  902       macRxHaltCleanup();
//  903       return;
//  904     }
//  905 
//  906     /* Copy addressing fields to RX buffer */
//  907     osal_memcpy(pRxBuf->mhr.p, buf, rxNextLen);
//  908     pRxBuf->mhr.p   += rxNextLen;
//  909     pRxBuf->mhr.len += rxNextLen;
//  910 
//  911     /*-------------------------------------------------------------------------------
//  912      *  Prepare for auxiliary security header interrupts.
//  913      */
//  914 
//  915     /* read out security control field from FIFO (threshold set so bytes are guaranteed to be there) */
//  916     MAC_RADIO_READ_RX_FIFO(&securityControl, MAC_SEC_CONTROL_FIELD_LEN);
//  917 
//  918     /* Copy security fields to MHR buffer */
//  919     *pRxBuf->mhr.p   = securityControl;
//  920     pRxBuf->mhr.p   += MAC_SEC_CONTROL_FIELD_LEN;
//  921     pRxBuf->mhr.len += MAC_SEC_CONTROL_FIELD_LEN;
//  922 
//  923     /* store security level and key ID mode */
//  924     pRxBuf->sec.securityLevel = SECURITY_LEVEL(securityControl);
//  925     pRxBuf->sec.keyIdMode = keyIdMode = KEY_IDENTIFIER_MODE(securityControl);
//  926 
//  927     /* Corrupted RX frame, should never occur. */
//  928     if ((keyIdMode > MAC_KEY_ID_MODE_8)
//  929     /* Get the next RX length according to AuxLen table minus security control field.
//  930      * The security control length is counted already.
//  931      */
//  932     || ((macKeySourceLen[keyIdMode] + MAC_FRAME_COUNTER_LEN) >= rxPayloadLen)
//  933     /* Security Enabled subfield is one, but the Security Level in the header is zero:
//  934      * MAC_UNSUPPORTED_SECURITY - Cancel the outgoing TX ACK.
//  935      */
//  936     || (pRxBuf->sec.securityLevel == MAC_SEC_LEVEL_NONE))
//  937     {
//  938       /* It may be too late but we have to try. */
//  939       MAC_RADIO_CANCEL_TX_ACK();
//  940 
//  941       /* clean up after unsupported security or corrupted RX frame. */
//  942       macRxHaltCleanup();
//  943       return;
//  944     }
//  945 
//  946     /* get the next RX length according to AuxLen table minus security control field.
//  947      * The sceurity control length is counted already.
//  948      */
//  949     rxNextLen = macKeySourceLen[keyIdMode] + MAC_FRAME_COUNTER_LEN;
//  950     MAC_RADIO_SET_RX_THRESHOLD(rxNextLen);
//  951     pFuncRxState = &rxSecurityHdrIsr;
//  952   }
//  953   else
//  954 #endif /* MAC_SECURITY */
//  955   {
//  956     /* clear security level */
//  957     pRxBuf->sec.securityLevel = MAC_SEC_LEVEL_NONE;
??CrossCallReturnLabel_39:
        LCALL     ?Subroutine16 & 0xFFFF
??CrossCallReturnLabel_51:
        ADD       A,#0xf
        MOV       DPL,A
        CLR       A
        ADDC      A,R0
        MOV       DPH,A
        CLR       A
        LCALL     ??Subroutine39_0 & 0xFFFF
//  958 
//  959     /*-------------------------------------------------------------------------------
//  960      *  Prepare for payload interrupts.
//  961      */
//  962     pFuncRxState = &rxPayloadIsr;
??CrossCallReturnLabel_75:
        MOV       A,#`??rxPayloadIsr::?relay` & 0xff
        MOVX      @DPTR,A
        INC       DPTR
        MOV       A,#(`??rxPayloadIsr::?relay` >> 8) & 0xff
        MOVX      @DPTR,A
//  963     rxPrepPayload();
        ; Setup parameters for call to function rxPrepPayload
        LCALL     `??rxPrepPayload::?relay`; Banked call to: rxPrepPayload
//  964   }
//  965 }
        MOV       A,#0x14
        LCALL     ?DEALLOC_XSTACK8
          CFI EndBlock cfiBlock97
        REQUIRE ?Subroutine1
        ; // Fall through to label ?Subroutine1

        RSEG BANKED_CODE:HUGECODE:NOROOT(0)
?Subroutine1:
          CFI Block cfiBlock98 Using cfiCommon0
          CFI NoFunction
          CFI CFA_SP SP+0
          CFI CFA_XSP16 add(XSP16, 10)
          CFI VB load(1, XDATA, add(CFA_XSP16, literal(-9)))
          CFI DPL0 load(1, XDATA, add(CFA_XSP16, literal(-2)))
          CFI DPH0 load(1, XDATA, add(CFA_XSP16, literal(-1)))
          CFI R6 load(1, XDATA, add(CFA_XSP16, literal(-10)))
          CFI R7 load(1, XDATA, add(CFA_XSP16, literal(-6)))
          CFI V0 load(1, XDATA, add(CFA_XSP16, literal(-8)))
          CFI V1 load(1, XDATA, add(CFA_XSP16, literal(-7)))
          CFI ?BRET_EXT load(1, XDATA, add(CFA_XSP16, literal(-3)))
          CFI ?RET_HIGH load(1, XDATA, add(CFA_XSP16, literal(-4)))
          CFI ?RET_LOW load(1, XDATA, add(CFA_XSP16, literal(-5)))
        MOV       R7,#0x2
        LJMP      ?BANKED_LEAVE_XDATA
          CFI EndBlock cfiBlock98

        RSEG BANKED_CODE:HUGECODE:NOROOT(0)
?Subroutine18:
          CFI Block cfiCond99 Using cfiCommon0
          CFI Function rxAddrIsr
          CFI Conditional ??CrossCallReturnLabel_23
          CFI R6 load(1, XDATA, add(CFA_XSP16, literal(-10)))
          CFI VB load(1, XDATA, add(CFA_XSP16, literal(-9)))
          CFI V0 load(1, XDATA, add(CFA_XSP16, literal(-8)))
          CFI V1 load(1, XDATA, add(CFA_XSP16, literal(-7)))
          CFI R7 load(1, XDATA, add(CFA_XSP16, literal(-6)))
          CFI ?RET_LOW load(1, XDATA, add(CFA_XSP16, literal(-5)))
          CFI ?RET_HIGH load(1, XDATA, add(CFA_XSP16, literal(-4)))
          CFI ?BRET_EXT load(1, XDATA, add(CFA_XSP16, literal(-3)))
          CFI DPL0 load(1, XDATA, add(CFA_XSP16, literal(-2)))
          CFI DPH0 load(1, XDATA, add(CFA_XSP16, literal(-1)))
          CFI CFA_SP SP+-2
          CFI CFA_XSP16 add(XSP16, 30)
          CFI Block cfiCond100 Using cfiCommon0
          CFI (cfiCond100) Function rxAddrIsr
          CFI (cfiCond100) Conditional ??CrossCallReturnLabel_24
          CFI (cfiCond100) R6 load(1, XDATA, add(CFA_XSP16, literal(-10)))
          CFI (cfiCond100) VB load(1, XDATA, add(CFA_XSP16, literal(-9)))
          CFI (cfiCond100) V0 load(1, XDATA, add(CFA_XSP16, literal(-8)))
          CFI (cfiCond100) V1 load(1, XDATA, add(CFA_XSP16, literal(-7)))
          CFI (cfiCond100) R7 load(1, XDATA, add(CFA_XSP16, literal(-6)))
          CFI (cfiCond100) ?RET_LOW load(1, XDATA, add(CFA_XSP16, literal(-5)))
          CFI (cfiCond100) ?RET_HIGH load(1, XDATA, add(CFA_XSP16, literal(-4)))
          CFI (cfiCond100) ?BRET_EXT load(1, XDATA, add(CFA_XSP16, literal(-3)))
          CFI (cfiCond100) DPL0 load(1, XDATA, add(CFA_XSP16, literal(-2)))
          CFI (cfiCond100) DPH0 load(1, XDATA, add(CFA_XSP16, literal(-1)))
          CFI (cfiCond100) CFA_SP SP+-2
          CFI (cfiCond100) CFA_XSP16 add(XSP16, 30)
          CFI Block cfiPicker101 Using cfiCommon1
          CFI (cfiPicker101) NoFunction
          CFI (cfiPicker101) Picker
        MOVX      A,@DPTR
        MOV       R1,A
        MOV       A,R2
        MOV       R0,A
        LCALL     ??Subroutine36_0 & 0xFFFF
??CrossCallReturnLabel_66:
        XCH       A,R2
        RET
          CFI EndBlock cfiCond99
          CFI EndBlock cfiCond100
          CFI EndBlock cfiPicker101

        RSEG BANKED_CODE:HUGECODE:NOROOT(0)
?Subroutine16:
          CFI Block cfiCond102 Using cfiCommon0
          CFI Function rxStartIsr
          CFI Conditional ??CrossCallReturnLabel_48
          CFI R6 load(1, XDATA, add(CFA_XSP16, literal(-16)))
          CFI VB load(1, XDATA, add(CFA_XSP16, literal(-15)))
          CFI V0 load(1, XDATA, add(CFA_XSP16, literal(-14)))
          CFI V1 load(1, XDATA, add(CFA_XSP16, literal(-13)))
          CFI V2 load(1, XDATA, add(CFA_XSP16, literal(-12)))
          CFI V3 load(1, XDATA, add(CFA_XSP16, literal(-11)))
          CFI V4 load(1, XDATA, add(CFA_XSP16, literal(-10)))
          CFI V5 load(1, XDATA, add(CFA_XSP16, literal(-9)))
          CFI V6 load(1, XDATA, add(CFA_XSP16, literal(-8)))
          CFI V7 load(1, XDATA, add(CFA_XSP16, literal(-7)))
          CFI R7 load(1, XDATA, add(CFA_XSP16, literal(-6)))
          CFI ?RET_LOW load(1, XDATA, add(CFA_XSP16, literal(-5)))
          CFI ?RET_HIGH load(1, XDATA, add(CFA_XSP16, literal(-4)))
          CFI ?BRET_EXT load(1, XDATA, add(CFA_XSP16, literal(-3)))
          CFI DPL0 load(1, XDATA, add(CFA_XSP16, literal(-2)))
          CFI DPH0 load(1, XDATA, add(CFA_XSP16, literal(-1)))
          CFI CFA_SP SP+-2
          CFI CFA_XSP16 add(XSP16, 18)
          CFI Block cfiCond103 Using cfiCommon0
          CFI (cfiCond103) Function rxStartIsr
          CFI (cfiCond103) Conditional ??CrossCallReturnLabel_49
          CFI (cfiCond103) R6 load(1, XDATA, add(CFA_XSP16, literal(-16)))
          CFI (cfiCond103) VB load(1, XDATA, add(CFA_XSP16, literal(-15)))
          CFI (cfiCond103) V0 load(1, XDATA, add(CFA_XSP16, literal(-14)))
          CFI (cfiCond103) V1 load(1, XDATA, add(CFA_XSP16, literal(-13)))
          CFI (cfiCond103) V2 load(1, XDATA, add(CFA_XSP16, literal(-12)))
          CFI (cfiCond103) V3 load(1, XDATA, add(CFA_XSP16, literal(-11)))
          CFI (cfiCond103) V4 load(1, XDATA, add(CFA_XSP16, literal(-10)))
          CFI (cfiCond103) V5 load(1, XDATA, add(CFA_XSP16, literal(-9)))
          CFI (cfiCond103) V6 load(1, XDATA, add(CFA_XSP16, literal(-8)))
          CFI (cfiCond103) V7 load(1, XDATA, add(CFA_XSP16, literal(-7)))
          CFI (cfiCond103) R7 load(1, XDATA, add(CFA_XSP16, literal(-6)))
          CFI (cfiCond103) ?RET_LOW load(1, XDATA, add(CFA_XSP16, literal(-5)))
          CFI (cfiCond103) ?RET_HIGH load(1, XDATA, add(CFA_XSP16, literal(-4)))
          CFI (cfiCond103) ?BRET_EXT load(1, XDATA, add(CFA_XSP16, literal(-3)))
          CFI (cfiCond103) DPL0 load(1, XDATA, add(CFA_XSP16, literal(-2)))
          CFI (cfiCond103) DPH0 load(1, XDATA, add(CFA_XSP16, literal(-1)))
          CFI (cfiCond103) CFA_SP SP+-2
          CFI (cfiCond103) CFA_XSP16 add(XSP16, 18)
          CFI Block cfiCond104 Using cfiCommon0
          CFI (cfiCond104) Function rxStartIsr
          CFI (cfiCond104) Conditional ??CrossCallReturnLabel_50
          CFI (cfiCond104) R6 load(1, XDATA, add(CFA_XSP16, literal(-16)))
          CFI (cfiCond104) VB load(1, XDATA, add(CFA_XSP16, literal(-15)))
          CFI (cfiCond104) V0 load(1, XDATA, add(CFA_XSP16, literal(-14)))
          CFI (cfiCond104) V1 load(1, XDATA, add(CFA_XSP16, literal(-13)))
          CFI (cfiCond104) V2 load(1, XDATA, add(CFA_XSP16, literal(-12)))
          CFI (cfiCond104) V3 load(1, XDATA, add(CFA_XSP16, literal(-11)))
          CFI (cfiCond104) V4 load(1, XDATA, add(CFA_XSP16, literal(-10)))
          CFI (cfiCond104) V5 load(1, XDATA, add(CFA_XSP16, literal(-9)))
          CFI (cfiCond104) V6 load(1, XDATA, add(CFA_XSP16, literal(-8)))
          CFI (cfiCond104) V7 load(1, XDATA, add(CFA_XSP16, literal(-7)))
          CFI (cfiCond104) R7 load(1, XDATA, add(CFA_XSP16, literal(-6)))
          CFI (cfiCond104) ?RET_LOW load(1, XDATA, add(CFA_XSP16, literal(-5)))
          CFI (cfiCond104) ?RET_HIGH load(1, XDATA, add(CFA_XSP16, literal(-4)))
          CFI (cfiCond104) ?BRET_EXT load(1, XDATA, add(CFA_XSP16, literal(-3)))
          CFI (cfiCond104) DPL0 load(1, XDATA, add(CFA_XSP16, literal(-2)))
          CFI (cfiCond104) DPH0 load(1, XDATA, add(CFA_XSP16, literal(-1)))
          CFI (cfiCond104) CFA_XSP16 add(XSP16, 18)
          CFI Block cfiCond105 Using cfiCommon0
          CFI (cfiCond105) Function rxAddrIsr
          CFI (cfiCond105) Conditional ??CrossCallReturnLabel_51
          CFI (cfiCond105) R6 load(1, XDATA, add(CFA_XSP16, literal(-10)))
          CFI (cfiCond105) VB load(1, XDATA, add(CFA_XSP16, literal(-9)))
          CFI (cfiCond105) V0 load(1, XDATA, add(CFA_XSP16, literal(-8)))
          CFI (cfiCond105) V1 load(1, XDATA, add(CFA_XSP16, literal(-7)))
          CFI (cfiCond105) R7 load(1, XDATA, add(CFA_XSP16, literal(-6)))
          CFI (cfiCond105) ?RET_LOW load(1, XDATA, add(CFA_XSP16, literal(-5)))
          CFI (cfiCond105) ?RET_HIGH load(1, XDATA, add(CFA_XSP16, literal(-4)))
          CFI (cfiCond105) ?BRET_EXT load(1, XDATA, add(CFA_XSP16, literal(-3)))
          CFI (cfiCond105) DPL0 load(1, XDATA, add(CFA_XSP16, literal(-2)))
          CFI (cfiCond105) DPH0 load(1, XDATA, add(CFA_XSP16, literal(-1)))
          CFI (cfiCond105) CFA_SP SP+-2
          CFI (cfiCond105) CFA_XSP16 add(XSP16, 30)
          CFI Block cfiCond106 Using cfiCommon0
          CFI (cfiCond106) Function rxFcsIsr
          CFI (cfiCond106) Conditional ??CrossCallReturnLabel_52
          CFI (cfiCond106) R6 load(1, XDATA, add(CFA_XSP16, literal(-10)))
          CFI (cfiCond106) VB load(1, XDATA, add(CFA_XSP16, literal(-9)))
          CFI (cfiCond106) V0 load(1, XDATA, add(CFA_XSP16, literal(-8)))
          CFI (cfiCond106) V1 load(1, XDATA, add(CFA_XSP16, literal(-7)))
          CFI (cfiCond106) R7 load(1, XDATA, add(CFA_XSP16, literal(-6)))
          CFI (cfiCond106) ?RET_LOW load(1, XDATA, add(CFA_XSP16, literal(-5)))
          CFI (cfiCond106) ?RET_HIGH load(1, XDATA, add(CFA_XSP16, literal(-4)))
          CFI (cfiCond106) ?BRET_EXT load(1, XDATA, add(CFA_XSP16, literal(-3)))
          CFI (cfiCond106) DPL0 load(1, XDATA, add(CFA_XSP16, literal(-2)))
          CFI (cfiCond106) DPH0 load(1, XDATA, add(CFA_XSP16, literal(-1)))
          CFI (cfiCond106) CFA_SP SP+-2
          CFI (cfiCond106) CFA_XSP16 add(XSP16, 10)
          CFI Block cfiPicker107 Using cfiCommon1
          CFI (cfiPicker107) NoFunction
          CFI (cfiPicker107) Picker
        MOV       DPTR,#pRxBuf
          CFI EndBlock cfiCond102
          CFI EndBlock cfiCond103
          CFI EndBlock cfiCond104
          CFI EndBlock cfiCond105
          CFI EndBlock cfiCond106
          CFI EndBlock cfiPicker107
        REQUIRE ??Subroutine33_0
        ; // Fall through to label ??Subroutine33_0

        RSEG BANKED_CODE:HUGECODE:NOROOT(0)
??Subroutine33_0:
          CFI Block cfiCond108 Using cfiCommon0
          CFI Function rxStartIsr
          CFI Conditional ??CrossCallReturnLabel_47
          CFI R6 load(1, XDATA, add(CFA_XSP16, literal(-16)))
          CFI VB load(1, XDATA, add(CFA_XSP16, literal(-15)))
          CFI V0 load(1, XDATA, add(CFA_XSP16, literal(-14)))
          CFI V1 load(1, XDATA, add(CFA_XSP16, literal(-13)))
          CFI V2 load(1, XDATA, add(CFA_XSP16, literal(-12)))
          CFI V3 load(1, XDATA, add(CFA_XSP16, literal(-11)))
          CFI V4 load(1, XDATA, add(CFA_XSP16, literal(-10)))
          CFI V5 load(1, XDATA, add(CFA_XSP16, literal(-9)))
          CFI V6 load(1, XDATA, add(CFA_XSP16, literal(-8)))
          CFI V7 load(1, XDATA, add(CFA_XSP16, literal(-7)))
          CFI R7 load(1, XDATA, add(CFA_XSP16, literal(-6)))
          CFI ?RET_LOW load(1, XDATA, add(CFA_XSP16, literal(-5)))
          CFI ?RET_HIGH load(1, XDATA, add(CFA_XSP16, literal(-4)))
          CFI ?BRET_EXT load(1, XDATA, add(CFA_XSP16, literal(-3)))
          CFI DPL0 load(1, XDATA, add(CFA_XSP16, literal(-2)))
          CFI DPH0 load(1, XDATA, add(CFA_XSP16, literal(-1)))
          CFI CFA_SP SP+-2
          CFI CFA_XSP16 add(XSP16, 18)
          CFI Block cfiCond109 Using cfiCommon0
          CFI (cfiCond109) Function rxStartIsr
          CFI (cfiCond109) Conditional ??CrossCallReturnLabel_48
          CFI (cfiCond109) R6 load(1, XDATA, add(CFA_XSP16, literal(-16)))
          CFI (cfiCond109) VB load(1, XDATA, add(CFA_XSP16, literal(-15)))
          CFI (cfiCond109) V0 load(1, XDATA, add(CFA_XSP16, literal(-14)))
          CFI (cfiCond109) V1 load(1, XDATA, add(CFA_XSP16, literal(-13)))
          CFI (cfiCond109) V2 load(1, XDATA, add(CFA_XSP16, literal(-12)))
          CFI (cfiCond109) V3 load(1, XDATA, add(CFA_XSP16, literal(-11)))
          CFI (cfiCond109) V4 load(1, XDATA, add(CFA_XSP16, literal(-10)))
          CFI (cfiCond109) V5 load(1, XDATA, add(CFA_XSP16, literal(-9)))
          CFI (cfiCond109) V6 load(1, XDATA, add(CFA_XSP16, literal(-8)))
          CFI (cfiCond109) V7 load(1, XDATA, add(CFA_XSP16, literal(-7)))
          CFI (cfiCond109) R7 load(1, XDATA, add(CFA_XSP16, literal(-6)))
          CFI (cfiCond109) ?RET_LOW load(1, XDATA, add(CFA_XSP16, literal(-5)))
          CFI (cfiCond109) ?RET_HIGH load(1, XDATA, add(CFA_XSP16, literal(-4)))
          CFI (cfiCond109) ?BRET_EXT load(1, XDATA, add(CFA_XSP16, literal(-3)))
          CFI (cfiCond109) DPL0 load(1, XDATA, add(CFA_XSP16, literal(-2)))
          CFI (cfiCond109) DPH0 load(1, XDATA, add(CFA_XSP16, literal(-1)))
          CFI (cfiCond109) CFA_SP SP+-2
          CFI (cfiCond109) CFA_XSP16 add(XSP16, 18)
          CFI Block cfiCond110 Using cfiCommon0
          CFI (cfiCond110) Function rxStartIsr
          CFI (cfiCond110) Conditional ??CrossCallReturnLabel_49
          CFI (cfiCond110) R6 load(1, XDATA, add(CFA_XSP16, literal(-16)))
          CFI (cfiCond110) VB load(1, XDATA, add(CFA_XSP16, literal(-15)))
          CFI (cfiCond110) V0 load(1, XDATA, add(CFA_XSP16, literal(-14)))
          CFI (cfiCond110) V1 load(1, XDATA, add(CFA_XSP16, literal(-13)))
          CFI (cfiCond110) V2 load(1, XDATA, add(CFA_XSP16, literal(-12)))
          CFI (cfiCond110) V3 load(1, XDATA, add(CFA_XSP16, literal(-11)))
          CFI (cfiCond110) V4 load(1, XDATA, add(CFA_XSP16, literal(-10)))
          CFI (cfiCond110) V5 load(1, XDATA, add(CFA_XSP16, literal(-9)))
          CFI (cfiCond110) V6 load(1, XDATA, add(CFA_XSP16, literal(-8)))
          CFI (cfiCond110) V7 load(1, XDATA, add(CFA_XSP16, literal(-7)))
          CFI (cfiCond110) R7 load(1, XDATA, add(CFA_XSP16, literal(-6)))
          CFI (cfiCond110) ?RET_LOW load(1, XDATA, add(CFA_XSP16, literal(-5)))
          CFI (cfiCond110) ?RET_HIGH load(1, XDATA, add(CFA_XSP16, literal(-4)))
          CFI (cfiCond110) ?BRET_EXT load(1, XDATA, add(CFA_XSP16, literal(-3)))
          CFI (cfiCond110) DPL0 load(1, XDATA, add(CFA_XSP16, literal(-2)))
          CFI (cfiCond110) DPH0 load(1, XDATA, add(CFA_XSP16, literal(-1)))
          CFI (cfiCond110) CFA_SP SP+-2
          CFI (cfiCond110) CFA_XSP16 add(XSP16, 18)
          CFI Block cfiCond111 Using cfiCommon0
          CFI (cfiCond111) Function rxStartIsr
          CFI (cfiCond111) Conditional ??CrossCallReturnLabel_50
          CFI (cfiCond111) R6 load(1, XDATA, add(CFA_XSP16, literal(-16)))
          CFI (cfiCond111) VB load(1, XDATA, add(CFA_XSP16, literal(-15)))
          CFI (cfiCond111) V0 load(1, XDATA, add(CFA_XSP16, literal(-14)))
          CFI (cfiCond111) V1 load(1, XDATA, add(CFA_XSP16, literal(-13)))
          CFI (cfiCond111) V2 load(1, XDATA, add(CFA_XSP16, literal(-12)))
          CFI (cfiCond111) V3 load(1, XDATA, add(CFA_XSP16, literal(-11)))
          CFI (cfiCond111) V4 load(1, XDATA, add(CFA_XSP16, literal(-10)))
          CFI (cfiCond111) V5 load(1, XDATA, add(CFA_XSP16, literal(-9)))
          CFI (cfiCond111) V6 load(1, XDATA, add(CFA_XSP16, literal(-8)))
          CFI (cfiCond111) V7 load(1, XDATA, add(CFA_XSP16, literal(-7)))
          CFI (cfiCond111) R7 load(1, XDATA, add(CFA_XSP16, literal(-6)))
          CFI (cfiCond111) ?RET_LOW load(1, XDATA, add(CFA_XSP16, literal(-5)))
          CFI (cfiCond111) ?RET_HIGH load(1, XDATA, add(CFA_XSP16, literal(-4)))
          CFI (cfiCond111) ?BRET_EXT load(1, XDATA, add(CFA_XSP16, literal(-3)))
          CFI (cfiCond111) DPL0 load(1, XDATA, add(CFA_XSP16, literal(-2)))
          CFI (cfiCond111) DPH0 load(1, XDATA, add(CFA_XSP16, literal(-1)))
          CFI (cfiCond111) CFA_XSP16 add(XSP16, 18)
          CFI Block cfiCond112 Using cfiCommon0
          CFI (cfiCond112) Function rxAddrIsr
          CFI (cfiCond112) Conditional ??CrossCallReturnLabel_51
          CFI (cfiCond112) R6 load(1, XDATA, add(CFA_XSP16, literal(-10)))
          CFI (cfiCond112) VB load(1, XDATA, add(CFA_XSP16, literal(-9)))
          CFI (cfiCond112) V0 load(1, XDATA, add(CFA_XSP16, literal(-8)))
          CFI (cfiCond112) V1 load(1, XDATA, add(CFA_XSP16, literal(-7)))
          CFI (cfiCond112) R7 load(1, XDATA, add(CFA_XSP16, literal(-6)))
          CFI (cfiCond112) ?RET_LOW load(1, XDATA, add(CFA_XSP16, literal(-5)))
          CFI (cfiCond112) ?RET_HIGH load(1, XDATA, add(CFA_XSP16, literal(-4)))
          CFI (cfiCond112) ?BRET_EXT load(1, XDATA, add(CFA_XSP16, literal(-3)))
          CFI (cfiCond112) DPL0 load(1, XDATA, add(CFA_XSP16, literal(-2)))
          CFI (cfiCond112) DPH0 load(1, XDATA, add(CFA_XSP16, literal(-1)))
          CFI (cfiCond112) CFA_SP SP+-2
          CFI (cfiCond112) CFA_XSP16 add(XSP16, 30)
          CFI Block cfiCond113 Using cfiCommon0
          CFI (cfiCond113) Function rxFcsIsr
          CFI (cfiCond113) Conditional ??CrossCallReturnLabel_52
          CFI (cfiCond113) R6 load(1, XDATA, add(CFA_XSP16, literal(-10)))
          CFI (cfiCond113) VB load(1, XDATA, add(CFA_XSP16, literal(-9)))
          CFI (cfiCond113) V0 load(1, XDATA, add(CFA_XSP16, literal(-8)))
          CFI (cfiCond113) V1 load(1, XDATA, add(CFA_XSP16, literal(-7)))
          CFI (cfiCond113) R7 load(1, XDATA, add(CFA_XSP16, literal(-6)))
          CFI (cfiCond113) ?RET_LOW load(1, XDATA, add(CFA_XSP16, literal(-5)))
          CFI (cfiCond113) ?RET_HIGH load(1, XDATA, add(CFA_XSP16, literal(-4)))
          CFI (cfiCond113) ?BRET_EXT load(1, XDATA, add(CFA_XSP16, literal(-3)))
          CFI (cfiCond113) DPL0 load(1, XDATA, add(CFA_XSP16, literal(-2)))
          CFI (cfiCond113) DPH0 load(1, XDATA, add(CFA_XSP16, literal(-1)))
          CFI (cfiCond113) CFA_SP SP+-2
          CFI (cfiCond113) CFA_XSP16 add(XSP16, 10)
          CFI Block cfiPicker114 Using cfiCommon1
          CFI (cfiPicker114) NoFunction
          CFI (cfiPicker114) Picker
        LCALL     ??Subroutine34_0 & 0xFFFF
??CrossCallReturnLabel_56:
        RET
          CFI EndBlock cfiCond108
          CFI EndBlock cfiCond109
          CFI EndBlock cfiCond110
          CFI EndBlock cfiCond111
          CFI EndBlock cfiCond112
          CFI EndBlock cfiCond113
          CFI EndBlock cfiPicker114

        RSEG BANKED_CODE:HUGECODE:NOROOT(0)
?Subroutine15:
          CFI Block cfiCond115 Using cfiCommon0
          CFI Function rxStartIsr
          CFI Conditional ??CrossCallReturnLabel_19
          CFI R6 load(1, XDATA, add(CFA_XSP16, literal(-16)))
          CFI VB load(1, XDATA, add(CFA_XSP16, literal(-15)))
          CFI V0 load(1, XDATA, add(CFA_XSP16, literal(-14)))
          CFI V1 load(1, XDATA, add(CFA_XSP16, literal(-13)))
          CFI V2 load(1, XDATA, add(CFA_XSP16, literal(-12)))
          CFI V3 load(1, XDATA, add(CFA_XSP16, literal(-11)))
          CFI V4 load(1, XDATA, add(CFA_XSP16, literal(-10)))
          CFI V5 load(1, XDATA, add(CFA_XSP16, literal(-9)))
          CFI V6 load(1, XDATA, add(CFA_XSP16, literal(-8)))
          CFI V7 load(1, XDATA, add(CFA_XSP16, literal(-7)))
          CFI R7 load(1, XDATA, add(CFA_XSP16, literal(-6)))
          CFI ?RET_LOW load(1, XDATA, add(CFA_XSP16, literal(-5)))
          CFI ?RET_HIGH load(1, XDATA, add(CFA_XSP16, literal(-4)))
          CFI ?BRET_EXT load(1, XDATA, add(CFA_XSP16, literal(-3)))
          CFI DPL0 load(1, XDATA, add(CFA_XSP16, literal(-2)))
          CFI DPH0 load(1, XDATA, add(CFA_XSP16, literal(-1)))
          CFI CFA_XSP16 add(XSP16, 18)
          CFI Block cfiCond116 Using cfiCommon0
          CFI (cfiCond116) Function rxAddrIsr
          CFI (cfiCond116) Conditional ??CrossCallReturnLabel_20
          CFI (cfiCond116) R6 load(1, XDATA, add(CFA_XSP16, literal(-10)))
          CFI (cfiCond116) VB load(1, XDATA, add(CFA_XSP16, literal(-9)))
          CFI (cfiCond116) V0 load(1, XDATA, add(CFA_XSP16, literal(-8)))
          CFI (cfiCond116) V1 load(1, XDATA, add(CFA_XSP16, literal(-7)))
          CFI (cfiCond116) R7 load(1, XDATA, add(CFA_XSP16, literal(-6)))
          CFI (cfiCond116) ?RET_LOW load(1, XDATA, add(CFA_XSP16, literal(-5)))
          CFI (cfiCond116) ?RET_HIGH load(1, XDATA, add(CFA_XSP16, literal(-4)))
          CFI (cfiCond116) ?BRET_EXT load(1, XDATA, add(CFA_XSP16, literal(-3)))
          CFI (cfiCond116) DPL0 load(1, XDATA, add(CFA_XSP16, literal(-2)))
          CFI (cfiCond116) DPH0 load(1, XDATA, add(CFA_XSP16, literal(-1)))
          CFI (cfiCond116) CFA_SP SP+-2
          CFI (cfiCond116) CFA_XSP16 add(XSP16, 30)
          CFI Block cfiPicker117 Using cfiCommon1
          CFI (cfiPicker117) NoFunction
          CFI (cfiPicker117) Picker
        LCALL     ?Subroutine24 & 0xFFFF
??CrossCallReturnLabel_55:
        ADD       A,#0x6
        MOV       DPL,A
        CLR       A
        ADDC      A,R0
        MOV       DPH,A
        RET
          CFI EndBlock cfiCond115
          CFI EndBlock cfiCond116
          CFI EndBlock cfiPicker117

        RSEG BANKED_CODE:HUGECODE:NOROOT(0)
?Subroutine24:
          CFI Block cfiCond118 Using cfiCommon0
          CFI Function rxStartIsr
          CFI Conditional ??CrossCallReturnLabel_55, ??CrossCallReturnLabel_19
          CFI R6 load(1, XDATA, add(CFA_XSP16, literal(-16)))
          CFI VB load(1, XDATA, add(CFA_XSP16, literal(-15)))
          CFI V0 load(1, XDATA, add(CFA_XSP16, literal(-14)))
          CFI V1 load(1, XDATA, add(CFA_XSP16, literal(-13)))
          CFI V2 load(1, XDATA, add(CFA_XSP16, literal(-12)))
          CFI V3 load(1, XDATA, add(CFA_XSP16, literal(-11)))
          CFI V4 load(1, XDATA, add(CFA_XSP16, literal(-10)))
          CFI V5 load(1, XDATA, add(CFA_XSP16, literal(-9)))
          CFI V6 load(1, XDATA, add(CFA_XSP16, literal(-8)))
          CFI V7 load(1, XDATA, add(CFA_XSP16, literal(-7)))
          CFI R7 load(1, XDATA, add(CFA_XSP16, literal(-6)))
          CFI ?RET_LOW load(1, XDATA, add(CFA_XSP16, literal(-5)))
          CFI ?RET_HIGH load(1, XDATA, add(CFA_XSP16, literal(-4)))
          CFI ?BRET_EXT load(1, XDATA, add(CFA_XSP16, literal(-3)))
          CFI DPL0 load(1, XDATA, add(CFA_XSP16, literal(-2)))
          CFI DPH0 load(1, XDATA, add(CFA_XSP16, literal(-1)))
          CFI CFA_SP SP+-5
          CFI CFA_XSP16 add(XSP16, 18)
          CFI Block cfiCond119 Using cfiCommon0
          CFI (cfiCond119) Function rxAddrIsr
          CFI (cfiCond119) Conditional ??CrossCallReturnLabel_55, ??CrossCallReturnLabel_20
          CFI (cfiCond119) R6 load(1, XDATA, add(CFA_XSP16, literal(-10)))
          CFI (cfiCond119) VB load(1, XDATA, add(CFA_XSP16, literal(-9)))
          CFI (cfiCond119) V0 load(1, XDATA, add(CFA_XSP16, literal(-8)))
          CFI (cfiCond119) V1 load(1, XDATA, add(CFA_XSP16, literal(-7)))
          CFI (cfiCond119) R7 load(1, XDATA, add(CFA_XSP16, literal(-6)))
          CFI (cfiCond119) ?RET_LOW load(1, XDATA, add(CFA_XSP16, literal(-5)))
          CFI (cfiCond119) ?RET_HIGH load(1, XDATA, add(CFA_XSP16, literal(-4)))
          CFI (cfiCond119) ?BRET_EXT load(1, XDATA, add(CFA_XSP16, literal(-3)))
          CFI (cfiCond119) DPL0 load(1, XDATA, add(CFA_XSP16, literal(-2)))
          CFI (cfiCond119) DPH0 load(1, XDATA, add(CFA_XSP16, literal(-1)))
          CFI (cfiCond119) CFA_SP SP+-4
          CFI (cfiCond119) CFA_XSP16 add(XSP16, 30)
          CFI Block cfiCond120 Using cfiCommon0
          CFI (cfiCond120) Function rxStartIsr
          CFI (cfiCond120) Conditional ??CrossCallReturnLabel_54, ??CrossCallReturnLabel_15
          CFI (cfiCond120) R6 load(1, XDATA, add(CFA_XSP16, literal(-16)))
          CFI (cfiCond120) VB load(1, XDATA, add(CFA_XSP16, literal(-15)))
          CFI (cfiCond120) V0 load(1, XDATA, add(CFA_XSP16, literal(-14)))
          CFI (cfiCond120) V1 load(1, XDATA, add(CFA_XSP16, literal(-13)))
          CFI (cfiCond120) V2 load(1, XDATA, add(CFA_XSP16, literal(-12)))
          CFI (cfiCond120) V3 load(1, XDATA, add(CFA_XSP16, literal(-11)))
          CFI (cfiCond120) V4 load(1, XDATA, add(CFA_XSP16, literal(-10)))
          CFI (cfiCond120) V5 load(1, XDATA, add(CFA_XSP16, literal(-9)))
          CFI (cfiCond120) V6 load(1, XDATA, add(CFA_XSP16, literal(-8)))
          CFI (cfiCond120) V7 load(1, XDATA, add(CFA_XSP16, literal(-7)))
          CFI (cfiCond120) R7 load(1, XDATA, add(CFA_XSP16, literal(-6)))
          CFI (cfiCond120) ?RET_LOW load(1, XDATA, add(CFA_XSP16, literal(-5)))
          CFI (cfiCond120) ?RET_HIGH load(1, XDATA, add(CFA_XSP16, literal(-4)))
          CFI (cfiCond120) ?BRET_EXT load(1, XDATA, add(CFA_XSP16, literal(-3)))
          CFI (cfiCond120) DPL0 load(1, XDATA, add(CFA_XSP16, literal(-2)))
          CFI (cfiCond120) DPH0 load(1, XDATA, add(CFA_XSP16, literal(-1)))
          CFI (cfiCond120) CFA_SP SP+-4
          CFI (cfiCond120) CFA_XSP16 add(XSP16, 21)
          CFI Block cfiCond121 Using cfiCommon0
          CFI (cfiCond121) Function rxPayloadIsr
          CFI (cfiCond121) Conditional ??CrossCallReturnLabel_54, ??CrossCallReturnLabel_16
          CFI (cfiCond121) DPL0 Frame(CFA_SP, 4)
          CFI (cfiCond121) DPH0 Frame(CFA_SP, 5)
          CFI (cfiCond121) CFA_SP SP+-9
          CFI Block cfiPicker122 Using cfiCommon1
          CFI (cfiPicker122) NoFunction
          CFI (cfiPicker122) Picker
        MOV       DPTR,#pRxBuf
          CFI EndBlock cfiCond118
          CFI EndBlock cfiCond119
          CFI EndBlock cfiCond120
          CFI EndBlock cfiCond121
          CFI EndBlock cfiPicker122
        REQUIRE ??Subroutine34_0
        ; // Fall through to label ??Subroutine34_0

        RSEG BANKED_CODE:HUGECODE:NOROOT(0)
??Subroutine34_0:
          CFI Block cfiCond123 Using cfiCommon0
          CFI Function rxStartIsr
          CFI Conditional ??CrossCallReturnLabel_53, ??CrossCallReturnLabel_3
          CFI R6 load(1, XDATA, add(CFA_XSP16, literal(-16)))
          CFI VB load(1, XDATA, add(CFA_XSP16, literal(-15)))
          CFI V0 load(1, XDATA, add(CFA_XSP16, literal(-14)))
          CFI V1 load(1, XDATA, add(CFA_XSP16, literal(-13)))
          CFI V2 load(1, XDATA, add(CFA_XSP16, literal(-12)))
          CFI V3 load(1, XDATA, add(CFA_XSP16, literal(-11)))
          CFI V4 load(1, XDATA, add(CFA_XSP16, literal(-10)))
          CFI V5 load(1, XDATA, add(CFA_XSP16, literal(-9)))
          CFI V6 load(1, XDATA, add(CFA_XSP16, literal(-8)))
          CFI V7 load(1, XDATA, add(CFA_XSP16, literal(-7)))
          CFI R7 load(1, XDATA, add(CFA_XSP16, literal(-6)))
          CFI ?RET_LOW load(1, XDATA, add(CFA_XSP16, literal(-5)))
          CFI ?RET_HIGH load(1, XDATA, add(CFA_XSP16, literal(-4)))
          CFI ?BRET_EXT load(1, XDATA, add(CFA_XSP16, literal(-3)))
          CFI DPL0 load(1, XDATA, add(CFA_XSP16, literal(-2)))
          CFI DPH0 load(1, XDATA, add(CFA_XSP16, literal(-1)))
          CFI CFA_SP SP+-4
          CFI CFA_XSP16 add(XSP16, 18)
          CFI Block cfiCond124 Using cfiCommon0
          CFI (cfiCond124) Function rxStartIsr
          CFI (cfiCond124) Conditional ??CrossCallReturnLabel_53, ??CrossCallReturnLabel_4
          CFI (cfiCond124) R6 load(1, XDATA, add(CFA_XSP16, literal(-16)))
          CFI (cfiCond124) VB load(1, XDATA, add(CFA_XSP16, literal(-15)))
          CFI (cfiCond124) V0 load(1, XDATA, add(CFA_XSP16, literal(-14)))
          CFI (cfiCond124) V1 load(1, XDATA, add(CFA_XSP16, literal(-13)))
          CFI (cfiCond124) V2 load(1, XDATA, add(CFA_XSP16, literal(-12)))
          CFI (cfiCond124) V3 load(1, XDATA, add(CFA_XSP16, literal(-11)))
          CFI (cfiCond124) V4 load(1, XDATA, add(CFA_XSP16, literal(-10)))
          CFI (cfiCond124) V5 load(1, XDATA, add(CFA_XSP16, literal(-9)))
          CFI (cfiCond124) V6 load(1, XDATA, add(CFA_XSP16, literal(-8)))
          CFI (cfiCond124) V7 load(1, XDATA, add(CFA_XSP16, literal(-7)))
          CFI (cfiCond124) R7 load(1, XDATA, add(CFA_XSP16, literal(-6)))
          CFI (cfiCond124) ?RET_LOW load(1, XDATA, add(CFA_XSP16, literal(-5)))
          CFI (cfiCond124) ?RET_HIGH load(1, XDATA, add(CFA_XSP16, literal(-4)))
          CFI (cfiCond124) ?BRET_EXT load(1, XDATA, add(CFA_XSP16, literal(-3)))
          CFI (cfiCond124) DPL0 load(1, XDATA, add(CFA_XSP16, literal(-2)))
          CFI (cfiCond124) DPH0 load(1, XDATA, add(CFA_XSP16, literal(-1)))
          CFI (cfiCond124) CFA_SP SP+-4
          CFI (cfiCond124) CFA_XSP16 add(XSP16, 18)
          CFI Block cfiCond125 Using cfiCommon0
          CFI (cfiCond125) Function rxStartIsr
          CFI (cfiCond125) Conditional ??CrossCallReturnLabel_56, ??CrossCallReturnLabel_48
          CFI (cfiCond125) R6 load(1, XDATA, add(CFA_XSP16, literal(-16)))
          CFI (cfiCond125) VB load(1, XDATA, add(CFA_XSP16, literal(-15)))
          CFI (cfiCond125) V0 load(1, XDATA, add(CFA_XSP16, literal(-14)))
          CFI (cfiCond125) V1 load(1, XDATA, add(CFA_XSP16, literal(-13)))
          CFI (cfiCond125) V2 load(1, XDATA, add(CFA_XSP16, literal(-12)))
          CFI (cfiCond125) V3 load(1, XDATA, add(CFA_XSP16, literal(-11)))
          CFI (cfiCond125) V4 load(1, XDATA, add(CFA_XSP16, literal(-10)))
          CFI (cfiCond125) V5 load(1, XDATA, add(CFA_XSP16, literal(-9)))
          CFI (cfiCond125) V6 load(1, XDATA, add(CFA_XSP16, literal(-8)))
          CFI (cfiCond125) V7 load(1, XDATA, add(CFA_XSP16, literal(-7)))
          CFI (cfiCond125) R7 load(1, XDATA, add(CFA_XSP16, literal(-6)))
          CFI (cfiCond125) ?RET_LOW load(1, XDATA, add(CFA_XSP16, literal(-5)))
          CFI (cfiCond125) ?RET_HIGH load(1, XDATA, add(CFA_XSP16, literal(-4)))
          CFI (cfiCond125) ?BRET_EXT load(1, XDATA, add(CFA_XSP16, literal(-3)))
          CFI (cfiCond125) DPL0 load(1, XDATA, add(CFA_XSP16, literal(-2)))
          CFI (cfiCond125) DPH0 load(1, XDATA, add(CFA_XSP16, literal(-1)))
          CFI (cfiCond125) CFA_SP SP+-4
          CFI (cfiCond125) CFA_XSP16 add(XSP16, 18)
          CFI Block cfiCond126 Using cfiCommon0
          CFI (cfiCond126) Function rxStartIsr
          CFI (cfiCond126) Conditional ??CrossCallReturnLabel_56, ??CrossCallReturnLabel_49
          CFI (cfiCond126) R6 load(1, XDATA, add(CFA_XSP16, literal(-16)))
          CFI (cfiCond126) VB load(1, XDATA, add(CFA_XSP16, literal(-15)))
          CFI (cfiCond126) V0 load(1, XDATA, add(CFA_XSP16, literal(-14)))
          CFI (cfiCond126) V1 load(1, XDATA, add(CFA_XSP16, literal(-13)))
          CFI (cfiCond126) V2 load(1, XDATA, add(CFA_XSP16, literal(-12)))
          CFI (cfiCond126) V3 load(1, XDATA, add(CFA_XSP16, literal(-11)))
          CFI (cfiCond126) V4 load(1, XDATA, add(CFA_XSP16, literal(-10)))
          CFI (cfiCond126) V5 load(1, XDATA, add(CFA_XSP16, literal(-9)))
          CFI (cfiCond126) V6 load(1, XDATA, add(CFA_XSP16, literal(-8)))
          CFI (cfiCond126) V7 load(1, XDATA, add(CFA_XSP16, literal(-7)))
          CFI (cfiCond126) R7 load(1, XDATA, add(CFA_XSP16, literal(-6)))
          CFI (cfiCond126) ?RET_LOW load(1, XDATA, add(CFA_XSP16, literal(-5)))
          CFI (cfiCond126) ?RET_HIGH load(1, XDATA, add(CFA_XSP16, literal(-4)))
          CFI (cfiCond126) ?BRET_EXT load(1, XDATA, add(CFA_XSP16, literal(-3)))
          CFI (cfiCond126) DPL0 load(1, XDATA, add(CFA_XSP16, literal(-2)))
          CFI (cfiCond126) DPH0 load(1, XDATA, add(CFA_XSP16, literal(-1)))
          CFI (cfiCond126) CFA_SP SP+-4
          CFI (cfiCond126) CFA_XSP16 add(XSP16, 18)
          CFI Block cfiCond127 Using cfiCommon0
          CFI (cfiCond127) Function rxStartIsr
          CFI (cfiCond127) Conditional ??CrossCallReturnLabel_56, ??CrossCallReturnLabel_50
          CFI (cfiCond127) R6 load(1, XDATA, add(CFA_XSP16, literal(-16)))
          CFI (cfiCond127) VB load(1, XDATA, add(CFA_XSP16, literal(-15)))
          CFI (cfiCond127) V0 load(1, XDATA, add(CFA_XSP16, literal(-14)))
          CFI (cfiCond127) V1 load(1, XDATA, add(CFA_XSP16, literal(-13)))
          CFI (cfiCond127) V2 load(1, XDATA, add(CFA_XSP16, literal(-12)))
          CFI (cfiCond127) V3 load(1, XDATA, add(CFA_XSP16, literal(-11)))
          CFI (cfiCond127) V4 load(1, XDATA, add(CFA_XSP16, literal(-10)))
          CFI (cfiCond127) V5 load(1, XDATA, add(CFA_XSP16, literal(-9)))
          CFI (cfiCond127) V6 load(1, XDATA, add(CFA_XSP16, literal(-8)))
          CFI (cfiCond127) V7 load(1, XDATA, add(CFA_XSP16, literal(-7)))
          CFI (cfiCond127) R7 load(1, XDATA, add(CFA_XSP16, literal(-6)))
          CFI (cfiCond127) ?RET_LOW load(1, XDATA, add(CFA_XSP16, literal(-5)))
          CFI (cfiCond127) ?RET_HIGH load(1, XDATA, add(CFA_XSP16, literal(-4)))
          CFI (cfiCond127) ?BRET_EXT load(1, XDATA, add(CFA_XSP16, literal(-3)))
          CFI (cfiCond127) DPL0 load(1, XDATA, add(CFA_XSP16, literal(-2)))
          CFI (cfiCond127) DPH0 load(1, XDATA, add(CFA_XSP16, literal(-1)))
          CFI (cfiCond127) CFA_SP SP+-5
          CFI (cfiCond127) CFA_XSP16 add(XSP16, 18)
          CFI Block cfiCond128 Using cfiCommon0
          CFI (cfiCond128) Function rxAddrIsr
          CFI (cfiCond128) Conditional ??CrossCallReturnLabel_56, ??CrossCallReturnLabel_51
          CFI (cfiCond128) R6 load(1, XDATA, add(CFA_XSP16, literal(-10)))
          CFI (cfiCond128) VB load(1, XDATA, add(CFA_XSP16, literal(-9)))
          CFI (cfiCond128) V0 load(1, XDATA, add(CFA_XSP16, literal(-8)))
          CFI (cfiCond128) V1 load(1, XDATA, add(CFA_XSP16, literal(-7)))
          CFI (cfiCond128) R7 load(1, XDATA, add(CFA_XSP16, literal(-6)))
          CFI (cfiCond128) ?RET_LOW load(1, XDATA, add(CFA_XSP16, literal(-5)))
          CFI (cfiCond128) ?RET_HIGH load(1, XDATA, add(CFA_XSP16, literal(-4)))
          CFI (cfiCond128) ?BRET_EXT load(1, XDATA, add(CFA_XSP16, literal(-3)))
          CFI (cfiCond128) DPL0 load(1, XDATA, add(CFA_XSP16, literal(-2)))
          CFI (cfiCond128) DPH0 load(1, XDATA, add(CFA_XSP16, literal(-1)))
          CFI (cfiCond128) CFA_SP SP+-4
          CFI (cfiCond128) CFA_XSP16 add(XSP16, 30)
          CFI Block cfiCond129 Using cfiCommon0
          CFI (cfiCond129) Function rxFcsIsr
          CFI (cfiCond129) Conditional ??CrossCallReturnLabel_56, ??CrossCallReturnLabel_52
          CFI (cfiCond129) R6 load(1, XDATA, add(CFA_XSP16, literal(-10)))
          CFI (cfiCond129) VB load(1, XDATA, add(CFA_XSP16, literal(-9)))
          CFI (cfiCond129) V0 load(1, XDATA, add(CFA_XSP16, literal(-8)))
          CFI (cfiCond129) V1 load(1, XDATA, add(CFA_XSP16, literal(-7)))
          CFI (cfiCond129) R7 load(1, XDATA, add(CFA_XSP16, literal(-6)))
          CFI (cfiCond129) ?RET_LOW load(1, XDATA, add(CFA_XSP16, literal(-5)))
          CFI (cfiCond129) ?RET_HIGH load(1, XDATA, add(CFA_XSP16, literal(-4)))
          CFI (cfiCond129) ?BRET_EXT load(1, XDATA, add(CFA_XSP16, literal(-3)))
          CFI (cfiCond129) DPL0 load(1, XDATA, add(CFA_XSP16, literal(-2)))
          CFI (cfiCond129) DPH0 load(1, XDATA, add(CFA_XSP16, literal(-1)))
          CFI (cfiCond129) CFA_SP SP+-4
          CFI (cfiCond129) CFA_XSP16 add(XSP16, 10)
          CFI Block cfiCond130 Using cfiCommon0
          CFI (cfiCond130) Function rxStartIsr
          CFI (cfiCond130) Conditional ??CrossCallReturnLabel_56, ??CrossCallReturnLabel_47
          CFI (cfiCond130) R6 load(1, XDATA, add(CFA_XSP16, literal(-16)))
          CFI (cfiCond130) VB load(1, XDATA, add(CFA_XSP16, literal(-15)))
          CFI (cfiCond130) V0 load(1, XDATA, add(CFA_XSP16, literal(-14)))
          CFI (cfiCond130) V1 load(1, XDATA, add(CFA_XSP16, literal(-13)))
          CFI (cfiCond130) V2 load(1, XDATA, add(CFA_XSP16, literal(-12)))
          CFI (cfiCond130) V3 load(1, XDATA, add(CFA_XSP16, literal(-11)))
          CFI (cfiCond130) V4 load(1, XDATA, add(CFA_XSP16, literal(-10)))
          CFI (cfiCond130) V5 load(1, XDATA, add(CFA_XSP16, literal(-9)))
          CFI (cfiCond130) V6 load(1, XDATA, add(CFA_XSP16, literal(-8)))
          CFI (cfiCond130) V7 load(1, XDATA, add(CFA_XSP16, literal(-7)))
          CFI (cfiCond130) R7 load(1, XDATA, add(CFA_XSP16, literal(-6)))
          CFI (cfiCond130) ?RET_LOW load(1, XDATA, add(CFA_XSP16, literal(-5)))
          CFI (cfiCond130) ?RET_HIGH load(1, XDATA, add(CFA_XSP16, literal(-4)))
          CFI (cfiCond130) ?BRET_EXT load(1, XDATA, add(CFA_XSP16, literal(-3)))
          CFI (cfiCond130) DPL0 load(1, XDATA, add(CFA_XSP16, literal(-2)))
          CFI (cfiCond130) DPH0 load(1, XDATA, add(CFA_XSP16, literal(-1)))
          CFI (cfiCond130) CFA_SP SP+-4
          CFI (cfiCond130) CFA_XSP16 add(XSP16, 18)
          CFI Block cfiCond131 Using cfiCommon0
          CFI (cfiCond131) Function rxStartIsr
          CFI (cfiCond131) Conditional ??CrossCallReturnLabel_55, ??CrossCallReturnLabel_19
          CFI (cfiCond131) R6 load(1, XDATA, add(CFA_XSP16, literal(-16)))
          CFI (cfiCond131) VB load(1, XDATA, add(CFA_XSP16, literal(-15)))
          CFI (cfiCond131) V0 load(1, XDATA, add(CFA_XSP16, literal(-14)))
          CFI (cfiCond131) V1 load(1, XDATA, add(CFA_XSP16, literal(-13)))
          CFI (cfiCond131) V2 load(1, XDATA, add(CFA_XSP16, literal(-12)))
          CFI (cfiCond131) V3 load(1, XDATA, add(CFA_XSP16, literal(-11)))
          CFI (cfiCond131) V4 load(1, XDATA, add(CFA_XSP16, literal(-10)))
          CFI (cfiCond131) V5 load(1, XDATA, add(CFA_XSP16, literal(-9)))
          CFI (cfiCond131) V6 load(1, XDATA, add(CFA_XSP16, literal(-8)))
          CFI (cfiCond131) V7 load(1, XDATA, add(CFA_XSP16, literal(-7)))
          CFI (cfiCond131) R7 load(1, XDATA, add(CFA_XSP16, literal(-6)))
          CFI (cfiCond131) ?RET_LOW load(1, XDATA, add(CFA_XSP16, literal(-5)))
          CFI (cfiCond131) ?RET_HIGH load(1, XDATA, add(CFA_XSP16, literal(-4)))
          CFI (cfiCond131) ?BRET_EXT load(1, XDATA, add(CFA_XSP16, literal(-3)))
          CFI (cfiCond131) DPL0 load(1, XDATA, add(CFA_XSP16, literal(-2)))
          CFI (cfiCond131) DPH0 load(1, XDATA, add(CFA_XSP16, literal(-1)))
          CFI (cfiCond131) CFA_SP SP+-5
          CFI (cfiCond131) CFA_XSP16 add(XSP16, 18)
          CFI Block cfiCond132 Using cfiCommon0
          CFI (cfiCond132) Function rxAddrIsr
          CFI (cfiCond132) Conditional ??CrossCallReturnLabel_55, ??CrossCallReturnLabel_20
          CFI (cfiCond132) R6 load(1, XDATA, add(CFA_XSP16, literal(-10)))
          CFI (cfiCond132) VB load(1, XDATA, add(CFA_XSP16, literal(-9)))
          CFI (cfiCond132) V0 load(1, XDATA, add(CFA_XSP16, literal(-8)))
          CFI (cfiCond132) V1 load(1, XDATA, add(CFA_XSP16, literal(-7)))
          CFI (cfiCond132) R7 load(1, XDATA, add(CFA_XSP16, literal(-6)))
          CFI (cfiCond132) ?RET_LOW load(1, XDATA, add(CFA_XSP16, literal(-5)))
          CFI (cfiCond132) ?RET_HIGH load(1, XDATA, add(CFA_XSP16, literal(-4)))
          CFI (cfiCond132) ?BRET_EXT load(1, XDATA, add(CFA_XSP16, literal(-3)))
          CFI (cfiCond132) DPL0 load(1, XDATA, add(CFA_XSP16, literal(-2)))
          CFI (cfiCond132) DPH0 load(1, XDATA, add(CFA_XSP16, literal(-1)))
          CFI (cfiCond132) CFA_SP SP+-4
          CFI (cfiCond132) CFA_XSP16 add(XSP16, 30)
          CFI Block cfiCond133 Using cfiCommon0
          CFI (cfiCond133) Function rxStartIsr
          CFI (cfiCond133) Conditional ??CrossCallReturnLabel_54, ??CrossCallReturnLabel_15
          CFI (cfiCond133) R6 load(1, XDATA, add(CFA_XSP16, literal(-16)))
          CFI (cfiCond133) VB load(1, XDATA, add(CFA_XSP16, literal(-15)))
          CFI (cfiCond133) V0 load(1, XDATA, add(CFA_XSP16, literal(-14)))
          CFI (cfiCond133) V1 load(1, XDATA, add(CFA_XSP16, literal(-13)))
          CFI (cfiCond133) V2 load(1, XDATA, add(CFA_XSP16, literal(-12)))
          CFI (cfiCond133) V3 load(1, XDATA, add(CFA_XSP16, literal(-11)))
          CFI (cfiCond133) V4 load(1, XDATA, add(CFA_XSP16, literal(-10)))
          CFI (cfiCond133) V5 load(1, XDATA, add(CFA_XSP16, literal(-9)))
          CFI (cfiCond133) V6 load(1, XDATA, add(CFA_XSP16, literal(-8)))
          CFI (cfiCond133) V7 load(1, XDATA, add(CFA_XSP16, literal(-7)))
          CFI (cfiCond133) R7 load(1, XDATA, add(CFA_XSP16, literal(-6)))
          CFI (cfiCond133) ?RET_LOW load(1, XDATA, add(CFA_XSP16, literal(-5)))
          CFI (cfiCond133) ?RET_HIGH load(1, XDATA, add(CFA_XSP16, literal(-4)))
          CFI (cfiCond133) ?BRET_EXT load(1, XDATA, add(CFA_XSP16, literal(-3)))
          CFI (cfiCond133) DPL0 load(1, XDATA, add(CFA_XSP16, literal(-2)))
          CFI (cfiCond133) DPH0 load(1, XDATA, add(CFA_XSP16, literal(-1)))
          CFI (cfiCond133) CFA_SP SP+-4
          CFI (cfiCond133) CFA_XSP16 add(XSP16, 21)
          CFI Block cfiCond134 Using cfiCommon0
          CFI (cfiCond134) Function rxPayloadIsr
          CFI (cfiCond134) Conditional ??CrossCallReturnLabel_54, ??CrossCallReturnLabel_16
          CFI (cfiCond134) DPL0 Frame(CFA_SP, 4)
          CFI (cfiCond134) DPH0 Frame(CFA_SP, 5)
          CFI (cfiCond134) CFA_SP SP+-9
          CFI Block cfiPicker135 Using cfiCommon1
          CFI (cfiPicker135) NoFunction
          CFI (cfiPicker135) Picker
        LCALL     ??Subroutine31_0 & 0xFFFF
??CrossCallReturnLabel_62:
        XCH       A,R0
        RET
          CFI EndBlock cfiCond123
          CFI EndBlock cfiCond124
          CFI EndBlock cfiCond125
          CFI EndBlock cfiCond126
          CFI EndBlock cfiCond127
          CFI EndBlock cfiCond128
          CFI EndBlock cfiCond129
          CFI EndBlock cfiCond130
          CFI EndBlock cfiCond131
          CFI EndBlock cfiCond132
          CFI EndBlock cfiCond133
          CFI EndBlock cfiCond134
          CFI EndBlock cfiPicker135
//  966 
//  967 
//  968 #ifdef MAC_SECURITY
//  969 /*=================================================================================================
//  970  * @fn          rxSecurityHdrIsr
//  971  *
//  972  * @brief       Receive ISR state for reading out and storing the auxiliary security header.
//  973  *
//  974  * @param       none
//  975  *
//  976  * @return      none
//  977  *=================================================================================================
//  978  */
//  979 static void rxSecurityHdrIsr(void)
//  980 {
//  981   uint8 buf[MAC_FRAME_COUNTER_LEN + MAC_KEY_ID_8_LEN];
//  982 
//  983   /* read out frame counter and key ID */
//  984   MAC_RADIO_READ_RX_FIFO(buf, rxNextLen);
//  985 
//  986   /* Incoming frame counter */
//  987   macFrameCounter = BUILD_UINT32(buf[0], buf[1], buf[2], buf[3]);
//  988   if (rxNextLen - MAC_FRAME_COUNTER_LEN > 0)
//  989   {
//  990     /* Explicit mode */
//  991     osal_memcpy(pRxBuf->sec.keySource, &buf[MAC_FRAME_COUNTER_LEN], rxNextLen - MAC_FRAME_COUNTER_LEN - 1);
//  992     pRxBuf->sec.keyIndex = buf[rxNextLen - MAC_KEY_INDEX_LEN];
//  993   }
//  994 
//  995   /* Copy security fields to RX buffer */
//  996   osal_memcpy(pRxBuf->mhr.p, buf, rxNextLen);
//  997   pRxBuf->mhr.p   += rxNextLen;
//  998   pRxBuf->mhr.len += rxNextLen;
//  999 
// 1000   /* Update payload pointer and payload length. The rxPayloadLen includes security header length
// 1001    * and SCF byte. The security header and SCF length must be deducted from the rxPayloadLen.
// 1002    */
// 1003   rxPayloadLen    -= (rxNextLen + MAC_SEC_CONTROL_FIELD_LEN);
// 1004   pRxBuf->msdu.len = rxPayloadLen;
// 1005   pRxBuf->mhr.len += rxPayloadLen;
// 1006 
// 1007   /*-------------------------------------------------------------------------------
// 1008    *  Prepare for payload interrupts.
// 1009    */
// 1010   pFuncRxState = &rxPayloadIsr;
// 1011   rxPrepPayload();
// 1012 }
// 1013 #endif /* MAC_SECURITY */
// 1014 
// 1015 
// 1016 /*=================================================================================================
// 1017  * @fn          rxPrepPayload
// 1018  *
// 1019  * @brief       Common code to prepare for the payload ISR.
// 1020  *
// 1021  * @param       none
// 1022  *
// 1023  * @return      none
// 1024  *=================================================================================================
// 1025  */

        RSEG BANKED_CODE:HUGECODE:NOROOT(0)
// 1026 static void rxPrepPayload(void)
rxPrepPayload:
          CFI Block cfiBlock136 Using cfiCommon0
          CFI Function rxPrepPayload
        CODE
// 1027 {
        PUSH      DPL
          CFI DPL0 Frame(CFA_SP, 4)
          CFI CFA_SP SP+-4
        PUSH      DPH
          CFI DPH0 Frame(CFA_SP, 5)
          CFI CFA_SP SP+-5
        ; Saved register size: 2
        ; Auto size: 0
// 1028   if (rxPayloadLen == 0)
        MOV       DPTR,#rxPayloadLen
        MOVX      A,@DPTR
        JNZ       ??rxPrepPayload_0
// 1029   {
// 1030     MAC_RADIO_SET_RX_THRESHOLD(MAC_FCS_FIELD_LEN);
        MOV       DPTR,#0x6194
        MOV       A,#0x1
        LCALL     ??Subroutine39_0 & 0xFFFF
// 1031     pFuncRxState = &rxFcsIsr;
// 1032   }
??CrossCallReturnLabel_76:
        MOV       A,#`??rxFcsIsr::?relay` & 0xff
        MOVX      @DPTR,A
        INC       DPTR
        MOV       A,#(`??rxFcsIsr::?relay` >> 8) & 0xff
        SJMP      ??rxPrepPayload_1
// 1033   else
// 1034   {
// 1035     rxNextLen = MIN(rxPayloadLen, MAX_PAYLOAD_BYTES_READ_PER_INTERRUPT);
??rxPrepPayload_0:
        CLR       C
        SUBB      A,#0x10
        JNC       ??rxPrepPayload_2
        MOVX      A,@DPTR
        MOV       DPTR,#rxNextLen
        SJMP      ??rxPrepPayload_3
??rxPrepPayload_2:
        MOV       DPTR,#rxNextLen
        MOV       A,#0x10
??rxPrepPayload_3:
        MOVX      @DPTR,A
// 1036     MAC_RADIO_SET_RX_THRESHOLD(rxNextLen);
        MOVX      A,@DPTR
        DEC       A
        MOV       DPTR,#0x6194
// 1037   }
??rxPrepPayload_1:
        SJMP      ?Subroutine0
// 1038 }
          CFI EndBlock cfiBlock136
// 1039 
// 1040 
// 1041 /*=================================================================================================
// 1042  * @fn          rxPayloadIsr
// 1043  *
// 1044  * @brief       Receive ISR state for reading out and storing the packet payload.
// 1045  *
// 1046  * @param       none
// 1047  *
// 1048  * @return      none
// 1049  *=================================================================================================
// 1050  */

        RSEG BANKED_CODE:HUGECODE:NOROOT(0)
// 1051 static void rxPayloadIsr(void)
rxPayloadIsr:
          CFI Block cfiBlock137 Using cfiCommon0
          CFI Function rxPayloadIsr
        CODE
// 1052 {
        FUNCALL rxPayloadIsr, macMemReadRxFifo
        LOCFRAME ISTACK, 2, STACK
        LOCFRAME PSTACK, 0, STACK
        LOCFRAME XSTACK, 0, STACK
        LOCFRAME IOVERLAY, 0, STATIC
        LOCFRAME DOVERLAY, 0, STATIC
        ARGFRAME ISTACK, 2, STACK
        ARGFRAME PSTACK, 0, STACK
        ARGFRAME XSTACK, 0, STACK
        ARGFRAME IOVERLAY, 0, STATIC
        ARGFRAME DOVERLAY, 0, STATIC
        FUNCALL rxPayloadIsr, rxPrepPayload
        LOCFRAME ISTACK, 2, STACK
        LOCFRAME PSTACK, 0, STACK
        LOCFRAME XSTACK, 0, STACK
        LOCFRAME IOVERLAY, 0, STATIC
        LOCFRAME DOVERLAY, 0, STATIC
        ARGFRAME ISTACK, 2, STACK
        ARGFRAME PSTACK, 0, STACK
        ARGFRAME XSTACK, 0, STACK
        ARGFRAME IOVERLAY, 0, STATIC
        ARGFRAME DOVERLAY, 0, STATIC
        PUSH      DPL
          CFI DPL0 Frame(CFA_SP, 4)
          CFI CFA_SP SP+-4
        PUSH      DPH
          CFI DPH0 Frame(CFA_SP, 5)
          CFI CFA_SP SP+-5
        ; Saved register size: 2
        ; Auto size: 0
// 1053   MAC_RADIO_READ_RX_FIFO(pRxBuf->mhr.p, rxNextLen);
        ; Setup parameters for call to function macMemReadRxFifo
        MOV       DPTR,#rxNextLen
        MOVX      A,@DPTR
        MOV       R1,A
        LCALL     ?Subroutine12 & 0xFFFF
??CrossCallReturnLabel_16:
        LCALL     `??macMemReadRxFifo::?relay`; Banked call to: macMemReadRxFifo
// 1054   pRxBuf->mhr.p += rxNextLen;
        MOV       DPTR,#pRxBuf
        MOVX      A,@DPTR
        ADD       A,#0x32
        MOV       R0,A
        INC       DPTR
        MOVX      A,@DPTR
        ADDC      A,#0x0
        MOV       R1,A
        MOV       DPTR,#rxNextLen
        LCALL     ?Subroutine10 & 0xFFFF
// 1055 
// 1056   rxPayloadLen -= rxNextLen;
??CrossCallReturnLabel_12:
        MOV       DPTR,#rxNextLen
        MOVX      A,@DPTR
        MOV       R0,A
        MOV       DPTR,#rxPayloadLen
        MOVX      A,@DPTR
        CLR       C
        SUBB      A,R0
        MOVX      @DPTR,A
// 1057 
// 1058   rxPrepPayload();
        ; Setup parameters for call to function rxPrepPayload
        LCALL     `??rxPrepPayload::?relay`; Banked call to: rxPrepPayload
// 1059 }
        SJMP      ??Subroutine35_0
          CFI EndBlock cfiBlock137

        RSEG BANKED_CODE:HUGECODE:NOROOT(0)
?Subroutine12:
          CFI Block cfiCond138 Using cfiCommon0
          CFI Function rxStartIsr
          CFI Conditional ??CrossCallReturnLabel_15
          CFI R6 load(1, XDATA, add(CFA_XSP16, literal(-16)))
          CFI VB load(1, XDATA, add(CFA_XSP16, literal(-15)))
          CFI V0 load(1, XDATA, add(CFA_XSP16, literal(-14)))
          CFI V1 load(1, XDATA, add(CFA_XSP16, literal(-13)))
          CFI V2 load(1, XDATA, add(CFA_XSP16, literal(-12)))
          CFI V3 load(1, XDATA, add(CFA_XSP16, literal(-11)))
          CFI V4 load(1, XDATA, add(CFA_XSP16, literal(-10)))
          CFI V5 load(1, XDATA, add(CFA_XSP16, literal(-9)))
          CFI V6 load(1, XDATA, add(CFA_XSP16, literal(-8)))
          CFI V7 load(1, XDATA, add(CFA_XSP16, literal(-7)))
          CFI R7 load(1, XDATA, add(CFA_XSP16, literal(-6)))
          CFI ?RET_LOW load(1, XDATA, add(CFA_XSP16, literal(-5)))
          CFI ?RET_HIGH load(1, XDATA, add(CFA_XSP16, literal(-4)))
          CFI ?BRET_EXT load(1, XDATA, add(CFA_XSP16, literal(-3)))
          CFI DPL0 load(1, XDATA, add(CFA_XSP16, literal(-2)))
          CFI DPH0 load(1, XDATA, add(CFA_XSP16, literal(-1)))
          CFI CFA_SP SP+-2
          CFI CFA_XSP16 add(XSP16, 21)
          CFI Block cfiCond139 Using cfiCommon0
          CFI (cfiCond139) Function rxPayloadIsr
          CFI (cfiCond139) Conditional ??CrossCallReturnLabel_16
          CFI (cfiCond139) DPL0 Frame(CFA_SP, 4)
          CFI (cfiCond139) DPH0 Frame(CFA_SP, 5)
          CFI (cfiCond139) CFA_SP SP+-7
          CFI Block cfiPicker140 Using cfiCommon1
          CFI (cfiPicker140) NoFunction
          CFI (cfiPicker140) Picker
        LCALL     ?Subroutine24 & 0xFFFF
??CrossCallReturnLabel_54:
        ADD       A,#0x32
        MOV       DPL,A
        CLR       A
        ADDC      A,R0
        MOV       DPH,A
        LCALL     ??Subroutine37_0 & 0xFFFF
??CrossCallReturnLabel_63:
        MOV       R3,A
        RET
          CFI EndBlock cfiCond138
          CFI EndBlock cfiCond139
          CFI EndBlock cfiPicker140

        RSEG BANKED_CODE:HUGECODE:NOROOT(0)
?Subroutine10:
          CFI Block cfiCond141 Using cfiCommon0
          CFI Function rxStartIsr
          CFI Conditional ??CrossCallReturnLabel_11
          CFI R6 load(1, XDATA, add(CFA_XSP16, literal(-16)))
          CFI VB load(1, XDATA, add(CFA_XSP16, literal(-15)))
          CFI V0 load(1, XDATA, add(CFA_XSP16, literal(-14)))
          CFI V1 load(1, XDATA, add(CFA_XSP16, literal(-13)))
          CFI V2 load(1, XDATA, add(CFA_XSP16, literal(-12)))
          CFI V3 load(1, XDATA, add(CFA_XSP16, literal(-11)))
          CFI V4 load(1, XDATA, add(CFA_XSP16, literal(-10)))
          CFI V5 load(1, XDATA, add(CFA_XSP16, literal(-9)))
          CFI V6 load(1, XDATA, add(CFA_XSP16, literal(-8)))
          CFI V7 load(1, XDATA, add(CFA_XSP16, literal(-7)))
          CFI R7 load(1, XDATA, add(CFA_XSP16, literal(-6)))
          CFI ?RET_LOW load(1, XDATA, add(CFA_XSP16, literal(-5)))
          CFI ?RET_HIGH load(1, XDATA, add(CFA_XSP16, literal(-4)))
          CFI ?BRET_EXT load(1, XDATA, add(CFA_XSP16, literal(-3)))
          CFI DPL0 load(1, XDATA, add(CFA_XSP16, literal(-2)))
          CFI DPH0 load(1, XDATA, add(CFA_XSP16, literal(-1)))
          CFI CFA_SP SP+-2
          CFI CFA_XSP16 add(XSP16, 18)
          CFI Block cfiCond142 Using cfiCommon0
          CFI (cfiCond142) Function rxPayloadIsr
          CFI (cfiCond142) Conditional ??CrossCallReturnLabel_12
          CFI (cfiCond142) DPL0 Frame(CFA_SP, 4)
          CFI (cfiCond142) DPH0 Frame(CFA_SP, 5)
          CFI (cfiCond142) CFA_SP SP+-7
          CFI Block cfiPicker143 Using cfiCommon1
          CFI (cfiPicker143) NoFunction
          CFI (cfiPicker143) Picker
        MOVX      A,@DPTR
        MOV       R2,A
        MOV       DPL,R0
        MOV       DPH,R1
        MOVX      A,@DPTR
        ADD       A,R2
        MOV       R2,A
        INC       DPTR
        MOVX      A,@DPTR
        ADDC      A,#0x0
        MOV       R3,A
        MOV       DPL,R0
        MOV       DPH,R1
        MOV       A,R2
        MOVX      @DPTR,A
        INC       DPTR
        MOV       A,R3
        MOVX      @DPTR,A
        RET
          CFI EndBlock cfiCond141
          CFI EndBlock cfiCond142
          CFI EndBlock cfiPicker143

        RSEG BANKED_CODE:HUGECODE:NOROOT(0)
?Subroutine0:
          CFI Block cfiBlock144 Using cfiCommon0
          CFI NoFunction
          CFI CFA_SP SP+-5
          CFI DPL0 Frame(CFA_SP, 4)
          CFI DPH0 Frame(CFA_SP, 5)
        MOVX      @DPTR,A
          CFI EndBlock cfiBlock144
        REQUIRE ??Subroutine35_0
        ; // Fall through to label ??Subroutine35_0

        RSEG BANKED_CODE:HUGECODE:NOROOT(0)
??Subroutine35_0:
          CFI Block cfiBlock145 Using cfiCommon0
          CFI NoFunction
          CFI CFA_SP SP+-5
          CFI DPL0 Frame(CFA_SP, 4)
          CFI DPH0 Frame(CFA_SP, 5)
        POP       DPH
          CFI CFA_SP SP+-4
          CFI DPH0 SameValue
        POP       DPL
          CFI CFA_SP SP+-3
          CFI DPL0 SameValue
        LJMP      ?BRET
          CFI EndBlock cfiBlock145
// 1060 
// 1061 
// 1062 /*=================================================================================================
// 1063  * @fn          rxFcsIsr
// 1064  *
// 1065  * @brief       Receive ISR state for handling the FCS.
// 1066  *
// 1067  * @param       none
// 1068  *
// 1069  * @return      none
// 1070  *=================================================================================================
// 1071  */

        RSEG BANKED_CODE:HUGECODE:NOROOT(0)
// 1072 static void rxFcsIsr(void)
rxFcsIsr:
          CFI Block cfiBlock146 Using cfiCommon0
          CFI Function rxFcsIsr
        CODE
// 1073 {
        FUNCALL rxFcsIsr, macMemReadRxFifo
        LOCFRAME ISTACK, 0, STACK
        LOCFRAME PSTACK, 0, STACK
        LOCFRAME XSTACK, 10, STACK
        LOCFRAME IOVERLAY, 0, STATIC
        LOCFRAME DOVERLAY, 0, STATIC
        ARGFRAME ISTACK, 0, STACK
        ARGFRAME PSTACK, 0, STACK
        ARGFRAME XSTACK, 10, STACK
        ARGFRAME IOVERLAY, 0, STATIC
        ARGFRAME DOVERLAY, 0, STATIC
        FUNCALL rxFcsIsr, macRxOffRequest
        LOCFRAME ISTACK, 0, STACK
        LOCFRAME PSTACK, 0, STACK
        LOCFRAME XSTACK, 10, STACK
        LOCFRAME IOVERLAY, 0, STATIC
        LOCFRAME DOVERLAY, 0, STATIC
        ARGFRAME ISTACK, 0, STACK
        ARGFRAME PSTACK, 0, STACK
        ARGFRAME XSTACK, 10, STACK
        ARGFRAME IOVERLAY, 0, STATIC
        ARGFRAME DOVERLAY, 0, STATIC
        FUNCALL rxFcsIsr, MAC_SrcMatchCheckResult
        LOCFRAME ISTACK, 0, STACK
        LOCFRAME PSTACK, 0, STACK
        LOCFRAME XSTACK, 10, STACK
        LOCFRAME IOVERLAY, 0, STATIC
        LOCFRAME DOVERLAY, 0, STATIC
        ARGFRAME ISTACK, 0, STACK
        ARGFRAME PSTACK, 0, STACK
        ARGFRAME XSTACK, 10, STACK
        ARGFRAME IOVERLAY, 0, STATIC
        ARGFRAME DOVERLAY, 0, STATIC
        FUNCALL rxFcsIsr, macRadioComputeLQI
        LOCFRAME ISTACK, 0, STACK
        LOCFRAME PSTACK, 0, STACK
        LOCFRAME XSTACK, 10, STACK
        LOCFRAME IOVERLAY, 0, STATIC
        LOCFRAME DOVERLAY, 0, STATIC
        ARGFRAME ISTACK, 0, STACK
        ARGFRAME PSTACK, 0, STACK
        ARGFRAME XSTACK, 10, STACK
        ARGFRAME IOVERLAY, 0, STATIC
        ARGFRAME DOVERLAY, 0, STATIC
        FUNCALL rxFcsIsr, macRxCompleteCallback
        LOCFRAME ISTACK, 0, STACK
        LOCFRAME PSTACK, 0, STACK
        LOCFRAME XSTACK, 10, STACK
        LOCFRAME IOVERLAY, 0, STATIC
        LOCFRAME DOVERLAY, 0, STATIC
        ARGFRAME ISTACK, 0, STACK
        ARGFRAME PSTACK, 0, STACK
        ARGFRAME XSTACK, 10, STACK
        ARGFRAME IOVERLAY, 0, STATIC
        ARGFRAME DOVERLAY, 0, STATIC
        FUNCALL rxFcsIsr, macDataRxMemFree
        LOCFRAME ISTACK, 0, STACK
        LOCFRAME PSTACK, 0, STACK
        LOCFRAME XSTACK, 10, STACK
        LOCFRAME IOVERLAY, 0, STATIC
        LOCFRAME DOVERLAY, 0, STATIC
        ARGFRAME ISTACK, 0, STACK
        ARGFRAME PSTACK, 0, STACK
        ARGFRAME XSTACK, 10, STACK
        ARGFRAME IOVERLAY, 0, STATIC
        ARGFRAME DOVERLAY, 0, STATIC
        FUNCALL rxFcsIsr, rxDone
        LOCFRAME ISTACK, 0, STACK
        LOCFRAME PSTACK, 0, STACK
        LOCFRAME XSTACK, 10, STACK
        LOCFRAME IOVERLAY, 0, STATIC
        LOCFRAME DOVERLAY, 0, STATIC
        ARGFRAME ISTACK, 0, STACK
        ARGFRAME PSTACK, 0, STACK
        ARGFRAME XSTACK, 10, STACK
        ARGFRAME IOVERLAY, 0, STATIC
        ARGFRAME DOVERLAY, 0, STATIC
        REQUIRE ?V0
        REQUIRE ?V1
        MOV       A,#-0xa
        LCALL     ?BANKED_ENTER_XDATA
          CFI DPH0 load(1, XDATA, add(CFA_XSP16, literal(-1)))
          CFI DPL0 load(1, XDATA, add(CFA_XSP16, literal(-2)))
          CFI ?BRET_EXT load(1, XDATA, add(CFA_XSP16, literal(-3)))
          CFI ?RET_HIGH load(1, XDATA, add(CFA_XSP16, literal(-4)))
          CFI ?RET_LOW load(1, XDATA, add(CFA_XSP16, literal(-5)))
          CFI R7 load(1, XDATA, add(CFA_XSP16, literal(-6)))
          CFI V1 load(1, XDATA, add(CFA_XSP16, literal(-7)))
          CFI V0 load(1, XDATA, add(CFA_XSP16, literal(-8)))
          CFI VB load(1, XDATA, add(CFA_XSP16, literal(-9)))
          CFI R6 load(1, XDATA, add(CFA_XSP16, literal(-10)))
          CFI CFA_SP SP+0
          CFI CFA_XSP16 add(XSP16, 10)
        ; Saved register size: 10
        ; Auto size: 0
// 1074   uint8 crcOK;
// 1075   uint8 ackWithPending = 0;
        MOV       R6,#0x0
// 1076 
// 1077   /* read FCS, rxBuf is now available storage */
// 1078   MAC_RADIO_READ_RX_FIFO(rxBuf, MAC_FCS_FIELD_LEN);
        ; Setup parameters for call to function macMemReadRxFifo
        MOV       R1,#0x2
        MOV       R2,#rxBuf & 0xff
        MOV       R3,#(rxBuf >> 8) & 0xff
        LCALL     `??macMemReadRxFifo::?relay`; Banked call to: macMemReadRxFifo
// 1079 
// 1080   /*
// 1081    *  The FCS has actually been replaced within the radio by a proprietary version of the FCS.
// 1082    *  This proprietary FCS is two bytes (same length as the real FCS) and contains:
// 1083    *    1) the RSSI value
// 1084    *    2) the average correlation value (used for LQI)
// 1085    *    3) a CRC passed bit
// 1086    */
// 1087 
// 1088   /* save the "CRC-is-OK" status */
// 1089   crcOK = PROPRIETARY_FCS_CRC_OK(rxBuf);
        MOV       DPTR,#rxBuf + 1
        MOVX      A,@DPTR
        ANL       A,#0x80
        MOV       ?V1,A
// 1090 
// 1091   /*
// 1092    *  See if the frame should be passed up to high-level MAC.  If the CRC is OK, the
// 1093    *  the frame is always passed up.  Frames with a bad CRC are also passed up *if*
// 1094    *  a special variant of promiscuous mode is active.
// 1095    */
// 1096   if (crcOK || (rxPromiscuousMode == MAC_PROMISCUOUS_MODE_WITH_BAD_CRC))
        JNZ       ??rxFcsIsr_0
        MOV       DPTR,#rxPromiscuousMode
        MOVX      A,@DPTR
        XRL       A,#0x2
        JZ        $+5
        LJMP      ??rxFcsIsr_1 & 0xFFFF
// 1097   {
// 1098     int8 rssiDbm;
// 1099     uint8 corr;
// 1100 
// 1101 #ifdef PACKET_FILTER_STATS
// 1102     rxCrcSuccess++;
// 1103 #endif /* PACKET_FILTER_STATS */
// 1104 
// 1105     /*
// 1106      *  As power saving optimization, set state variable to indicate physical receive
// 1107      *  has completed and then request turning of the receiver.  This means the receiver
// 1108      *  can be off (if other conditions permit) during execution of the callback function.
// 1109      *
// 1110      *  The receiver will be requested to turn off once again at the end of the receive
// 1111      *  logic.  There is no harm in doing this.
// 1112      */
// 1113     macRxActive = MAC_RX_ACTIVE_DONE;
??rxFcsIsr_0:
        MOV       DPTR,#macRxActive
        MOV       A,#0x2
        MOVX      @DPTR,A
// 1114     macRxOffRequest();
        ; Setup parameters for call to function macRxOffRequest
        LCALL     `??macRxOffRequest::?relay`; Banked call to: macRxOffRequest
// 1115 
// 1116     /* decode RSSI and correlation values */
// 1117     rssiDbm = PROPRIETARY_FCS_RSSI(rxBuf) + MAC_RADIO_RSSI_OFFSET;
        MOV       DPTR,#rxBuf
        MOVX      A,@DPTR
        ADD       A,#-0x49
        MOV       ?V0,A
// 1118     MAC_RADIO_RSSI_LNA_OFFSET(rssiDbm);
// 1119     corr = PROPRIETARY_FCS_CORRELATION_VALUE(rxBuf);
        INC       DPTR
        MOVX      A,@DPTR
        ANL       A,#0x7f
        MOV       R7,A
// 1120 
// 1121     /* Read the source matching result back */
// 1122     if( macSrcMatchIsEnabled && MAC_RADIO_SRC_MATCH_RESULT() )
        MOV       DPTR,#macSrcMatchIsEnabled
        MOVX      A,@DPTR
        JZ        ??rxFcsIsr_2
        ; Setup parameters for call to function MAC_SrcMatchCheckResult
        LCALL     `??MAC_SrcMatchCheckResult::?relay`; Banked call to: MAC_SrcMatchCheckResult
        MOV       A,R1
        JZ        ??rxFcsIsr_2
// 1123     {
// 1124       /* This result will not overwrite the previously determined pRxBuf->internal.flags */
// 1125       ackWithPending = MAC_RX_FLAG_ACK_PENDING;
        MOV       R6,#0x4
// 1126     }
// 1127 
// 1128     /* record parameters that get passed up to high-level */
// 1129     pRxBuf->internal.flags |= ( crcOK | ackWithPending );
??rxFcsIsr_2:
        MOV       A,?V1
        ORL       A,R6
        MOV       R0,A
        MOV       DPTR,#pRxBuf
        MOVX      A,@DPTR
        MOV       R1,A
        INC       DPTR
        MOVX      A,@DPTR
        XCH       A,R1
        ADD       A,#0x6
        MOV       DPL,A
        CLR       A
        ADDC      A,R1
        MOV       DPH,A
        MOVX      A,@DPTR
        ORL       A,R0
        MOVX      @DPTR,A
// 1130     pRxBuf->mac.mpduLinkQuality = macRadioComputeLQI(rssiDbm, corr);
        ; Setup parameters for call to function macRadioComputeLQI
        MOV       A,R7
        MOV       R2,A
        MOV       R1,?V0
        LCALL     `??macRadioComputeLQI::?relay`; Banked call to: macRadioComputeLQI
        LCALL     ?Subroutine16 & 0xFFFF
??CrossCallReturnLabel_52:
        ADD       A,#0x2e
        MOV       DPL,A
        CLR       A
        ADDC      A,R0
        MOV       DPH,A
        MOV       A,R1
        LCALL     ??Subroutine32_0 & 0xFFFF
// 1131     pRxBuf->mac.rssi = rssiDbm;
??CrossCallReturnLabel_44:
        ADD       A,#0x30
        LCALL     ?Subroutine3 & 0xFFFF
// 1132     pRxBuf->mac.correlation = corr;
??CrossCallReturnLabel_43:
        ADD       A,#0x2f
        MOV       DPL,A
        CLR       A
        ADDC      A,R0
        MOV       DPH,A
        MOV       A,R7
        MOVX      @DPTR,A
// 1133 
// 1134     /* set the MSDU pointer to point at start of data */
// 1135     pRxBuf->mhr.p   = (uint8 *) (pRxBuf + 1);
        LCALL     ?Subroutine14 & 0xFFFF
??CrossCallReturnLabel_18:
        LCALL     ?Subroutine8 & 0xFFFF
// 1136     pRxBuf->msdu.p += (pRxBuf->mhr.len - pRxBuf->msdu.len);
??CrossCallReturnLabel_41:
        MOV       DPTR,#pRxBuf
        MOVX      A,@DPTR
        ADD       A,#0x2
        LCALL     ?Subroutine11 & 0xFFFF
??CrossCallReturnLabel_14:
        MOVX      A,@DPTR
        MOV       R2,A
        MOV       DPTR,#pRxBuf
        MOVX      A,@DPTR
        MOV       R4,A
        INC       DPTR
        MOVX      A,@DPTR
        MOV       DPH,A
        MOV       DPL,R4
        INC       DPTR
        INC       DPTR
        INC       DPTR
        INC       DPTR
        MOVX      A,@DPTR
        MOV       R4,A
        MOV       A,R2
        CLR       C
        SUBB      A,R4
        MOV       R2,A
        SUBB      A,0xE0 /* A   */
        MOV       R3,A
        MOV       DPL,R0
        MOV       DPH,R1
        MOVX      A,@DPTR
        ADD       A,R2
        MOV       R2,A
        INC       DPTR
        MOVX      A,@DPTR
        ADDC      A,R3
        MOV       R3,A
        MOV       DPL,R0
        MOV       DPH,R1
        MOV       A,R2
        MOVX      @DPTR,A
        INC       DPTR
        MOV       A,R3
        LCALL     ?Subroutine7 & 0xFFFF
// 1137 
// 1138     /* finally... execute callback function */
// 1139     macRxCompleteCallback(pRxBuf);
??CrossCallReturnLabel_7:
        MOV       R3,A
        LCALL     `??macRxCompleteCallback::?relay`; Banked call to: macRxCompleteCallback
// 1140     pRxBuf = NULL; /* needed to indicate buffer is no longer allocated */
        SJMP      ??rxFcsIsr_3
// 1141   }
// 1142   else
// 1143   {
// 1144 #ifdef PACKET_FILTER_STATS
// 1145     rxCrcFailure++;
// 1146 #endif /* PACKET_FILTER_STATS */
// 1147 
// 1148     /*
// 1149      *  The CRC is bad so no ACK was sent.  Cancel any callback and clear the flag.
// 1150      *  (It's OK to cancel the outgoing ACK even if an ACK was not requested.  It's
// 1151      *  slightly more efficient to do so.)
// 1152      */
// 1153     MAC_RADIO_CANCEL_ACK_TX_DONE_CALLBACK();
??rxFcsIsr_1:
        LCALL     ?Subroutine19 & 0xFFFF
// 1154     macRxOutgoingAckFlag = 0;
// 1155 
// 1156     /* the CRC failed so the packet must be discarded */
// 1157     MEM_FREE((uint8 **)&pRxBuf);
??CrossCallReturnLabel_26:
        ; Setup parameters for call to function macDataRxMemFree
        MOV       R2,#pRxBuf & 0xff
        MOV       R3,#(pRxBuf >> 8) & 0xff
        LCALL     `??macDataRxMemFree::?relay`; Banked call to: macDataRxMemFree
// 1158     pRxBuf = NULL;  /* needed to indicate buffer is no longer allocated */
??rxFcsIsr_3:
        MOV       DPTR,#pRxBuf
        CLR       A
        MOVX      @DPTR,A
        INC       DPTR
        MOVX      @DPTR,A
// 1159   }
// 1160 
// 1161   /* reset threshold level, reset receive state, and complete receive logic */
// 1162   MAC_RADIO_SET_RX_THRESHOLD(RX_THRESHOLD_START_LEN);
        LCALL     ?Subroutine2 & 0xFFFF
// 1163   pFuncRxState = &rxStartIsr;
// 1164   rxDone();
??CrossCallReturnLabel_69:
        ; Setup parameters for call to function rxDone
        LCALL     `??rxDone::?relay`; Banked call to: rxDone
// 1165 }
        LJMP      ?Subroutine1 & 0xFFFF
          CFI EndBlock cfiBlock146

        RSEG BANKED_CODE:HUGECODE:NOROOT(0)
?Subroutine19:
          CFI Block cfiCond147 Using cfiCommon0
          CFI Function rxStartIsr
          CFI Conditional ??CrossCallReturnLabel_25
          CFI R6 load(1, XDATA, add(CFA_XSP16, literal(-16)))
          CFI VB load(1, XDATA, add(CFA_XSP16, literal(-15)))
          CFI V0 load(1, XDATA, add(CFA_XSP16, literal(-14)))
          CFI V1 load(1, XDATA, add(CFA_XSP16, literal(-13)))
          CFI V2 load(1, XDATA, add(CFA_XSP16, literal(-12)))
          CFI V3 load(1, XDATA, add(CFA_XSP16, literal(-11)))
          CFI V4 load(1, XDATA, add(CFA_XSP16, literal(-10)))
          CFI V5 load(1, XDATA, add(CFA_XSP16, literal(-9)))
          CFI V6 load(1, XDATA, add(CFA_XSP16, literal(-8)))
          CFI V7 load(1, XDATA, add(CFA_XSP16, literal(-7)))
          CFI R7 load(1, XDATA, add(CFA_XSP16, literal(-6)))
          CFI ?RET_LOW load(1, XDATA, add(CFA_XSP16, literal(-5)))
          CFI ?RET_HIGH load(1, XDATA, add(CFA_XSP16, literal(-4)))
          CFI ?BRET_EXT load(1, XDATA, add(CFA_XSP16, literal(-3)))
          CFI DPL0 load(1, XDATA, add(CFA_XSP16, literal(-2)))
          CFI DPH0 load(1, XDATA, add(CFA_XSP16, literal(-1)))
          CFI CFA_SP SP+-2
          CFI CFA_XSP16 add(XSP16, 18)
          CFI Block cfiCond148 Using cfiCommon0
          CFI (cfiCond148) Function rxFcsIsr
          CFI (cfiCond148) Conditional ??CrossCallReturnLabel_26
          CFI (cfiCond148) R6 load(1, XDATA, add(CFA_XSP16, literal(-10)))
          CFI (cfiCond148) VB load(1, XDATA, add(CFA_XSP16, literal(-9)))
          CFI (cfiCond148) V0 load(1, XDATA, add(CFA_XSP16, literal(-8)))
          CFI (cfiCond148) V1 load(1, XDATA, add(CFA_XSP16, literal(-7)))
          CFI (cfiCond148) R7 load(1, XDATA, add(CFA_XSP16, literal(-6)))
          CFI (cfiCond148) ?RET_LOW load(1, XDATA, add(CFA_XSP16, literal(-5)))
          CFI (cfiCond148) ?RET_HIGH load(1, XDATA, add(CFA_XSP16, literal(-4)))
          CFI (cfiCond148) ?BRET_EXT load(1, XDATA, add(CFA_XSP16, literal(-3)))
          CFI (cfiCond148) DPL0 load(1, XDATA, add(CFA_XSP16, literal(-2)))
          CFI (cfiCond148) DPH0 load(1, XDATA, add(CFA_XSP16, literal(-1)))
          CFI (cfiCond148) CFA_SP SP+-2
          CFI (cfiCond148) CFA_XSP16 add(XSP16, 10)
          CFI Block cfiPicker149 Using cfiCommon1
          CFI (cfiPicker149) NoFunction
          CFI (cfiPicker149) Picker
        MOV       DPTR,#0x61a4
        MOVX      A,@DPTR
        CLR       0xE0 /* A   */.0
        MOVX      @DPTR,A
        MOV       DPTR,#macRxOutgoingAckFlag
        CLR       A
        MOVX      @DPTR,A
        RET
          CFI EndBlock cfiCond147
          CFI EndBlock cfiCond148
          CFI EndBlock cfiPicker149

        RSEG BANKED_CODE:HUGECODE:NOROOT(0)
?Subroutine14:
          CFI Block cfiCond150 Using cfiCommon0
          CFI Function rxStartIsr
          CFI Conditional ??CrossCallReturnLabel_17
          CFI R6 load(1, XDATA, add(CFA_XSP16, literal(-16)))
          CFI VB load(1, XDATA, add(CFA_XSP16, literal(-15)))
          CFI V0 load(1, XDATA, add(CFA_XSP16, literal(-14)))
          CFI V1 load(1, XDATA, add(CFA_XSP16, literal(-13)))
          CFI V2 load(1, XDATA, add(CFA_XSP16, literal(-12)))
          CFI V3 load(1, XDATA, add(CFA_XSP16, literal(-11)))
          CFI V4 load(1, XDATA, add(CFA_XSP16, literal(-10)))
          CFI V5 load(1, XDATA, add(CFA_XSP16, literal(-9)))
          CFI V6 load(1, XDATA, add(CFA_XSP16, literal(-8)))
          CFI V7 load(1, XDATA, add(CFA_XSP16, literal(-7)))
          CFI R7 load(1, XDATA, add(CFA_XSP16, literal(-6)))
          CFI ?RET_LOW load(1, XDATA, add(CFA_XSP16, literal(-5)))
          CFI ?RET_HIGH load(1, XDATA, add(CFA_XSP16, literal(-4)))
          CFI ?BRET_EXT load(1, XDATA, add(CFA_XSP16, literal(-3)))
          CFI DPL0 load(1, XDATA, add(CFA_XSP16, literal(-2)))
          CFI DPH0 load(1, XDATA, add(CFA_XSP16, literal(-1)))
          CFI CFA_SP SP+-2
          CFI CFA_XSP16 add(XSP16, 18)
          CFI Block cfiCond151 Using cfiCommon0
          CFI (cfiCond151) Function rxFcsIsr
          CFI (cfiCond151) Conditional ??CrossCallReturnLabel_18
          CFI (cfiCond151) R6 load(1, XDATA, add(CFA_XSP16, literal(-10)))
          CFI (cfiCond151) VB load(1, XDATA, add(CFA_XSP16, literal(-9)))
          CFI (cfiCond151) V0 load(1, XDATA, add(CFA_XSP16, literal(-8)))
          CFI (cfiCond151) V1 load(1, XDATA, add(CFA_XSP16, literal(-7)))
          CFI (cfiCond151) R7 load(1, XDATA, add(CFA_XSP16, literal(-6)))
          CFI (cfiCond151) ?RET_LOW load(1, XDATA, add(CFA_XSP16, literal(-5)))
          CFI (cfiCond151) ?RET_HIGH load(1, XDATA, add(CFA_XSP16, literal(-4)))
          CFI (cfiCond151) ?BRET_EXT load(1, XDATA, add(CFA_XSP16, literal(-3)))
          CFI (cfiCond151) DPL0 load(1, XDATA, add(CFA_XSP16, literal(-2)))
          CFI (cfiCond151) DPH0 load(1, XDATA, add(CFA_XSP16, literal(-1)))
          CFI (cfiCond151) CFA_SP SP+-2
          CFI (cfiCond151) CFA_XSP16 add(XSP16, 10)
          CFI Block cfiPicker152 Using cfiCommon1
          CFI (cfiPicker152) NoFunction
          CFI (cfiPicker152) Picker
        MOV       DPTR,#pRxBuf
        MOVX      A,@DPTR
        ADD       A,#0x35
        LCALL     ?Subroutine23 & 0xFFFF
??CrossCallReturnLabel_30:
        RET
          CFI EndBlock cfiCond150
          CFI EndBlock cfiCond151
          CFI EndBlock cfiPicker152

        RSEG BANKED_CODE:HUGECODE:NOROOT(0)
?Subroutine23:
          CFI Block cfiCond153 Using cfiCommon0
          CFI Function rxStartIsr
          CFI Conditional ??CrossCallReturnLabel_30, ??CrossCallReturnLabel_17
          CFI R6 load(1, XDATA, add(CFA_XSP16, literal(-16)))
          CFI VB load(1, XDATA, add(CFA_XSP16, literal(-15)))
          CFI V0 load(1, XDATA, add(CFA_XSP16, literal(-14)))
          CFI V1 load(1, XDATA, add(CFA_XSP16, literal(-13)))
          CFI V2 load(1, XDATA, add(CFA_XSP16, literal(-12)))
          CFI V3 load(1, XDATA, add(CFA_XSP16, literal(-11)))
          CFI V4 load(1, XDATA, add(CFA_XSP16, literal(-10)))
          CFI V5 load(1, XDATA, add(CFA_XSP16, literal(-9)))
          CFI V6 load(1, XDATA, add(CFA_XSP16, literal(-8)))
          CFI V7 load(1, XDATA, add(CFA_XSP16, literal(-7)))
          CFI R7 load(1, XDATA, add(CFA_XSP16, literal(-6)))
          CFI ?RET_LOW load(1, XDATA, add(CFA_XSP16, literal(-5)))
          CFI ?RET_HIGH load(1, XDATA, add(CFA_XSP16, literal(-4)))
          CFI ?BRET_EXT load(1, XDATA, add(CFA_XSP16, literal(-3)))
          CFI DPL0 load(1, XDATA, add(CFA_XSP16, literal(-2)))
          CFI DPH0 load(1, XDATA, add(CFA_XSP16, literal(-1)))
          CFI CFA_SP SP+-4
          CFI CFA_XSP16 add(XSP16, 18)
          CFI Block cfiCond154 Using cfiCommon0
          CFI (cfiCond154) Function rxFcsIsr
          CFI (cfiCond154) Conditional ??CrossCallReturnLabel_30, ??CrossCallReturnLabel_18
          CFI (cfiCond154) R6 load(1, XDATA, add(CFA_XSP16, literal(-10)))
          CFI (cfiCond154) VB load(1, XDATA, add(CFA_XSP16, literal(-9)))
          CFI (cfiCond154) V0 load(1, XDATA, add(CFA_XSP16, literal(-8)))
          CFI (cfiCond154) V1 load(1, XDATA, add(CFA_XSP16, literal(-7)))
          CFI (cfiCond154) R7 load(1, XDATA, add(CFA_XSP16, literal(-6)))
          CFI (cfiCond154) ?RET_LOW load(1, XDATA, add(CFA_XSP16, literal(-5)))
          CFI (cfiCond154) ?RET_HIGH load(1, XDATA, add(CFA_XSP16, literal(-4)))
          CFI (cfiCond154) ?BRET_EXT load(1, XDATA, add(CFA_XSP16, literal(-3)))
          CFI (cfiCond154) DPL0 load(1, XDATA, add(CFA_XSP16, literal(-2)))
          CFI (cfiCond154) DPH0 load(1, XDATA, add(CFA_XSP16, literal(-1)))
          CFI (cfiCond154) CFA_SP SP+-4
          CFI (cfiCond154) CFA_XSP16 add(XSP16, 10)
          CFI Block cfiCond155 Using cfiCommon0
          CFI (cfiCond155) Function rxStartIsr
          CFI (cfiCond155) Conditional ??CrossCallReturnLabel_29, ??CrossCallReturnLabel_13
          CFI (cfiCond155) R6 load(1, XDATA, add(CFA_XSP16, literal(-16)))
          CFI (cfiCond155) VB load(1, XDATA, add(CFA_XSP16, literal(-15)))
          CFI (cfiCond155) V0 load(1, XDATA, add(CFA_XSP16, literal(-14)))
          CFI (cfiCond155) V1 load(1, XDATA, add(CFA_XSP16, literal(-13)))
          CFI (cfiCond155) V2 load(1, XDATA, add(CFA_XSP16, literal(-12)))
          CFI (cfiCond155) V3 load(1, XDATA, add(CFA_XSP16, literal(-11)))
          CFI (cfiCond155) V4 load(1, XDATA, add(CFA_XSP16, literal(-10)))
          CFI (cfiCond155) V5 load(1, XDATA, add(CFA_XSP16, literal(-9)))
          CFI (cfiCond155) V6 load(1, XDATA, add(CFA_XSP16, literal(-8)))
          CFI (cfiCond155) V7 load(1, XDATA, add(CFA_XSP16, literal(-7)))
          CFI (cfiCond155) R7 load(1, XDATA, add(CFA_XSP16, literal(-6)))
          CFI (cfiCond155) ?RET_LOW load(1, XDATA, add(CFA_XSP16, literal(-5)))
          CFI (cfiCond155) ?RET_HIGH load(1, XDATA, add(CFA_XSP16, literal(-4)))
          CFI (cfiCond155) ?BRET_EXT load(1, XDATA, add(CFA_XSP16, literal(-3)))
          CFI (cfiCond155) DPL0 load(1, XDATA, add(CFA_XSP16, literal(-2)))
          CFI (cfiCond155) DPH0 load(1, XDATA, add(CFA_XSP16, literal(-1)))
          CFI (cfiCond155) CFA_SP SP+-4
          CFI (cfiCond155) CFA_XSP16 add(XSP16, 18)
          CFI Block cfiCond156 Using cfiCommon0
          CFI (cfiCond156) Function rxFcsIsr
          CFI (cfiCond156) Conditional ??CrossCallReturnLabel_29, ??CrossCallReturnLabel_14
          CFI (cfiCond156) R6 load(1, XDATA, add(CFA_XSP16, literal(-10)))
          CFI (cfiCond156) VB load(1, XDATA, add(CFA_XSP16, literal(-9)))
          CFI (cfiCond156) V0 load(1, XDATA, add(CFA_XSP16, literal(-8)))
          CFI (cfiCond156) V1 load(1, XDATA, add(CFA_XSP16, literal(-7)))
          CFI (cfiCond156) R7 load(1, XDATA, add(CFA_XSP16, literal(-6)))
          CFI (cfiCond156) ?RET_LOW load(1, XDATA, add(CFA_XSP16, literal(-5)))
          CFI (cfiCond156) ?RET_HIGH load(1, XDATA, add(CFA_XSP16, literal(-4)))
          CFI (cfiCond156) ?BRET_EXT load(1, XDATA, add(CFA_XSP16, literal(-3)))
          CFI (cfiCond156) DPL0 load(1, XDATA, add(CFA_XSP16, literal(-2)))
          CFI (cfiCond156) DPH0 load(1, XDATA, add(CFA_XSP16, literal(-1)))
          CFI (cfiCond156) CFA_SP SP+-4
          CFI (cfiCond156) CFA_XSP16 add(XSP16, 10)
          CFI Block cfiPicker157 Using cfiCommon1
          CFI (cfiPicker157) NoFunction
          CFI (cfiPicker157) Picker
        MOV       R0,A
        INC       DPTR
        MOVX      A,@DPTR
        ADDC      A,#0x0
        LCALL     ?Subroutine27 & 0xFFFF
??CrossCallReturnLabel_68:
        RET
          CFI EndBlock cfiCond153
          CFI EndBlock cfiCond154
          CFI EndBlock cfiCond155
          CFI EndBlock cfiCond156
          CFI EndBlock cfiPicker157

        RSEG BANKED_CODE:HUGECODE:NOROOT(0)
?Subroutine27:
          CFI Block cfiCond158 Using cfiCommon0
          CFI Function rxAddrIsr
          CFI Conditional ??CrossCallReturnLabel_67
          CFI R6 load(1, XDATA, add(CFA_XSP16, literal(-10)))
          CFI VB load(1, XDATA, add(CFA_XSP16, literal(-9)))
          CFI V0 load(1, XDATA, add(CFA_XSP16, literal(-8)))
          CFI V1 load(1, XDATA, add(CFA_XSP16, literal(-7)))
          CFI R7 load(1, XDATA, add(CFA_XSP16, literal(-6)))
          CFI ?RET_LOW load(1, XDATA, add(CFA_XSP16, literal(-5)))
          CFI ?RET_HIGH load(1, XDATA, add(CFA_XSP16, literal(-4)))
          CFI ?BRET_EXT load(1, XDATA, add(CFA_XSP16, literal(-3)))
          CFI DPL0 load(1, XDATA, add(CFA_XSP16, literal(-2)))
          CFI DPH0 load(1, XDATA, add(CFA_XSP16, literal(-1)))
          CFI CFA_SP SP+-2
          CFI CFA_XSP16 add(XSP16, 30)
          CFI Block cfiCond159 Using cfiCommon0
          CFI (cfiCond159) Function rxStartIsr
          CFI (cfiCond159) Conditional ??CrossCallReturnLabel_68, ??CrossCallReturnLabel_30, ??CrossCallReturnLabel_17
          CFI (cfiCond159) R6 load(1, XDATA, add(CFA_XSP16, literal(-16)))
          CFI (cfiCond159) VB load(1, XDATA, add(CFA_XSP16, literal(-15)))
          CFI (cfiCond159) V0 load(1, XDATA, add(CFA_XSP16, literal(-14)))
          CFI (cfiCond159) V1 load(1, XDATA, add(CFA_XSP16, literal(-13)))
          CFI (cfiCond159) V2 load(1, XDATA, add(CFA_XSP16, literal(-12)))
          CFI (cfiCond159) V3 load(1, XDATA, add(CFA_XSP16, literal(-11)))
          CFI (cfiCond159) V4 load(1, XDATA, add(CFA_XSP16, literal(-10)))
          CFI (cfiCond159) V5 load(1, XDATA, add(CFA_XSP16, literal(-9)))
          CFI (cfiCond159) V6 load(1, XDATA, add(CFA_XSP16, literal(-8)))
          CFI (cfiCond159) V7 load(1, XDATA, add(CFA_XSP16, literal(-7)))
          CFI (cfiCond159) R7 load(1, XDATA, add(CFA_XSP16, literal(-6)))
          CFI (cfiCond159) ?RET_LOW load(1, XDATA, add(CFA_XSP16, literal(-5)))
          CFI (cfiCond159) ?RET_HIGH load(1, XDATA, add(CFA_XSP16, literal(-4)))
          CFI (cfiCond159) ?BRET_EXT load(1, XDATA, add(CFA_XSP16, literal(-3)))
          CFI (cfiCond159) DPL0 load(1, XDATA, add(CFA_XSP16, literal(-2)))
          CFI (cfiCond159) DPH0 load(1, XDATA, add(CFA_XSP16, literal(-1)))
          CFI (cfiCond159) CFA_SP SP+-6
          CFI (cfiCond159) CFA_XSP16 add(XSP16, 18)
          CFI Block cfiCond160 Using cfiCommon0
          CFI (cfiCond160) Function rxFcsIsr
          CFI (cfiCond160) Conditional ??CrossCallReturnLabel_68, ??CrossCallReturnLabel_30, ??CrossCallReturnLabel_18
          CFI (cfiCond160) R6 load(1, XDATA, add(CFA_XSP16, literal(-10)))
          CFI (cfiCond160) VB load(1, XDATA, add(CFA_XSP16, literal(-9)))
          CFI (cfiCond160) V0 load(1, XDATA, add(CFA_XSP16, literal(-8)))
          CFI (cfiCond160) V1 load(1, XDATA, add(CFA_XSP16, literal(-7)))
          CFI (cfiCond160) R7 load(1, XDATA, add(CFA_XSP16, literal(-6)))
          CFI (cfiCond160) ?RET_LOW load(1, XDATA, add(CFA_XSP16, literal(-5)))
          CFI (cfiCond160) ?RET_HIGH load(1, XDATA, add(CFA_XSP16, literal(-4)))
          CFI (cfiCond160) ?BRET_EXT load(1, XDATA, add(CFA_XSP16, literal(-3)))
          CFI (cfiCond160) DPL0 load(1, XDATA, add(CFA_XSP16, literal(-2)))
          CFI (cfiCond160) DPH0 load(1, XDATA, add(CFA_XSP16, literal(-1)))
          CFI (cfiCond160) CFA_SP SP+-6
          CFI (cfiCond160) CFA_XSP16 add(XSP16, 10)
          CFI Block cfiCond161 Using cfiCommon0
          CFI (cfiCond161) Function rxStartIsr
          CFI (cfiCond161) Conditional ??CrossCallReturnLabel_68, ??CrossCallReturnLabel_29, ??CrossCallReturnLabel_13
          CFI (cfiCond161) R6 load(1, XDATA, add(CFA_XSP16, literal(-16)))
          CFI (cfiCond161) VB load(1, XDATA, add(CFA_XSP16, literal(-15)))
          CFI (cfiCond161) V0 load(1, XDATA, add(CFA_XSP16, literal(-14)))
          CFI (cfiCond161) V1 load(1, XDATA, add(CFA_XSP16, literal(-13)))
          CFI (cfiCond161) V2 load(1, XDATA, add(CFA_XSP16, literal(-12)))
          CFI (cfiCond161) V3 load(1, XDATA, add(CFA_XSP16, literal(-11)))
          CFI (cfiCond161) V4 load(1, XDATA, add(CFA_XSP16, literal(-10)))
          CFI (cfiCond161) V5 load(1, XDATA, add(CFA_XSP16, literal(-9)))
          CFI (cfiCond161) V6 load(1, XDATA, add(CFA_XSP16, literal(-8)))
          CFI (cfiCond161) V7 load(1, XDATA, add(CFA_XSP16, literal(-7)))
          CFI (cfiCond161) R7 load(1, XDATA, add(CFA_XSP16, literal(-6)))
          CFI (cfiCond161) ?RET_LOW load(1, XDATA, add(CFA_XSP16, literal(-5)))
          CFI (cfiCond161) ?RET_HIGH load(1, XDATA, add(CFA_XSP16, literal(-4)))
          CFI (cfiCond161) ?BRET_EXT load(1, XDATA, add(CFA_XSP16, literal(-3)))
          CFI (cfiCond161) DPL0 load(1, XDATA, add(CFA_XSP16, literal(-2)))
          CFI (cfiCond161) DPH0 load(1, XDATA, add(CFA_XSP16, literal(-1)))
          CFI (cfiCond161) CFA_SP SP+-6
          CFI (cfiCond161) CFA_XSP16 add(XSP16, 18)
          CFI Block cfiCond162 Using cfiCommon0
          CFI (cfiCond162) Function rxFcsIsr
          CFI (cfiCond162) Conditional ??CrossCallReturnLabel_68, ??CrossCallReturnLabel_29, ??CrossCallReturnLabel_14
          CFI (cfiCond162) R6 load(1, XDATA, add(CFA_XSP16, literal(-10)))
          CFI (cfiCond162) VB load(1, XDATA, add(CFA_XSP16, literal(-9)))
          CFI (cfiCond162) V0 load(1, XDATA, add(CFA_XSP16, literal(-8)))
          CFI (cfiCond162) V1 load(1, XDATA, add(CFA_XSP16, literal(-7)))
          CFI (cfiCond162) R7 load(1, XDATA, add(CFA_XSP16, literal(-6)))
          CFI (cfiCond162) ?RET_LOW load(1, XDATA, add(CFA_XSP16, literal(-5)))
          CFI (cfiCond162) ?RET_HIGH load(1, XDATA, add(CFA_XSP16, literal(-4)))
          CFI (cfiCond162) ?BRET_EXT load(1, XDATA, add(CFA_XSP16, literal(-3)))
          CFI (cfiCond162) DPL0 load(1, XDATA, add(CFA_XSP16, literal(-2)))
          CFI (cfiCond162) DPH0 load(1, XDATA, add(CFA_XSP16, literal(-1)))
          CFI (cfiCond162) CFA_SP SP+-6
          CFI (cfiCond162) CFA_XSP16 add(XSP16, 10)
          CFI Block cfiPicker163 Using cfiCommon1
          CFI (cfiPicker163) NoFunction
          CFI (cfiPicker163) Picker
        MOV       R1,A
          CFI EndBlock cfiCond158
          CFI EndBlock cfiCond159
          CFI EndBlock cfiCond160
          CFI EndBlock cfiCond161
          CFI EndBlock cfiCond162
          CFI EndBlock cfiPicker163
        REQUIRE ??Subroutine36_0
        ; // Fall through to label ??Subroutine36_0

        RSEG BANKED_CODE:HUGECODE:NOROOT(0)
??Subroutine36_0:
          CFI Block cfiCond164 Using cfiCommon0
          CFI Function rxStartIsr
          CFI Conditional ??CrossCallReturnLabel_64
          CFI R6 load(1, XDATA, add(CFA_XSP16, literal(-16)))
          CFI VB load(1, XDATA, add(CFA_XSP16, literal(-15)))
          CFI V0 load(1, XDATA, add(CFA_XSP16, literal(-14)))
          CFI V1 load(1, XDATA, add(CFA_XSP16, literal(-13)))
          CFI V2 load(1, XDATA, add(CFA_XSP16, literal(-12)))
          CFI V3 load(1, XDATA, add(CFA_XSP16, literal(-11)))
          CFI V4 load(1, XDATA, add(CFA_XSP16, literal(-10)))
          CFI V5 load(1, XDATA, add(CFA_XSP16, literal(-9)))
          CFI V6 load(1, XDATA, add(CFA_XSP16, literal(-8)))
          CFI V7 load(1, XDATA, add(CFA_XSP16, literal(-7)))
          CFI R7 load(1, XDATA, add(CFA_XSP16, literal(-6)))
          CFI ?RET_LOW load(1, XDATA, add(CFA_XSP16, literal(-5)))
          CFI ?RET_HIGH load(1, XDATA, add(CFA_XSP16, literal(-4)))
          CFI ?BRET_EXT load(1, XDATA, add(CFA_XSP16, literal(-3)))
          CFI DPL0 load(1, XDATA, add(CFA_XSP16, literal(-2)))
          CFI DPH0 load(1, XDATA, add(CFA_XSP16, literal(-1)))
          CFI CFA_SP SP+-2
          CFI CFA_XSP16 add(XSP16, 18)
          CFI Block cfiCond165 Using cfiCommon0
          CFI (cfiCond165) Function rxAddrIsr
          CFI (cfiCond165) Conditional ??CrossCallReturnLabel_66, ??CrossCallReturnLabel_23
          CFI (cfiCond165) R6 load(1, XDATA, add(CFA_XSP16, literal(-10)))
          CFI (cfiCond165) VB load(1, XDATA, add(CFA_XSP16, literal(-9)))
          CFI (cfiCond165) V0 load(1, XDATA, add(CFA_XSP16, literal(-8)))
          CFI (cfiCond165) V1 load(1, XDATA, add(CFA_XSP16, literal(-7)))
          CFI (cfiCond165) R7 load(1, XDATA, add(CFA_XSP16, literal(-6)))
          CFI (cfiCond165) ?RET_LOW load(1, XDATA, add(CFA_XSP16, literal(-5)))
          CFI (cfiCond165) ?RET_HIGH load(1, XDATA, add(CFA_XSP16, literal(-4)))
          CFI (cfiCond165) ?BRET_EXT load(1, XDATA, add(CFA_XSP16, literal(-3)))
          CFI (cfiCond165) DPL0 load(1, XDATA, add(CFA_XSP16, literal(-2)))
          CFI (cfiCond165) DPH0 load(1, XDATA, add(CFA_XSP16, literal(-1)))
          CFI (cfiCond165) CFA_SP SP+-4
          CFI (cfiCond165) CFA_XSP16 add(XSP16, 30)
          CFI Block cfiCond166 Using cfiCommon0
          CFI (cfiCond166) Function rxAddrIsr
          CFI (cfiCond166) Conditional ??CrossCallReturnLabel_66, ??CrossCallReturnLabel_24
          CFI (cfiCond166) R6 load(1, XDATA, add(CFA_XSP16, literal(-10)))
          CFI (cfiCond166) VB load(1, XDATA, add(CFA_XSP16, literal(-9)))
          CFI (cfiCond166) V0 load(1, XDATA, add(CFA_XSP16, literal(-8)))
          CFI (cfiCond166) V1 load(1, XDATA, add(CFA_XSP16, literal(-7)))
          CFI (cfiCond166) R7 load(1, XDATA, add(CFA_XSP16, literal(-6)))
          CFI (cfiCond166) ?RET_LOW load(1, XDATA, add(CFA_XSP16, literal(-5)))
          CFI (cfiCond166) ?RET_HIGH load(1, XDATA, add(CFA_XSP16, literal(-4)))
          CFI (cfiCond166) ?BRET_EXT load(1, XDATA, add(CFA_XSP16, literal(-3)))
          CFI (cfiCond166) DPL0 load(1, XDATA, add(CFA_XSP16, literal(-2)))
          CFI (cfiCond166) DPH0 load(1, XDATA, add(CFA_XSP16, literal(-1)))
          CFI (cfiCond166) CFA_SP SP+-4
          CFI (cfiCond166) CFA_XSP16 add(XSP16, 30)
          CFI Block cfiCond167 Using cfiCommon0
          CFI (cfiCond167) Function rxStartIsr
          CFI (cfiCond167) Conditional ??CrossCallReturnLabel_65, ??CrossCallReturnLabel_8
          CFI (cfiCond167) R6 load(1, XDATA, add(CFA_XSP16, literal(-16)))
          CFI (cfiCond167) VB load(1, XDATA, add(CFA_XSP16, literal(-15)))
          CFI (cfiCond167) V0 load(1, XDATA, add(CFA_XSP16, literal(-14)))
          CFI (cfiCond167) V1 load(1, XDATA, add(CFA_XSP16, literal(-13)))
          CFI (cfiCond167) V2 load(1, XDATA, add(CFA_XSP16, literal(-12)))
          CFI (cfiCond167) V3 load(1, XDATA, add(CFA_XSP16, literal(-11)))
          CFI (cfiCond167) V4 load(1, XDATA, add(CFA_XSP16, literal(-10)))
          CFI (cfiCond167) V5 load(1, XDATA, add(CFA_XSP16, literal(-9)))
          CFI (cfiCond167) V6 load(1, XDATA, add(CFA_XSP16, literal(-8)))
          CFI (cfiCond167) V7 load(1, XDATA, add(CFA_XSP16, literal(-7)))
          CFI (cfiCond167) R7 load(1, XDATA, add(CFA_XSP16, literal(-6)))
          CFI (cfiCond167) ?RET_LOW load(1, XDATA, add(CFA_XSP16, literal(-5)))
          CFI (cfiCond167) ?RET_HIGH load(1, XDATA, add(CFA_XSP16, literal(-4)))
          CFI (cfiCond167) ?BRET_EXT load(1, XDATA, add(CFA_XSP16, literal(-3)))
          CFI (cfiCond167) DPL0 load(1, XDATA, add(CFA_XSP16, literal(-2)))
          CFI (cfiCond167) DPH0 load(1, XDATA, add(CFA_XSP16, literal(-1)))
          CFI (cfiCond167) CFA_SP SP+-4
          CFI (cfiCond167) CFA_XSP16 add(XSP16, 18)
          CFI Block cfiCond168 Using cfiCommon0
          CFI (cfiCond168) Function rxFcsIsr
          CFI (cfiCond168) Conditional ??CrossCallReturnLabel_65, ??CrossCallReturnLabel_7
          CFI (cfiCond168) R6 load(1, XDATA, add(CFA_XSP16, literal(-10)))
          CFI (cfiCond168) VB load(1, XDATA, add(CFA_XSP16, literal(-9)))
          CFI (cfiCond168) V0 load(1, XDATA, add(CFA_XSP16, literal(-8)))
          CFI (cfiCond168) V1 load(1, XDATA, add(CFA_XSP16, literal(-7)))
          CFI (cfiCond168) R7 load(1, XDATA, add(CFA_XSP16, literal(-6)))
          CFI (cfiCond168) ?RET_LOW load(1, XDATA, add(CFA_XSP16, literal(-5)))
          CFI (cfiCond168) ?RET_HIGH load(1, XDATA, add(CFA_XSP16, literal(-4)))
          CFI (cfiCond168) ?BRET_EXT load(1, XDATA, add(CFA_XSP16, literal(-3)))
          CFI (cfiCond168) DPL0 load(1, XDATA, add(CFA_XSP16, literal(-2)))
          CFI (cfiCond168) DPH0 load(1, XDATA, add(CFA_XSP16, literal(-1)))
          CFI (cfiCond168) CFA_SP SP+-4
          CFI (cfiCond168) CFA_XSP16 add(XSP16, 10)
          CFI Block cfiCond169 Using cfiCommon0
          CFI (cfiCond169) Function rxAddrIsr
          CFI (cfiCond169) Conditional ??CrossCallReturnLabel_67
          CFI (cfiCond169) R6 load(1, XDATA, add(CFA_XSP16, literal(-10)))
          CFI (cfiCond169) VB load(1, XDATA, add(CFA_XSP16, literal(-9)))
          CFI (cfiCond169) V0 load(1, XDATA, add(CFA_XSP16, literal(-8)))
          CFI (cfiCond169) V1 load(1, XDATA, add(CFA_XSP16, literal(-7)))
          CFI (cfiCond169) R7 load(1, XDATA, add(CFA_XSP16, literal(-6)))
          CFI (cfiCond169) ?RET_LOW load(1, XDATA, add(CFA_XSP16, literal(-5)))
          CFI (cfiCond169) ?RET_HIGH load(1, XDATA, add(CFA_XSP16, literal(-4)))
          CFI (cfiCond169) ?BRET_EXT load(1, XDATA, add(CFA_XSP16, literal(-3)))
          CFI (cfiCond169) DPL0 load(1, XDATA, add(CFA_XSP16, literal(-2)))
          CFI (cfiCond169) DPH0 load(1, XDATA, add(CFA_XSP16, literal(-1)))
          CFI (cfiCond169) CFA_SP SP+-2
          CFI (cfiCond169) CFA_XSP16 add(XSP16, 30)
          CFI Block cfiCond170 Using cfiCommon0
          CFI (cfiCond170) Function rxStartIsr
          CFI (cfiCond170) Conditional ??CrossCallReturnLabel_68, ??CrossCallReturnLabel_30, ??CrossCallReturnLabel_17
          CFI (cfiCond170) R6 load(1, XDATA, add(CFA_XSP16, literal(-16)))
          CFI (cfiCond170) VB load(1, XDATA, add(CFA_XSP16, literal(-15)))
          CFI (cfiCond170) V0 load(1, XDATA, add(CFA_XSP16, literal(-14)))
          CFI (cfiCond170) V1 load(1, XDATA, add(CFA_XSP16, literal(-13)))
          CFI (cfiCond170) V2 load(1, XDATA, add(CFA_XSP16, literal(-12)))
          CFI (cfiCond170) V3 load(1, XDATA, add(CFA_XSP16, literal(-11)))
          CFI (cfiCond170) V4 load(1, XDATA, add(CFA_XSP16, literal(-10)))
          CFI (cfiCond170) V5 load(1, XDATA, add(CFA_XSP16, literal(-9)))
          CFI (cfiCond170) V6 load(1, XDATA, add(CFA_XSP16, literal(-8)))
          CFI (cfiCond170) V7 load(1, XDATA, add(CFA_XSP16, literal(-7)))
          CFI (cfiCond170) R7 load(1, XDATA, add(CFA_XSP16, literal(-6)))
          CFI (cfiCond170) ?RET_LOW load(1, XDATA, add(CFA_XSP16, literal(-5)))
          CFI (cfiCond170) ?RET_HIGH load(1, XDATA, add(CFA_XSP16, literal(-4)))
          CFI (cfiCond170) ?BRET_EXT load(1, XDATA, add(CFA_XSP16, literal(-3)))
          CFI (cfiCond170) DPL0 load(1, XDATA, add(CFA_XSP16, literal(-2)))
          CFI (cfiCond170) DPH0 load(1, XDATA, add(CFA_XSP16, literal(-1)))
          CFI (cfiCond170) CFA_SP SP+-6
          CFI (cfiCond170) CFA_XSP16 add(XSP16, 18)
          CFI Block cfiCond171 Using cfiCommon0
          CFI (cfiCond171) Function rxFcsIsr
          CFI (cfiCond171) Conditional ??CrossCallReturnLabel_68, ??CrossCallReturnLabel_30, ??CrossCallReturnLabel_18
          CFI (cfiCond171) R6 load(1, XDATA, add(CFA_XSP16, literal(-10)))
          CFI (cfiCond171) VB load(1, XDATA, add(CFA_XSP16, literal(-9)))
          CFI (cfiCond171) V0 load(1, XDATA, add(CFA_XSP16, literal(-8)))
          CFI (cfiCond171) V1 load(1, XDATA, add(CFA_XSP16, literal(-7)))
          CFI (cfiCond171) R7 load(1, XDATA, add(CFA_XSP16, literal(-6)))
          CFI (cfiCond171) ?RET_LOW load(1, XDATA, add(CFA_XSP16, literal(-5)))
          CFI (cfiCond171) ?RET_HIGH load(1, XDATA, add(CFA_XSP16, literal(-4)))
          CFI (cfiCond171) ?BRET_EXT load(1, XDATA, add(CFA_XSP16, literal(-3)))
          CFI (cfiCond171) DPL0 load(1, XDATA, add(CFA_XSP16, literal(-2)))
          CFI (cfiCond171) DPH0 load(1, XDATA, add(CFA_XSP16, literal(-1)))
          CFI (cfiCond171) CFA_SP SP+-6
          CFI (cfiCond171) CFA_XSP16 add(XSP16, 10)
          CFI Block cfiCond172 Using cfiCommon0
          CFI (cfiCond172) Function rxStartIsr
          CFI (cfiCond172) Conditional ??CrossCallReturnLabel_68, ??CrossCallReturnLabel_29, ??CrossCallReturnLabel_13
          CFI (cfiCond172) R6 load(1, XDATA, add(CFA_XSP16, literal(-16)))
          CFI (cfiCond172) VB load(1, XDATA, add(CFA_XSP16, literal(-15)))
          CFI (cfiCond172) V0 load(1, XDATA, add(CFA_XSP16, literal(-14)))
          CFI (cfiCond172) V1 load(1, XDATA, add(CFA_XSP16, literal(-13)))
          CFI (cfiCond172) V2 load(1, XDATA, add(CFA_XSP16, literal(-12)))
          CFI (cfiCond172) V3 load(1, XDATA, add(CFA_XSP16, literal(-11)))
          CFI (cfiCond172) V4 load(1, XDATA, add(CFA_XSP16, literal(-10)))
          CFI (cfiCond172) V5 load(1, XDATA, add(CFA_XSP16, literal(-9)))
          CFI (cfiCond172) V6 load(1, XDATA, add(CFA_XSP16, literal(-8)))
          CFI (cfiCond172) V7 load(1, XDATA, add(CFA_XSP16, literal(-7)))
          CFI (cfiCond172) R7 load(1, XDATA, add(CFA_XSP16, literal(-6)))
          CFI (cfiCond172) ?RET_LOW load(1, XDATA, add(CFA_XSP16, literal(-5)))
          CFI (cfiCond172) ?RET_HIGH load(1, XDATA, add(CFA_XSP16, literal(-4)))
          CFI (cfiCond172) ?BRET_EXT load(1, XDATA, add(CFA_XSP16, literal(-3)))
          CFI (cfiCond172) DPL0 load(1, XDATA, add(CFA_XSP16, literal(-2)))
          CFI (cfiCond172) DPH0 load(1, XDATA, add(CFA_XSP16, literal(-1)))
          CFI (cfiCond172) CFA_SP SP+-6
          CFI (cfiCond172) CFA_XSP16 add(XSP16, 18)
          CFI Block cfiCond173 Using cfiCommon0
          CFI (cfiCond173) Function rxFcsIsr
          CFI (cfiCond173) Conditional ??CrossCallReturnLabel_68, ??CrossCallReturnLabel_29, ??CrossCallReturnLabel_14
          CFI (cfiCond173) R6 load(1, XDATA, add(CFA_XSP16, literal(-10)))
          CFI (cfiCond173) VB load(1, XDATA, add(CFA_XSP16, literal(-9)))
          CFI (cfiCond173) V0 load(1, XDATA, add(CFA_XSP16, literal(-8)))
          CFI (cfiCond173) V1 load(1, XDATA, add(CFA_XSP16, literal(-7)))
          CFI (cfiCond173) R7 load(1, XDATA, add(CFA_XSP16, literal(-6)))
          CFI (cfiCond173) ?RET_LOW load(1, XDATA, add(CFA_XSP16, literal(-5)))
          CFI (cfiCond173) ?RET_HIGH load(1, XDATA, add(CFA_XSP16, literal(-4)))
          CFI (cfiCond173) ?BRET_EXT load(1, XDATA, add(CFA_XSP16, literal(-3)))
          CFI (cfiCond173) DPL0 load(1, XDATA, add(CFA_XSP16, literal(-2)))
          CFI (cfiCond173) DPH0 load(1, XDATA, add(CFA_XSP16, literal(-1)))
          CFI (cfiCond173) CFA_SP SP+-6
          CFI (cfiCond173) CFA_XSP16 add(XSP16, 10)
          CFI Block cfiPicker174 Using cfiCommon1
          CFI (cfiPicker174) NoFunction
          CFI (cfiPicker174) Picker
        MOV       DPTR,#pRxBuf
          CFI EndBlock cfiCond164
          CFI EndBlock cfiCond165
          CFI EndBlock cfiCond166
          CFI EndBlock cfiCond167
          CFI EndBlock cfiCond168
          CFI EndBlock cfiCond169
          CFI EndBlock cfiCond170
          CFI EndBlock cfiCond171
          CFI EndBlock cfiCond172
          CFI EndBlock cfiCond173
          CFI EndBlock cfiPicker174
        REQUIRE ??Subroutine37_0
        ; // Fall through to label ??Subroutine37_0

        RSEG BANKED_CODE:HUGECODE:NOROOT(0)
??Subroutine37_0:
          CFI Block cfiCond175 Using cfiCommon0
          CFI Function rxStartIsr
          CFI Conditional ??CrossCallReturnLabel_63, ??CrossCallReturnLabel_15
          CFI R6 load(1, XDATA, add(CFA_XSP16, literal(-16)))
          CFI VB load(1, XDATA, add(CFA_XSP16, literal(-15)))
          CFI V0 load(1, XDATA, add(CFA_XSP16, literal(-14)))
          CFI V1 load(1, XDATA, add(CFA_XSP16, literal(-13)))
          CFI V2 load(1, XDATA, add(CFA_XSP16, literal(-12)))
          CFI V3 load(1, XDATA, add(CFA_XSP16, literal(-11)))
          CFI V4 load(1, XDATA, add(CFA_XSP16, literal(-10)))
          CFI V5 load(1, XDATA, add(CFA_XSP16, literal(-9)))
          CFI V6 load(1, XDATA, add(CFA_XSP16, literal(-8)))
          CFI V7 load(1, XDATA, add(CFA_XSP16, literal(-7)))
          CFI R7 load(1, XDATA, add(CFA_XSP16, literal(-6)))
          CFI ?RET_LOW load(1, XDATA, add(CFA_XSP16, literal(-5)))
          CFI ?RET_HIGH load(1, XDATA, add(CFA_XSP16, literal(-4)))
          CFI ?BRET_EXT load(1, XDATA, add(CFA_XSP16, literal(-3)))
          CFI DPL0 load(1, XDATA, add(CFA_XSP16, literal(-2)))
          CFI DPH0 load(1, XDATA, add(CFA_XSP16, literal(-1)))
          CFI CFA_SP SP+-4
          CFI CFA_XSP16 add(XSP16, 21)
          CFI Block cfiCond176 Using cfiCommon0
          CFI (cfiCond176) Function rxPayloadIsr
          CFI (cfiCond176) Conditional ??CrossCallReturnLabel_63, ??CrossCallReturnLabel_16
          CFI (cfiCond176) DPL0 Frame(CFA_SP, 4)
          CFI (cfiCond176) DPH0 Frame(CFA_SP, 5)
          CFI (cfiCond176) CFA_SP SP+-9
          CFI Block cfiCond177 Using cfiCommon0
          CFI (cfiCond177) Function rxStartIsr
          CFI (cfiCond177) Conditional ??CrossCallReturnLabel_64
          CFI (cfiCond177) R6 load(1, XDATA, add(CFA_XSP16, literal(-16)))
          CFI (cfiCond177) VB load(1, XDATA, add(CFA_XSP16, literal(-15)))
          CFI (cfiCond177) V0 load(1, XDATA, add(CFA_XSP16, literal(-14)))
          CFI (cfiCond177) V1 load(1, XDATA, add(CFA_XSP16, literal(-13)))
          CFI (cfiCond177) V2 load(1, XDATA, add(CFA_XSP16, literal(-12)))
          CFI (cfiCond177) V3 load(1, XDATA, add(CFA_XSP16, literal(-11)))
          CFI (cfiCond177) V4 load(1, XDATA, add(CFA_XSP16, literal(-10)))
          CFI (cfiCond177) V5 load(1, XDATA, add(CFA_XSP16, literal(-9)))
          CFI (cfiCond177) V6 load(1, XDATA, add(CFA_XSP16, literal(-8)))
          CFI (cfiCond177) V7 load(1, XDATA, add(CFA_XSP16, literal(-7)))
          CFI (cfiCond177) R7 load(1, XDATA, add(CFA_XSP16, literal(-6)))
          CFI (cfiCond177) ?RET_LOW load(1, XDATA, add(CFA_XSP16, literal(-5)))
          CFI (cfiCond177) ?RET_HIGH load(1, XDATA, add(CFA_XSP16, literal(-4)))
          CFI (cfiCond177) ?BRET_EXT load(1, XDATA, add(CFA_XSP16, literal(-3)))
          CFI (cfiCond177) DPL0 load(1, XDATA, add(CFA_XSP16, literal(-2)))
          CFI (cfiCond177) DPH0 load(1, XDATA, add(CFA_XSP16, literal(-1)))
          CFI (cfiCond177) CFA_SP SP+-2
          CFI (cfiCond177) CFA_XSP16 add(XSP16, 18)
          CFI Block cfiCond178 Using cfiCommon0
          CFI (cfiCond178) Function rxAddrIsr
          CFI (cfiCond178) Conditional ??CrossCallReturnLabel_66, ??CrossCallReturnLabel_23
          CFI (cfiCond178) R6 load(1, XDATA, add(CFA_XSP16, literal(-10)))
          CFI (cfiCond178) VB load(1, XDATA, add(CFA_XSP16, literal(-9)))
          CFI (cfiCond178) V0 load(1, XDATA, add(CFA_XSP16, literal(-8)))
          CFI (cfiCond178) V1 load(1, XDATA, add(CFA_XSP16, literal(-7)))
          CFI (cfiCond178) R7 load(1, XDATA, add(CFA_XSP16, literal(-6)))
          CFI (cfiCond178) ?RET_LOW load(1, XDATA, add(CFA_XSP16, literal(-5)))
          CFI (cfiCond178) ?RET_HIGH load(1, XDATA, add(CFA_XSP16, literal(-4)))
          CFI (cfiCond178) ?BRET_EXT load(1, XDATA, add(CFA_XSP16, literal(-3)))
          CFI (cfiCond178) DPL0 load(1, XDATA, add(CFA_XSP16, literal(-2)))
          CFI (cfiCond178) DPH0 load(1, XDATA, add(CFA_XSP16, literal(-1)))
          CFI (cfiCond178) CFA_SP SP+-4
          CFI (cfiCond178) CFA_XSP16 add(XSP16, 30)
          CFI Block cfiCond179 Using cfiCommon0
          CFI (cfiCond179) Function rxAddrIsr
          CFI (cfiCond179) Conditional ??CrossCallReturnLabel_66, ??CrossCallReturnLabel_24
          CFI (cfiCond179) R6 load(1, XDATA, add(CFA_XSP16, literal(-10)))
          CFI (cfiCond179) VB load(1, XDATA, add(CFA_XSP16, literal(-9)))
          CFI (cfiCond179) V0 load(1, XDATA, add(CFA_XSP16, literal(-8)))
          CFI (cfiCond179) V1 load(1, XDATA, add(CFA_XSP16, literal(-7)))
          CFI (cfiCond179) R7 load(1, XDATA, add(CFA_XSP16, literal(-6)))
          CFI (cfiCond179) ?RET_LOW load(1, XDATA, add(CFA_XSP16, literal(-5)))
          CFI (cfiCond179) ?RET_HIGH load(1, XDATA, add(CFA_XSP16, literal(-4)))
          CFI (cfiCond179) ?BRET_EXT load(1, XDATA, add(CFA_XSP16, literal(-3)))
          CFI (cfiCond179) DPL0 load(1, XDATA, add(CFA_XSP16, literal(-2)))
          CFI (cfiCond179) DPH0 load(1, XDATA, add(CFA_XSP16, literal(-1)))
          CFI (cfiCond179) CFA_SP SP+-4
          CFI (cfiCond179) CFA_XSP16 add(XSP16, 30)
          CFI Block cfiCond180 Using cfiCommon0
          CFI (cfiCond180) Function rxStartIsr
          CFI (cfiCond180) Conditional ??CrossCallReturnLabel_65, ??CrossCallReturnLabel_8
          CFI (cfiCond180) R6 load(1, XDATA, add(CFA_XSP16, literal(-16)))
          CFI (cfiCond180) VB load(1, XDATA, add(CFA_XSP16, literal(-15)))
          CFI (cfiCond180) V0 load(1, XDATA, add(CFA_XSP16, literal(-14)))
          CFI (cfiCond180) V1 load(1, XDATA, add(CFA_XSP16, literal(-13)))
          CFI (cfiCond180) V2 load(1, XDATA, add(CFA_XSP16, literal(-12)))
          CFI (cfiCond180) V3 load(1, XDATA, add(CFA_XSP16, literal(-11)))
          CFI (cfiCond180) V4 load(1, XDATA, add(CFA_XSP16, literal(-10)))
          CFI (cfiCond180) V5 load(1, XDATA, add(CFA_XSP16, literal(-9)))
          CFI (cfiCond180) V6 load(1, XDATA, add(CFA_XSP16, literal(-8)))
          CFI (cfiCond180) V7 load(1, XDATA, add(CFA_XSP16, literal(-7)))
          CFI (cfiCond180) R7 load(1, XDATA, add(CFA_XSP16, literal(-6)))
          CFI (cfiCond180) ?RET_LOW load(1, XDATA, add(CFA_XSP16, literal(-5)))
          CFI (cfiCond180) ?RET_HIGH load(1, XDATA, add(CFA_XSP16, literal(-4)))
          CFI (cfiCond180) ?BRET_EXT load(1, XDATA, add(CFA_XSP16, literal(-3)))
          CFI (cfiCond180) DPL0 load(1, XDATA, add(CFA_XSP16, literal(-2)))
          CFI (cfiCond180) DPH0 load(1, XDATA, add(CFA_XSP16, literal(-1)))
          CFI (cfiCond180) CFA_SP SP+-4
          CFI (cfiCond180) CFA_XSP16 add(XSP16, 18)
          CFI Block cfiCond181 Using cfiCommon0
          CFI (cfiCond181) Function rxFcsIsr
          CFI (cfiCond181) Conditional ??CrossCallReturnLabel_65, ??CrossCallReturnLabel_7
          CFI (cfiCond181) R6 load(1, XDATA, add(CFA_XSP16, literal(-10)))
          CFI (cfiCond181) VB load(1, XDATA, add(CFA_XSP16, literal(-9)))
          CFI (cfiCond181) V0 load(1, XDATA, add(CFA_XSP16, literal(-8)))
          CFI (cfiCond181) V1 load(1, XDATA, add(CFA_XSP16, literal(-7)))
          CFI (cfiCond181) R7 load(1, XDATA, add(CFA_XSP16, literal(-6)))
          CFI (cfiCond181) ?RET_LOW load(1, XDATA, add(CFA_XSP16, literal(-5)))
          CFI (cfiCond181) ?RET_HIGH load(1, XDATA, add(CFA_XSP16, literal(-4)))
          CFI (cfiCond181) ?BRET_EXT load(1, XDATA, add(CFA_XSP16, literal(-3)))
          CFI (cfiCond181) DPL0 load(1, XDATA, add(CFA_XSP16, literal(-2)))
          CFI (cfiCond181) DPH0 load(1, XDATA, add(CFA_XSP16, literal(-1)))
          CFI (cfiCond181) CFA_SP SP+-4
          CFI (cfiCond181) CFA_XSP16 add(XSP16, 10)
          CFI Block cfiCond182 Using cfiCommon0
          CFI (cfiCond182) Function rxAddrIsr
          CFI (cfiCond182) Conditional ??CrossCallReturnLabel_67
          CFI (cfiCond182) R6 load(1, XDATA, add(CFA_XSP16, literal(-10)))
          CFI (cfiCond182) VB load(1, XDATA, add(CFA_XSP16, literal(-9)))
          CFI (cfiCond182) V0 load(1, XDATA, add(CFA_XSP16, literal(-8)))
          CFI (cfiCond182) V1 load(1, XDATA, add(CFA_XSP16, literal(-7)))
          CFI (cfiCond182) R7 load(1, XDATA, add(CFA_XSP16, literal(-6)))
          CFI (cfiCond182) ?RET_LOW load(1, XDATA, add(CFA_XSP16, literal(-5)))
          CFI (cfiCond182) ?RET_HIGH load(1, XDATA, add(CFA_XSP16, literal(-4)))
          CFI (cfiCond182) ?BRET_EXT load(1, XDATA, add(CFA_XSP16, literal(-3)))
          CFI (cfiCond182) DPL0 load(1, XDATA, add(CFA_XSP16, literal(-2)))
          CFI (cfiCond182) DPH0 load(1, XDATA, add(CFA_XSP16, literal(-1)))
          CFI (cfiCond182) CFA_SP SP+-2
          CFI (cfiCond182) CFA_XSP16 add(XSP16, 30)
          CFI Block cfiCond183 Using cfiCommon0
          CFI (cfiCond183) Function rxStartIsr
          CFI (cfiCond183) Conditional ??CrossCallReturnLabel_68, ??CrossCallReturnLabel_30, ??CrossCallReturnLabel_17
          CFI (cfiCond183) R6 load(1, XDATA, add(CFA_XSP16, literal(-16)))
          CFI (cfiCond183) VB load(1, XDATA, add(CFA_XSP16, literal(-15)))
          CFI (cfiCond183) V0 load(1, XDATA, add(CFA_XSP16, literal(-14)))
          CFI (cfiCond183) V1 load(1, XDATA, add(CFA_XSP16, literal(-13)))
          CFI (cfiCond183) V2 load(1, XDATA, add(CFA_XSP16, literal(-12)))
          CFI (cfiCond183) V3 load(1, XDATA, add(CFA_XSP16, literal(-11)))
          CFI (cfiCond183) V4 load(1, XDATA, add(CFA_XSP16, literal(-10)))
          CFI (cfiCond183) V5 load(1, XDATA, add(CFA_XSP16, literal(-9)))
          CFI (cfiCond183) V6 load(1, XDATA, add(CFA_XSP16, literal(-8)))
          CFI (cfiCond183) V7 load(1, XDATA, add(CFA_XSP16, literal(-7)))
          CFI (cfiCond183) R7 load(1, XDATA, add(CFA_XSP16, literal(-6)))
          CFI (cfiCond183) ?RET_LOW load(1, XDATA, add(CFA_XSP16, literal(-5)))
          CFI (cfiCond183) ?RET_HIGH load(1, XDATA, add(CFA_XSP16, literal(-4)))
          CFI (cfiCond183) ?BRET_EXT load(1, XDATA, add(CFA_XSP16, literal(-3)))
          CFI (cfiCond183) DPL0 load(1, XDATA, add(CFA_XSP16, literal(-2)))
          CFI (cfiCond183) DPH0 load(1, XDATA, add(CFA_XSP16, literal(-1)))
          CFI (cfiCond183) CFA_SP SP+-6
          CFI (cfiCond183) CFA_XSP16 add(XSP16, 18)
          CFI Block cfiCond184 Using cfiCommon0
          CFI (cfiCond184) Function rxFcsIsr
          CFI (cfiCond184) Conditional ??CrossCallReturnLabel_68, ??CrossCallReturnLabel_30, ??CrossCallReturnLabel_18
          CFI (cfiCond184) R6 load(1, XDATA, add(CFA_XSP16, literal(-10)))
          CFI (cfiCond184) VB load(1, XDATA, add(CFA_XSP16, literal(-9)))
          CFI (cfiCond184) V0 load(1, XDATA, add(CFA_XSP16, literal(-8)))
          CFI (cfiCond184) V1 load(1, XDATA, add(CFA_XSP16, literal(-7)))
          CFI (cfiCond184) R7 load(1, XDATA, add(CFA_XSP16, literal(-6)))
          CFI (cfiCond184) ?RET_LOW load(1, XDATA, add(CFA_XSP16, literal(-5)))
          CFI (cfiCond184) ?RET_HIGH load(1, XDATA, add(CFA_XSP16, literal(-4)))
          CFI (cfiCond184) ?BRET_EXT load(1, XDATA, add(CFA_XSP16, literal(-3)))
          CFI (cfiCond184) DPL0 load(1, XDATA, add(CFA_XSP16, literal(-2)))
          CFI (cfiCond184) DPH0 load(1, XDATA, add(CFA_XSP16, literal(-1)))
          CFI (cfiCond184) CFA_SP SP+-6
          CFI (cfiCond184) CFA_XSP16 add(XSP16, 10)
          CFI Block cfiCond185 Using cfiCommon0
          CFI (cfiCond185) Function rxStartIsr
          CFI (cfiCond185) Conditional ??CrossCallReturnLabel_68, ??CrossCallReturnLabel_29, ??CrossCallReturnLabel_13
          CFI (cfiCond185) R6 load(1, XDATA, add(CFA_XSP16, literal(-16)))
          CFI (cfiCond185) VB load(1, XDATA, add(CFA_XSP16, literal(-15)))
          CFI (cfiCond185) V0 load(1, XDATA, add(CFA_XSP16, literal(-14)))
          CFI (cfiCond185) V1 load(1, XDATA, add(CFA_XSP16, literal(-13)))
          CFI (cfiCond185) V2 load(1, XDATA, add(CFA_XSP16, literal(-12)))
          CFI (cfiCond185) V3 load(1, XDATA, add(CFA_XSP16, literal(-11)))
          CFI (cfiCond185) V4 load(1, XDATA, add(CFA_XSP16, literal(-10)))
          CFI (cfiCond185) V5 load(1, XDATA, add(CFA_XSP16, literal(-9)))
          CFI (cfiCond185) V6 load(1, XDATA, add(CFA_XSP16, literal(-8)))
          CFI (cfiCond185) V7 load(1, XDATA, add(CFA_XSP16, literal(-7)))
          CFI (cfiCond185) R7 load(1, XDATA, add(CFA_XSP16, literal(-6)))
          CFI (cfiCond185) ?RET_LOW load(1, XDATA, add(CFA_XSP16, literal(-5)))
          CFI (cfiCond185) ?RET_HIGH load(1, XDATA, add(CFA_XSP16, literal(-4)))
          CFI (cfiCond185) ?BRET_EXT load(1, XDATA, add(CFA_XSP16, literal(-3)))
          CFI (cfiCond185) DPL0 load(1, XDATA, add(CFA_XSP16, literal(-2)))
          CFI (cfiCond185) DPH0 load(1, XDATA, add(CFA_XSP16, literal(-1)))
          CFI (cfiCond185) CFA_SP SP+-6
          CFI (cfiCond185) CFA_XSP16 add(XSP16, 18)
          CFI Block cfiCond186 Using cfiCommon0
          CFI (cfiCond186) Function rxFcsIsr
          CFI (cfiCond186) Conditional ??CrossCallReturnLabel_68, ??CrossCallReturnLabel_29, ??CrossCallReturnLabel_14
          CFI (cfiCond186) R6 load(1, XDATA, add(CFA_XSP16, literal(-10)))
          CFI (cfiCond186) VB load(1, XDATA, add(CFA_XSP16, literal(-9)))
          CFI (cfiCond186) V0 load(1, XDATA, add(CFA_XSP16, literal(-8)))
          CFI (cfiCond186) V1 load(1, XDATA, add(CFA_XSP16, literal(-7)))
          CFI (cfiCond186) R7 load(1, XDATA, add(CFA_XSP16, literal(-6)))
          CFI (cfiCond186) ?RET_LOW load(1, XDATA, add(CFA_XSP16, literal(-5)))
          CFI (cfiCond186) ?RET_HIGH load(1, XDATA, add(CFA_XSP16, literal(-4)))
          CFI (cfiCond186) ?BRET_EXT load(1, XDATA, add(CFA_XSP16, literal(-3)))
          CFI (cfiCond186) DPL0 load(1, XDATA, add(CFA_XSP16, literal(-2)))
          CFI (cfiCond186) DPH0 load(1, XDATA, add(CFA_XSP16, literal(-1)))
          CFI (cfiCond186) CFA_SP SP+-6
          CFI (cfiCond186) CFA_XSP16 add(XSP16, 10)
          CFI Block cfiPicker187 Using cfiCommon1
          CFI (cfiPicker187) NoFunction
          CFI (cfiPicker187) Picker
        MOVX      A,@DPTR
        MOV       R2,A
        INC       DPTR
        MOVX      A,@DPTR
        RET
          CFI EndBlock cfiCond175
          CFI EndBlock cfiCond176
          CFI EndBlock cfiCond177
          CFI EndBlock cfiCond178
          CFI EndBlock cfiCond179
          CFI EndBlock cfiCond180
          CFI EndBlock cfiCond181
          CFI EndBlock cfiCond182
          CFI EndBlock cfiCond183
          CFI EndBlock cfiCond184
          CFI EndBlock cfiCond185
          CFI EndBlock cfiCond186
          CFI EndBlock cfiPicker187

        RSEG BANKED_CODE:HUGECODE:NOROOT(0)
?Subroutine11:
          CFI Block cfiCond188 Using cfiCommon0
          CFI Function rxStartIsr
          CFI Conditional ??CrossCallReturnLabel_13
          CFI R6 load(1, XDATA, add(CFA_XSP16, literal(-16)))
          CFI VB load(1, XDATA, add(CFA_XSP16, literal(-15)))
          CFI V0 load(1, XDATA, add(CFA_XSP16, literal(-14)))
          CFI V1 load(1, XDATA, add(CFA_XSP16, literal(-13)))
          CFI V2 load(1, XDATA, add(CFA_XSP16, literal(-12)))
          CFI V3 load(1, XDATA, add(CFA_XSP16, literal(-11)))
          CFI V4 load(1, XDATA, add(CFA_XSP16, literal(-10)))
          CFI V5 load(1, XDATA, add(CFA_XSP16, literal(-9)))
          CFI V6 load(1, XDATA, add(CFA_XSP16, literal(-8)))
          CFI V7 load(1, XDATA, add(CFA_XSP16, literal(-7)))
          CFI R7 load(1, XDATA, add(CFA_XSP16, literal(-6)))
          CFI ?RET_LOW load(1, XDATA, add(CFA_XSP16, literal(-5)))
          CFI ?RET_HIGH load(1, XDATA, add(CFA_XSP16, literal(-4)))
          CFI ?BRET_EXT load(1, XDATA, add(CFA_XSP16, literal(-3)))
          CFI DPL0 load(1, XDATA, add(CFA_XSP16, literal(-2)))
          CFI DPH0 load(1, XDATA, add(CFA_XSP16, literal(-1)))
          CFI CFA_SP SP+-2
          CFI CFA_XSP16 add(XSP16, 18)
          CFI Block cfiCond189 Using cfiCommon0
          CFI (cfiCond189) Function rxFcsIsr
          CFI (cfiCond189) Conditional ??CrossCallReturnLabel_14
          CFI (cfiCond189) R6 load(1, XDATA, add(CFA_XSP16, literal(-10)))
          CFI (cfiCond189) VB load(1, XDATA, add(CFA_XSP16, literal(-9)))
          CFI (cfiCond189) V0 load(1, XDATA, add(CFA_XSP16, literal(-8)))
          CFI (cfiCond189) V1 load(1, XDATA, add(CFA_XSP16, literal(-7)))
          CFI (cfiCond189) R7 load(1, XDATA, add(CFA_XSP16, literal(-6)))
          CFI (cfiCond189) ?RET_LOW load(1, XDATA, add(CFA_XSP16, literal(-5)))
          CFI (cfiCond189) ?RET_HIGH load(1, XDATA, add(CFA_XSP16, literal(-4)))
          CFI (cfiCond189) ?BRET_EXT load(1, XDATA, add(CFA_XSP16, literal(-3)))
          CFI (cfiCond189) DPL0 load(1, XDATA, add(CFA_XSP16, literal(-2)))
          CFI (cfiCond189) DPH0 load(1, XDATA, add(CFA_XSP16, literal(-1)))
          CFI (cfiCond189) CFA_SP SP+-2
          CFI (cfiCond189) CFA_XSP16 add(XSP16, 10)
          CFI Block cfiPicker190 Using cfiCommon1
          CFI (cfiPicker190) NoFunction
          CFI (cfiPicker190) Picker
        LCALL     ?Subroutine23 & 0xFFFF
??CrossCallReturnLabel_29:
        XCH       A,R2
        ADD       A,#0x34
        MOV       DPL,A
        CLR       A
        ADDC      A,R2
        MOV       DPH,A
        RET
          CFI EndBlock cfiCond188
          CFI EndBlock cfiCond189
          CFI EndBlock cfiPicker190

        RSEG BANKED_CODE:HUGECODE:NOROOT(0)
?Subroutine7:
          CFI Block cfiCond191 Using cfiCommon0
          CFI Function rxStartIsr
          CFI Conditional ??CrossCallReturnLabel_8
          CFI R6 load(1, XDATA, add(CFA_XSP16, literal(-16)))
          CFI VB load(1, XDATA, add(CFA_XSP16, literal(-15)))
          CFI V0 load(1, XDATA, add(CFA_XSP16, literal(-14)))
          CFI V1 load(1, XDATA, add(CFA_XSP16, literal(-13)))
          CFI V2 load(1, XDATA, add(CFA_XSP16, literal(-12)))
          CFI V3 load(1, XDATA, add(CFA_XSP16, literal(-11)))
          CFI V4 load(1, XDATA, add(CFA_XSP16, literal(-10)))
          CFI V5 load(1, XDATA, add(CFA_XSP16, literal(-9)))
          CFI V6 load(1, XDATA, add(CFA_XSP16, literal(-8)))
          CFI V7 load(1, XDATA, add(CFA_XSP16, literal(-7)))
          CFI R7 load(1, XDATA, add(CFA_XSP16, literal(-6)))
          CFI ?RET_LOW load(1, XDATA, add(CFA_XSP16, literal(-5)))
          CFI ?RET_HIGH load(1, XDATA, add(CFA_XSP16, literal(-4)))
          CFI ?BRET_EXT load(1, XDATA, add(CFA_XSP16, literal(-3)))
          CFI DPL0 load(1, XDATA, add(CFA_XSP16, literal(-2)))
          CFI DPH0 load(1, XDATA, add(CFA_XSP16, literal(-1)))
          CFI CFA_SP SP+-2
          CFI CFA_XSP16 add(XSP16, 18)
          CFI Block cfiCond192 Using cfiCommon0
          CFI (cfiCond192) Function rxFcsIsr
          CFI (cfiCond192) Conditional ??CrossCallReturnLabel_7
          CFI (cfiCond192) R6 load(1, XDATA, add(CFA_XSP16, literal(-10)))
          CFI (cfiCond192) VB load(1, XDATA, add(CFA_XSP16, literal(-9)))
          CFI (cfiCond192) V0 load(1, XDATA, add(CFA_XSP16, literal(-8)))
          CFI (cfiCond192) V1 load(1, XDATA, add(CFA_XSP16, literal(-7)))
          CFI (cfiCond192) R7 load(1, XDATA, add(CFA_XSP16, literal(-6)))
          CFI (cfiCond192) ?RET_LOW load(1, XDATA, add(CFA_XSP16, literal(-5)))
          CFI (cfiCond192) ?RET_HIGH load(1, XDATA, add(CFA_XSP16, literal(-4)))
          CFI (cfiCond192) ?BRET_EXT load(1, XDATA, add(CFA_XSP16, literal(-3)))
          CFI (cfiCond192) DPL0 load(1, XDATA, add(CFA_XSP16, literal(-2)))
          CFI (cfiCond192) DPH0 load(1, XDATA, add(CFA_XSP16, literal(-1)))
          CFI (cfiCond192) CFA_SP SP+-2
          CFI (cfiCond192) CFA_XSP16 add(XSP16, 10)
          CFI Block cfiPicker193 Using cfiCommon1
          CFI (cfiPicker193) NoFunction
          CFI (cfiPicker193) Picker
        MOVX      @DPTR,A
        ; Setup parameters for call to function macRxCompleteCallback
        LCALL     ??Subroutine36_0 & 0xFFFF
??CrossCallReturnLabel_65:
        RET
          CFI EndBlock cfiCond191
          CFI EndBlock cfiCond192
          CFI EndBlock cfiPicker193

        RSEG BANKED_CODE:HUGECODE:NOROOT(0)
?Subroutine2:
          CFI Block cfiCond194 Using cfiCommon0
          CFI Function rxFcsIsr
          CFI Conditional ??CrossCallReturnLabel_69
          CFI R6 load(1, XDATA, add(CFA_XSP16, literal(-10)))
          CFI VB load(1, XDATA, add(CFA_XSP16, literal(-9)))
          CFI V0 load(1, XDATA, add(CFA_XSP16, literal(-8)))
          CFI V1 load(1, XDATA, add(CFA_XSP16, literal(-7)))
          CFI R7 load(1, XDATA, add(CFA_XSP16, literal(-6)))
          CFI ?RET_LOW load(1, XDATA, add(CFA_XSP16, literal(-5)))
          CFI ?RET_HIGH load(1, XDATA, add(CFA_XSP16, literal(-4)))
          CFI ?BRET_EXT load(1, XDATA, add(CFA_XSP16, literal(-3)))
          CFI DPL0 load(1, XDATA, add(CFA_XSP16, literal(-2)))
          CFI DPH0 load(1, XDATA, add(CFA_XSP16, literal(-1)))
          CFI CFA_SP SP+-2
          CFI CFA_XSP16 add(XSP16, 10)
          CFI Block cfiCond195 Using cfiCommon0
          CFI (cfiCond195) Function rxDiscardIsr
          CFI (cfiCond195) Conditional ??CrossCallReturnLabel_70
          CFI (cfiCond195) DPL0 Frame(CFA_SP, 4)
          CFI (cfiCond195) DPH0 Frame(CFA_SP, 5)
          CFI (cfiCond195) CFA_SP SP+-7
          CFI (cfiCond195) CFA_XSP16 add(XSP16, 16)
          CFI Block cfiPicker196 Using cfiCommon1
          CFI (cfiPicker196) NoFunction
          CFI (cfiPicker196) Picker
        MOV       DPTR,#0x6194
        MOV       A,#0x5
          CFI EndBlock cfiCond194
          CFI EndBlock cfiCond195
          CFI EndBlock cfiPicker196
        REQUIRE ??Subroutine38_0
        ; // Fall through to label ??Subroutine38_0

        RSEG BANKED_CODE:HUGECODE:NOROOT(0)
??Subroutine38_0:
          CFI Block cfiCond197 Using cfiCommon0
          CFI Function macRxInit
          CFI Conditional ??CrossCallReturnLabel_71
          CFI DPL0 Frame(CFA_SP, 4)
          CFI DPH0 Frame(CFA_SP, 5)
          CFI CFA_SP SP+-7
          CFI Block cfiCond198 Using cfiCommon0
          CFI (cfiCond198) Function rxFcsIsr
          CFI (cfiCond198) Conditional ??CrossCallReturnLabel_69
          CFI (cfiCond198) R6 load(1, XDATA, add(CFA_XSP16, literal(-10)))
          CFI (cfiCond198) VB load(1, XDATA, add(CFA_XSP16, literal(-9)))
          CFI (cfiCond198) V0 load(1, XDATA, add(CFA_XSP16, literal(-8)))
          CFI (cfiCond198) V1 load(1, XDATA, add(CFA_XSP16, literal(-7)))
          CFI (cfiCond198) R7 load(1, XDATA, add(CFA_XSP16, literal(-6)))
          CFI (cfiCond198) ?RET_LOW load(1, XDATA, add(CFA_XSP16, literal(-5)))
          CFI (cfiCond198) ?RET_HIGH load(1, XDATA, add(CFA_XSP16, literal(-4)))
          CFI (cfiCond198) ?BRET_EXT load(1, XDATA, add(CFA_XSP16, literal(-3)))
          CFI (cfiCond198) DPL0 load(1, XDATA, add(CFA_XSP16, literal(-2)))
          CFI (cfiCond198) DPH0 load(1, XDATA, add(CFA_XSP16, literal(-1)))
          CFI (cfiCond198) CFA_SP SP+-2
          CFI (cfiCond198) CFA_XSP16 add(XSP16, 10)
          CFI Block cfiCond199 Using cfiCommon0
          CFI (cfiCond199) Function rxDiscardIsr
          CFI (cfiCond199) Conditional ??CrossCallReturnLabel_70
          CFI (cfiCond199) DPL0 Frame(CFA_SP, 4)
          CFI (cfiCond199) DPH0 Frame(CFA_SP, 5)
          CFI (cfiCond199) CFA_SP SP+-7
          CFI (cfiCond199) CFA_XSP16 add(XSP16, 16)
          CFI Block cfiPicker200 Using cfiCommon1
          CFI (cfiPicker200) NoFunction
          CFI (cfiPicker200) Picker
        LCALL     ??Subroutine39_0 & 0xFFFF
??CrossCallReturnLabel_77:
        MOV       A,#`??rxStartIsr::?relay` & 0xff
        MOVX      @DPTR,A
        INC       DPTR
        MOV       A,#(`??rxStartIsr::?relay` >> 8) & 0xff
        MOVX      @DPTR,A
        RET
          CFI EndBlock cfiCond197
          CFI EndBlock cfiCond198
          CFI EndBlock cfiCond199
          CFI EndBlock cfiPicker200

        RSEG BANKED_CODE:HUGECODE:NOROOT(0)
?Subroutine22:
          CFI Block cfiCond201 Using cfiCommon0
          CFI Function rxStartIsr
          CFI Conditional ??CrossCallReturnLabel_72
          CFI R6 load(1, XDATA, add(CFA_XSP16, literal(-16)))
          CFI VB load(1, XDATA, add(CFA_XSP16, literal(-15)))
          CFI V0 load(1, XDATA, add(CFA_XSP16, literal(-14)))
          CFI V1 load(1, XDATA, add(CFA_XSP16, literal(-13)))
          CFI V2 load(1, XDATA, add(CFA_XSP16, literal(-12)))
          CFI V3 load(1, XDATA, add(CFA_XSP16, literal(-11)))
          CFI V4 load(1, XDATA, add(CFA_XSP16, literal(-10)))
          CFI V5 load(1, XDATA, add(CFA_XSP16, literal(-9)))
          CFI V6 load(1, XDATA, add(CFA_XSP16, literal(-8)))
          CFI V7 load(1, XDATA, add(CFA_XSP16, literal(-7)))
          CFI R7 load(1, XDATA, add(CFA_XSP16, literal(-6)))
          CFI ?RET_LOW load(1, XDATA, add(CFA_XSP16, literal(-5)))
          CFI ?RET_HIGH load(1, XDATA, add(CFA_XSP16, literal(-4)))
          CFI ?BRET_EXT load(1, XDATA, add(CFA_XSP16, literal(-3)))
          CFI DPL0 load(1, XDATA, add(CFA_XSP16, literal(-2)))
          CFI DPH0 load(1, XDATA, add(CFA_XSP16, literal(-1)))
          CFI CFA_SP SP+-2
          CFI CFA_XSP16 add(XSP16, 18)
          CFI Block cfiCond202 Using cfiCommon0
          CFI (cfiCond202) Function rxDiscardFrame
          CFI (cfiCond202) Conditional ??CrossCallReturnLabel_73
          CFI (cfiCond202) DPL0 Frame(CFA_SP, 4)
          CFI (cfiCond202) DPH0 Frame(CFA_SP, 5)
          CFI (cfiCond202) CFA_SP SP+-7
          CFI Block cfiPicker203 Using cfiCommon1
          CFI (cfiPicker203) NoFunction
          CFI (cfiPicker203) Picker
        MOV       DPTR,#0x6194
          CFI EndBlock cfiCond201
          CFI EndBlock cfiCond202
          CFI EndBlock cfiPicker203
        REQUIRE ??Subroutine39_0
        ; // Fall through to label ??Subroutine39_0

        RSEG BANKED_CODE:HUGECODE:NOROOT(0)
??Subroutine39_0:
          CFI Block cfiCond204 Using cfiCommon0
          CFI Function macRxThresholdIsr
          CFI Conditional ??CrossCallReturnLabel_74
          CFI DPL0 Frame(CFA_SP, 4)
          CFI DPH0 Frame(CFA_SP, 5)
          CFI CFA_SP SP+-7
          CFI Block cfiCond205 Using cfiCommon0
          CFI (cfiCond205) Function rxAddrIsr
          CFI (cfiCond205) Conditional ??CrossCallReturnLabel_75
          CFI (cfiCond205) R6 load(1, XDATA, add(CFA_XSP16, literal(-10)))
          CFI (cfiCond205) VB load(1, XDATA, add(CFA_XSP16, literal(-9)))
          CFI (cfiCond205) V0 load(1, XDATA, add(CFA_XSP16, literal(-8)))
          CFI (cfiCond205) V1 load(1, XDATA, add(CFA_XSP16, literal(-7)))
          CFI (cfiCond205) R7 load(1, XDATA, add(CFA_XSP16, literal(-6)))
          CFI (cfiCond205) ?RET_LOW load(1, XDATA, add(CFA_XSP16, literal(-5)))
          CFI (cfiCond205) ?RET_HIGH load(1, XDATA, add(CFA_XSP16, literal(-4)))
          CFI (cfiCond205) ?BRET_EXT load(1, XDATA, add(CFA_XSP16, literal(-3)))
          CFI (cfiCond205) DPL0 load(1, XDATA, add(CFA_XSP16, literal(-2)))
          CFI (cfiCond205) DPH0 load(1, XDATA, add(CFA_XSP16, literal(-1)))
          CFI (cfiCond205) CFA_SP SP+-2
          CFI (cfiCond205) CFA_XSP16 add(XSP16, 30)
          CFI Block cfiCond206 Using cfiCommon0
          CFI (cfiCond206) Function rxPrepPayload
          CFI (cfiCond206) Conditional ??CrossCallReturnLabel_76
          CFI (cfiCond206) DPL0 Frame(CFA_SP, 4)
          CFI (cfiCond206) DPH0 Frame(CFA_SP, 5)
          CFI (cfiCond206) CFA_SP SP+-7
          CFI Block cfiCond207 Using cfiCommon0
          CFI (cfiCond207) Function rxFcsIsr
          CFI (cfiCond207) Conditional ??CrossCallReturnLabel_77, ??CrossCallReturnLabel_69
          CFI (cfiCond207) R6 load(1, XDATA, add(CFA_XSP16, literal(-10)))
          CFI (cfiCond207) VB load(1, XDATA, add(CFA_XSP16, literal(-9)))
          CFI (cfiCond207) V0 load(1, XDATA, add(CFA_XSP16, literal(-8)))
          CFI (cfiCond207) V1 load(1, XDATA, add(CFA_XSP16, literal(-7)))
          CFI (cfiCond207) R7 load(1, XDATA, add(CFA_XSP16, literal(-6)))
          CFI (cfiCond207) ?RET_LOW load(1, XDATA, add(CFA_XSP16, literal(-5)))
          CFI (cfiCond207) ?RET_HIGH load(1, XDATA, add(CFA_XSP16, literal(-4)))
          CFI (cfiCond207) ?BRET_EXT load(1, XDATA, add(CFA_XSP16, literal(-3)))
          CFI (cfiCond207) DPL0 load(1, XDATA, add(CFA_XSP16, literal(-2)))
          CFI (cfiCond207) DPH0 load(1, XDATA, add(CFA_XSP16, literal(-1)))
          CFI (cfiCond207) CFA_SP SP+-4
          CFI (cfiCond207) CFA_XSP16 add(XSP16, 10)
          CFI Block cfiCond208 Using cfiCommon0
          CFI (cfiCond208) Function rxDiscardIsr
          CFI (cfiCond208) Conditional ??CrossCallReturnLabel_77, ??CrossCallReturnLabel_70
          CFI (cfiCond208) DPL0 Frame(CFA_SP, 4)
          CFI (cfiCond208) DPH0 Frame(CFA_SP, 5)
          CFI (cfiCond208) CFA_SP SP+-9
          CFI (cfiCond208) CFA_XSP16 add(XSP16, 16)
          CFI Block cfiCond209 Using cfiCommon0
          CFI (cfiCond209) Function macRxInit
          CFI (cfiCond209) Conditional ??CrossCallReturnLabel_77, ??CrossCallReturnLabel_71
          CFI (cfiCond209) DPL0 Frame(CFA_SP, 4)
          CFI (cfiCond209) DPH0 Frame(CFA_SP, 5)
          CFI (cfiCond209) CFA_SP SP+-9
          CFI Block cfiCond210 Using cfiCommon0
          CFI (cfiCond210) Function rxStartIsr
          CFI (cfiCond210) Conditional ??CrossCallReturnLabel_72
          CFI (cfiCond210) R6 load(1, XDATA, add(CFA_XSP16, literal(-16)))
          CFI (cfiCond210) VB load(1, XDATA, add(CFA_XSP16, literal(-15)))
          CFI (cfiCond210) V0 load(1, XDATA, add(CFA_XSP16, literal(-14)))
          CFI (cfiCond210) V1 load(1, XDATA, add(CFA_XSP16, literal(-13)))
          CFI (cfiCond210) V2 load(1, XDATA, add(CFA_XSP16, literal(-12)))
          CFI (cfiCond210) V3 load(1, XDATA, add(CFA_XSP16, literal(-11)))
          CFI (cfiCond210) V4 load(1, XDATA, add(CFA_XSP16, literal(-10)))
          CFI (cfiCond210) V5 load(1, XDATA, add(CFA_XSP16, literal(-9)))
          CFI (cfiCond210) V6 load(1, XDATA, add(CFA_XSP16, literal(-8)))
          CFI (cfiCond210) V7 load(1, XDATA, add(CFA_XSP16, literal(-7)))
          CFI (cfiCond210) R7 load(1, XDATA, add(CFA_XSP16, literal(-6)))
          CFI (cfiCond210) ?RET_LOW load(1, XDATA, add(CFA_XSP16, literal(-5)))
          CFI (cfiCond210) ?RET_HIGH load(1, XDATA, add(CFA_XSP16, literal(-4)))
          CFI (cfiCond210) ?BRET_EXT load(1, XDATA, add(CFA_XSP16, literal(-3)))
          CFI (cfiCond210) DPL0 load(1, XDATA, add(CFA_XSP16, literal(-2)))
          CFI (cfiCond210) DPH0 load(1, XDATA, add(CFA_XSP16, literal(-1)))
          CFI (cfiCond210) CFA_SP SP+-2
          CFI (cfiCond210) CFA_XSP16 add(XSP16, 18)
          CFI Block cfiCond211 Using cfiCommon0
          CFI (cfiCond211) Function rxDiscardFrame
          CFI (cfiCond211) Conditional ??CrossCallReturnLabel_73
          CFI (cfiCond211) DPL0 Frame(CFA_SP, 4)
          CFI (cfiCond211) DPH0 Frame(CFA_SP, 5)
          CFI (cfiCond211) CFA_SP SP+-7
          CFI Block cfiPicker212 Using cfiCommon1
          CFI (cfiPicker212) NoFunction
          CFI (cfiPicker212) Picker
        MOVX      @DPTR,A
        ; Setup parameters for indirect call
        MOV       DPTR,#pFuncRxState
        RET
          CFI EndBlock cfiCond204
          CFI EndBlock cfiCond205
          CFI EndBlock cfiCond206
          CFI EndBlock cfiCond207
          CFI EndBlock cfiCond208
          CFI EndBlock cfiCond209
          CFI EndBlock cfiCond210
          CFI EndBlock cfiCond211
          CFI EndBlock cfiPicker212
// 1166 
// 1167 
// 1168 /*=================================================================================================
// 1169  * @fn          rxDone
// 1170  *
// 1171  * @brief       Common exit point for receive.
// 1172  *
// 1173  * @param       none
// 1174  *
// 1175  * @return      none
// 1176  *=================================================================================================
// 1177  */

        RSEG BANKED_CODE:HUGECODE:NOROOT(0)
// 1178 static void rxDone(void)
rxDone:
          CFI Block cfiBlock213 Using cfiCommon0
          CFI Function rxDone
        CODE
// 1179 {
        FUNCALL rxDone, rxPostRxUpdates
        LOCFRAME ISTACK, 2, STACK
        LOCFRAME PSTACK, 0, STACK
        LOCFRAME XSTACK, 0, STACK
        LOCFRAME IOVERLAY, 0, STATIC
        LOCFRAME DOVERLAY, 0, STATIC
        ARGFRAME ISTACK, 2, STACK
        ARGFRAME PSTACK, 0, STACK
        ARGFRAME XSTACK, 0, STACK
        ARGFRAME IOVERLAY, 0, STATIC
        ARGFRAME DOVERLAY, 0, STATIC
        PUSH      DPL
          CFI DPL0 Frame(CFA_SP, 4)
          CFI CFA_SP SP+-4
        PUSH      DPH
          CFI DPH0 Frame(CFA_SP, 5)
          CFI CFA_SP SP+-5
        ; Saved register size: 2
        ; Auto size: 0
// 1180   /* Make sure the peak RSSI is reset */
// 1181   COMPRESSION_WORKAROUND_RESET_RSSI();
// 1182   
// 1183   /* if the receive FIFO has overflowed, flush it here */
// 1184   if (MAC_RADIO_RX_FIFO_HAS_OVERFLOWED())
        MOV       DPTR,#0x6193
        MOVX      A,@DPTR
        MOV       C,0xE0 /* A   */.6
        JNC       ??rxDone_0
        MOVX      A,@DPTR
        MOV       C,0xE0 /* A   */.7
        JC        ??rxDone_0
// 1185   {
// 1186     MAC_RADIO_FLUSH_RX_FIFO();
        MOV       0xe1,#-0x13
        MOV       0xe1,#-0x13
// 1187   }
// 1188 
// 1189   /* mark receive as inactive */
// 1190   macRxActive = MAC_RX_ACTIVE_NO_ACTIVITY;
??rxDone_0:
        MOV       DPTR,#macRxActive
        CLR       A
        MOVX      @DPTR,A
// 1191 
// 1192   /* if there is no outgoing ACK, run the post receive updates */
// 1193   if (!macRxOutgoingAckFlag)
        MOV       DPTR,#macRxOutgoingAckFlag
        MOVX      A,@DPTR
        JNZ       ??rxDone_1
// 1194   {
// 1195     rxPostRxUpdates();
        ; Setup parameters for call to function rxPostRxUpdates
        LCALL     `??rxPostRxUpdates::?relay`; Banked call to: rxPostRxUpdates
// 1196   }
// 1197 }
??rxDone_1:
        LJMP      ??Subroutine35_0 & 0xFFFF
          CFI EndBlock cfiBlock213
        REQUIRE RFST
// 1198 
// 1199 
// 1200 /**************************************************************************************************
// 1201  * @fn          macRxAckTxDoneCallback
// 1202  *
// 1203  * @brief       Function called when the outoing ACK has completed transmitting.
// 1204  *
// 1205  * @param       none
// 1206  *
// 1207  * @return      none
// 1208  **************************************************************************************************
// 1209  */

        RSEG BANKED_CODE:HUGECODE:NOROOT(0)
// 1210 void macRxAckTxDoneCallback(void)
macRxAckTxDoneCallback:
          CFI Block cfiBlock214 Using cfiCommon0
          CFI Function macRxAckTxDoneCallback
        CODE
// 1211 {
        FUNCALL macRxAckTxDoneCallback, rxPostRxUpdates
        LOCFRAME ISTACK, 2, STACK
        LOCFRAME PSTACK, 0, STACK
        LOCFRAME XSTACK, 0, STACK
        LOCFRAME IOVERLAY, 0, STATIC
        LOCFRAME DOVERLAY, 0, STATIC
        ARGFRAME ISTACK, 2, STACK
        ARGFRAME PSTACK, 0, STACK
        ARGFRAME XSTACK, 0, STACK
        ARGFRAME IOVERLAY, 0, STATIC
        ARGFRAME DOVERLAY, 0, STATIC
        PUSH      DPL
          CFI DPL0 Frame(CFA_SP, 4)
          CFI CFA_SP SP+-4
        PUSH      DPH
          CFI DPH0 Frame(CFA_SP, 5)
          CFI CFA_SP SP+-5
        ; Saved register size: 2
        ; Auto size: 0
// 1212   macRxOutgoingAckFlag = 0;
        MOV       DPTR,#macRxOutgoingAckFlag
        CLR       A
        MOVX      @DPTR,A
// 1213 
// 1214   /*
// 1215    *  With certain interrupt priorities and timing conditions, it is possible this callback
// 1216    *  could be executed before the primary receive logic completes.  To prevent this, the
// 1217    *  post updates are only executed if receive logic is no longer active.  In the case the
// 1218    *  post updates are not executed here, they will execute when the main receive logic
// 1219    *  completes.
// 1220    */
// 1221   if (!macRxActive)
        MOV       DPTR,#macRxActive
        MOVX      A,@DPTR
        JNZ       ??macRxAckTxDoneCallback_0
// 1222   {
// 1223     rxPostRxUpdates();
        ; Setup parameters for call to function rxPostRxUpdates
        LCALL     `??rxPostRxUpdates::?relay`; Banked call to: rxPostRxUpdates
// 1224   }
// 1225 }
??macRxAckTxDoneCallback_0:
        LJMP      ??Subroutine35_0 & 0xFFFF
          CFI EndBlock cfiBlock214
// 1226 
// 1227 
// 1228 /*=================================================================================================
// 1229  * @fn          rxPostRxUpdates
// 1230  *
// 1231  * @brief       Updates that need to be performed once receive is complete.
// 1232  *
// 1233  *              It is not fatal to execute this function if somehow receive is active.  Under
// 1234  *              certain timing/interrupt conditions a new receive may have started before this
// 1235  *              function executes.  This should happen very rarely (if it happens at all) and
// 1236  *              would cause no problems.
// 1237  *
// 1238  * @param       none
// 1239  *
// 1240  * @return      none
// 1241  *=================================================================================================
// 1242  */

        RSEG BANKED_CODE:HUGECODE:NOROOT(0)
// 1243 static void rxPostRxUpdates(void)
rxPostRxUpdates:
          CFI Block cfiBlock215 Using cfiCommon0
          CFI Function rxPostRxUpdates
        CODE
// 1244 {
        FUNCALL rxPostRxUpdates, macRxOffRequest
        LOCFRAME ISTACK, 2, STACK
        LOCFRAME PSTACK, 0, STACK
        LOCFRAME XSTACK, 0, STACK
        LOCFRAME IOVERLAY, 0, STATIC
        LOCFRAME DOVERLAY, 0, STATIC
        ARGFRAME ISTACK, 2, STACK
        ARGFRAME PSTACK, 0, STACK
        ARGFRAME XSTACK, 0, STACK
        ARGFRAME IOVERLAY, 0, STATIC
        ARGFRAME DOVERLAY, 0, STATIC
        FUNCALL rxPostRxUpdates, macRadioUpdateTxPower
        LOCFRAME ISTACK, 2, STACK
        LOCFRAME PSTACK, 0, STACK
        LOCFRAME XSTACK, 0, STACK
        LOCFRAME IOVERLAY, 0, STATIC
        LOCFRAME DOVERLAY, 0, STATIC
        ARGFRAME ISTACK, 2, STACK
        ARGFRAME PSTACK, 0, STACK
        ARGFRAME XSTACK, 0, STACK
        ARGFRAME IOVERLAY, 0, STATIC
        ARGFRAME DOVERLAY, 0, STATIC
        FUNCALL rxPostRxUpdates, macTxStartQueuedFrame
        LOCFRAME ISTACK, 2, STACK
        LOCFRAME PSTACK, 0, STACK
        LOCFRAME XSTACK, 0, STACK
        LOCFRAME IOVERLAY, 0, STATIC
        LOCFRAME DOVERLAY, 0, STATIC
        ARGFRAME ISTACK, 2, STACK
        ARGFRAME PSTACK, 0, STACK
        ARGFRAME XSTACK, 0, STACK
        ARGFRAME IOVERLAY, 0, STATIC
        ARGFRAME DOVERLAY, 0, STATIC
        PUSH      DPL
          CFI DPL0 Frame(CFA_SP, 4)
          CFI CFA_SP SP+-4
        PUSH      DPH
          CFI DPH0 Frame(CFA_SP, 5)
          CFI CFA_SP SP+-5
        ; Saved register size: 2
        ; Auto size: 0
// 1245   /* turn off receiver if permitted */
// 1246   macRxOffRequest();
        ; Setup parameters for call to function macRxOffRequest
        LCALL     `??macRxOffRequest::?relay`; Banked call to: macRxOffRequest
// 1247 
// 1248   /* update the transmit power, update may have been blocked by transmit of outgoing ACK */
// 1249   macRadioUpdateTxPower();
        ; Setup parameters for call to function macRadioUpdateTxPower
        LCALL     `??macRadioUpdateTxPower::?relay`; Banked call to: macRadioUpdateTxPower
// 1250 
// 1251   /* initiate and transmit that was queued during receive */
// 1252   macTxStartQueuedFrame();
        ; Setup parameters for call to function macTxStartQueuedFrame
        LCALL     `??macTxStartQueuedFrame::?relay`; Banked call to: macTxStartQueuedFrame
// 1253 }
        LJMP      ??Subroutine35_0 & 0xFFFF
          CFI EndBlock cfiBlock215
// 1254 
// 1255 
// 1256 /*=================================================================================================
// 1257  * @fn          rxDiscardFrame
// 1258  *
// 1259  * @brief       Initializes for discarding a packet.  Must be called before ACK is strobed.
// 1260  *
// 1261  * @param       none
// 1262  *
// 1263  * @return      none
// 1264  *=================================================================================================
// 1265  */

        RSEG BANKED_CODE:HUGECODE:NOROOT(0)
// 1266 static void rxDiscardFrame(void)
rxDiscardFrame:
          CFI Block cfiBlock216 Using cfiCommon0
          CFI Function rxDiscardFrame
        CODE
// 1267 {
        FUNCALL rxDiscardFrame, halAssertHandler
        LOCFRAME ISTACK, 2, STACK
        LOCFRAME PSTACK, 0, STACK
        LOCFRAME XSTACK, 0, STACK
        LOCFRAME IOVERLAY, 0, STATIC
        LOCFRAME DOVERLAY, 0, STATIC
        ARGFRAME ISTACK, 2, STACK
        ARGFRAME PSTACK, 0, STACK
        ARGFRAME XSTACK, 0, STACK
        ARGFRAME IOVERLAY, 0, STATIC
        ARGFRAME DOVERLAY, 0, STATIC
        FUNCALL rxDiscardFrame, rxDone
        LOCFRAME ISTACK, 2, STACK
        LOCFRAME PSTACK, 0, STACK
        LOCFRAME XSTACK, 0, STACK
        LOCFRAME IOVERLAY, 0, STATIC
        LOCFRAME DOVERLAY, 0, STATIC
        ARGFRAME ISTACK, 2, STACK
        ARGFRAME PSTACK, 0, STACK
        ARGFRAME XSTACK, 0, STACK
        ARGFRAME IOVERLAY, 0, STATIC
        ARGFRAME DOVERLAY, 0, STATIC
        PUSH      DPL
          CFI DPL0 Frame(CFA_SP, 4)
          CFI CFA_SP SP+-4
        PUSH      DPH
          CFI DPH0 Frame(CFA_SP, 5)
          CFI CFA_SP SP+-5
        ; Saved register size: 2
        ; Auto size: 0
// 1268   MAC_ASSERT(pFuncRxState == &rxStartIsr); /* illegal state for calling discard frame function */
        MOV       DPTR,#pFuncRxState
        MOVX      A,@DPTR
        XRL       A,#`??rxStartIsr::?relay` & 0xff
        JNZ       ??rxDiscardFrame_0
        INC       DPTR
        MOVX      A,@DPTR
        XRL       A,#(`??rxStartIsr::?relay` >> 8) & 0xff
??rxDiscardFrame_0:
        JZ        ??rxDiscardFrame_1
        ; Setup parameters for call to function halAssertHandler
        LCALL     `??halAssertHandler::?relay`; Banked call to: halAssertHandler
// 1269 
// 1270   if (rxUnreadLen == 0)
??rxDiscardFrame_1:
        MOV       DPTR,#rxUnreadLen
        MOVX      A,@DPTR
        JNZ       ??rxDiscardFrame_2
// 1271   {
// 1272     rxDone();
        ; Setup parameters for call to function rxDone
        LCALL     `??rxDone::?relay`; Banked call to: rxDone
        SJMP      ??rxDiscardFrame_3
// 1273   }
// 1274   else
// 1275   {
// 1276     rxNextLen = MIN(rxUnreadLen, MAX_PAYLOAD_BYTES_READ_PER_INTERRUPT);
??rxDiscardFrame_2:
        CLR       C
        SUBB      A,#0x10
        JNC       ??rxDiscardFrame_4
        MOVX      A,@DPTR
        MOV       DPTR,#rxNextLen
        SJMP      ??rxDiscardFrame_5
??rxDiscardFrame_4:
        MOV       DPTR,#rxNextLen
        MOV       A,#0x10
??rxDiscardFrame_5:
        MOVX      @DPTR,A
// 1277     MAC_RADIO_SET_RX_THRESHOLD(rxNextLen);
        MOVX      A,@DPTR
        DEC       A
        LCALL     ?Subroutine22 & 0xFFFF
// 1278     pFuncRxState = &rxDiscardIsr;
// 1279   }
??CrossCallReturnLabel_73:
        MOV       A,#`??rxDiscardIsr::?relay` & 0xff
        MOVX      @DPTR,A
        INC       DPTR
        MOV       A,#(`??rxDiscardIsr::?relay` >> 8) & 0xff
        MOVX      @DPTR,A
// 1280 }
??rxDiscardFrame_3:
        LJMP      ??Subroutine35_0 & 0xFFFF
          CFI EndBlock cfiBlock216
// 1281 
// 1282 
// 1283 /*=================================================================================================
// 1284  * @fn          rxDiscardIsr
// 1285  *
// 1286  * @brief       Receive ISR state for discarding a packet.
// 1287  *
// 1288  * @param       none
// 1289  *
// 1290  * @return      none
// 1291  *=================================================================================================
// 1292  */

        RSEG BANKED_CODE:HUGECODE:NOROOT(0)
// 1293 static void rxDiscardIsr(void)
rxDiscardIsr:
          CFI Block cfiBlock217 Using cfiCommon0
          CFI Function rxDiscardIsr
        CODE
// 1294 {
        FUNCALL rxDiscardIsr, macMemReadRxFifo
        LOCFRAME ISTACK, 2, STACK
        LOCFRAME PSTACK, 0, STACK
        LOCFRAME XSTACK, 16, STACK
        LOCFRAME IOVERLAY, 0, STATIC
        LOCFRAME DOVERLAY, 0, STATIC
        ARGFRAME ISTACK, 2, STACK
        ARGFRAME PSTACK, 0, STACK
        ARGFRAME XSTACK, 16, STACK
        ARGFRAME IOVERLAY, 0, STATIC
        ARGFRAME DOVERLAY, 0, STATIC
        FUNCALL rxDiscardIsr, rxDone
        LOCFRAME ISTACK, 2, STACK
        LOCFRAME PSTACK, 0, STACK
        LOCFRAME XSTACK, 16, STACK
        LOCFRAME IOVERLAY, 0, STATIC
        LOCFRAME DOVERLAY, 0, STATIC
        ARGFRAME ISTACK, 2, STACK
        ARGFRAME PSTACK, 0, STACK
        ARGFRAME XSTACK, 16, STACK
        ARGFRAME IOVERLAY, 0, STATIC
        ARGFRAME DOVERLAY, 0, STATIC
        PUSH      DPL
          CFI DPL0 Frame(CFA_SP, 4)
          CFI CFA_SP SP+-4
        PUSH      DPH
          CFI DPH0 Frame(CFA_SP, 5)
          CFI CFA_SP SP+-5
        ; Saved register size: 2
        ; Auto size: 16
        MOV       A,#-0x10
        LCALL     ?ALLOC_XSTACK8
          CFI CFA_XSP16 add(XSP16, 16)
// 1295   uint8 buf[MAX_PAYLOAD_BYTES_READ_PER_INTERRUPT];
// 1296 
// 1297   MAC_RADIO_READ_RX_FIFO(buf, rxNextLen);
        ; Setup parameters for call to function macMemReadRxFifo
        MOV       DPTR,#rxNextLen
        MOVX      A,@DPTR
        MOV       R1,A
        MOV       R2,?XSP + 0
        MOV       R3,?XSP + 1
        LCALL     `??macMemReadRxFifo::?relay`; Banked call to: macMemReadRxFifo
// 1298   rxUnreadLen -= rxNextLen;
        MOV       DPTR,#rxNextLen
        MOVX      A,@DPTR
        MOV       R0,A
        MOV       DPTR,#rxUnreadLen
        MOVX      A,@DPTR
        CLR       C
        SUBB      A,R0
        MOVX      @DPTR,A
// 1299 
// 1300   /* read out and discard bytes until all bytes of packet are disposed of */
// 1301   if (rxUnreadLen != 0)
        JZ        ??rxDiscardIsr_0
// 1302   {
// 1303     if (rxUnreadLen < MAX_PAYLOAD_BYTES_READ_PER_INTERRUPT)
        CLR       C
        SUBB      A,#0x10
        JNC       ??rxDiscardIsr_1
// 1304     {
// 1305       rxNextLen = rxUnreadLen;
        MOVX      A,@DPTR
        MOV       DPTR,#rxNextLen
        MOVX      @DPTR,A
// 1306       MAC_RADIO_SET_RX_THRESHOLD(rxNextLen);
        DEC       A
        MOV       DPTR,#0x6194
        MOVX      @DPTR,A
        SJMP      ??rxDiscardIsr_1
// 1307     }
// 1308   }
// 1309   else
// 1310   {
// 1311     /* reset threshold level, reset receive state, and complete receive logic */
// 1312     MAC_RADIO_SET_RX_THRESHOLD(RX_THRESHOLD_START_LEN);
??rxDiscardIsr_0:
        LCALL     ?Subroutine2 & 0xFFFF
// 1313     pFuncRxState = &rxStartIsr;
// 1314     rxDone();
??CrossCallReturnLabel_70:
        ; Setup parameters for call to function rxDone
        LCALL     `??rxDone::?relay`; Banked call to: rxDone
// 1315   }
// 1316 }
??rxDiscardIsr_1:
        MOV       A,#0x10
        LCALL     ?DEALLOC_XSTACK8
          CFI CFA_XSP16 XSP16+0
        LJMP      ??Subroutine35_0 & 0xFFFF
          CFI EndBlock cfiBlock217
// 1317 
// 1318 
// 1319 /**************************************************************************************************
// 1320  * @fn          macRxFifoOverflowIsr
// 1321  *
// 1322  * @brief       This interrupt service routine is called when RX FIFO overflow. Note that this
// 1323  *              exception does not retrieve the good frames that are trapped in the RX FIFO.
// 1324  *              It simply halts and cleanup the RX.
// 1325  *
// 1326  * @param       none
// 1327  *
// 1328  * @return      none
// 1329  **************************************************************************************************
// 1330  */

        RSEG BANKED_CODE:HUGECODE:NOROOT(0)
// 1331 MAC_INTERNAL_API void macRxFifoOverflowIsr(void)
macRxFifoOverflowIsr:
          CFI Block cfiBlock218 Using cfiCommon0
          CFI Function macRxFifoOverflowIsr
        CODE
// 1332 {
        FUNCALL macRxFifoOverflowIsr, macRxHaltCleanup
        LOCFRAME ISTACK, 2, STACK
        LOCFRAME PSTACK, 0, STACK
        LOCFRAME XSTACK, 0, STACK
        LOCFRAME IOVERLAY, 0, STATIC
        LOCFRAME DOVERLAY, 0, STATIC
        ARGFRAME ISTACK, 2, STACK
        ARGFRAME PSTACK, 0, STACK
        ARGFRAME XSTACK, 0, STACK
        ARGFRAME IOVERLAY, 0, STATIC
        ARGFRAME DOVERLAY, 0, STATIC
        PUSH      DPL
          CFI DPL0 Frame(CFA_SP, 4)
          CFI CFA_SP SP+-4
        PUSH      DPH
          CFI DPH0 Frame(CFA_SP, 5)
          CFI CFA_SP SP+-5
        ; Saved register size: 2
        ; Auto size: 0
// 1333   rxFifoOverflowCount++; /* This flag is used for debug purpose only */
        MOV       DPTR,#rxFifoOverflowCount
        MOVX      A,@DPTR
        INC       A
        MOVX      @DPTR,A
// 1334   macRxHaltCleanup();
        ; Setup parameters for call to function macRxHaltCleanup
        LCALL     `??macRxHaltCleanup::?relay`; Banked call to: macRxHaltCleanup
// 1335 }
        LJMP      ??Subroutine35_0 & 0xFFFF
          CFI EndBlock cfiBlock218
// 1336 
// 1337 
// 1338 /**************************************************************************************************
// 1339  * @fn          macRxPromiscuousMode
// 1340  *
// 1341  * @brief       Sets promiscuous mode - enabling or disabling it.
// 1342  *
// 1343  * @param       none
// 1344  *
// 1345  * @return      none
// 1346  **************************************************************************************************
// 1347  */

        RSEG BANKED_CODE:HUGECODE:NOROOT(0)
// 1348 MAC_INTERNAL_API void macRxPromiscuousMode(uint8 mode)
macRxPromiscuousMode:
          CFI Block cfiBlock219 Using cfiCommon0
          CFI Function macRxPromiscuousMode
        CODE
// 1349 {
        FUNCALL macRxPromiscuousMode, halAssertHandler
        LOCFRAME ISTACK, 0, STACK
        LOCFRAME PSTACK, 0, STACK
        LOCFRAME XSTACK, 9, STACK
        LOCFRAME IOVERLAY, 0, STATIC
        LOCFRAME DOVERLAY, 0, STATIC
        ARGFRAME ISTACK, 0, STACK
        ARGFRAME PSTACK, 0, STACK
        ARGFRAME XSTACK, 9, STACK
        ARGFRAME IOVERLAY, 0, STATIC
        ARGFRAME DOVERLAY, 0, STATIC
        MOV       A,#-0x9
        LCALL     ?BANKED_ENTER_XDATA
          CFI DPH0 load(1, XDATA, add(CFA_XSP16, literal(-1)))
          CFI DPL0 load(1, XDATA, add(CFA_XSP16, literal(-2)))
          CFI ?BRET_EXT load(1, XDATA, add(CFA_XSP16, literal(-3)))
          CFI ?RET_HIGH load(1, XDATA, add(CFA_XSP16, literal(-4)))
          CFI ?RET_LOW load(1, XDATA, add(CFA_XSP16, literal(-5)))
          CFI R7 load(1, XDATA, add(CFA_XSP16, literal(-6)))
          CFI V0 load(1, XDATA, add(CFA_XSP16, literal(-7)))
          CFI VB load(1, XDATA, add(CFA_XSP16, literal(-8)))
          CFI R6 load(1, XDATA, add(CFA_XSP16, literal(-9)))
          CFI CFA_SP SP+0
          CFI CFA_XSP16 add(XSP16, 9)
        ; Saved register size: 9
        ; Auto size: 0
        MOV       A,R1
        MOV       R6,A
// 1350   rxPromiscuousMode = mode;
        MOV       DPTR,#rxPromiscuousMode
        MOVX      @DPTR,A
// 1351 
// 1352   if (rxPromiscuousMode == MAC_PROMISCUOUS_MODE_OFF)
        JNZ       ??macRxPromiscuousMode_0
// 1353   {
// 1354     MAC_RADIO_TURN_ON_RX_FRAME_FILTERING();
        MOV       DPTR,#0x6180
        CLR       A
        MOVX      @DPTR,A
        MOVX      A,@DPTR
        ORL       A,#0x5
        SJMP      ??macRxPromiscuousMode_1
// 1355   }
// 1356   else
// 1357   {
// 1358     MAC_ASSERT((mode == MAC_PROMISCUOUS_MODE_WITH_BAD_CRC)   ||
// 1359                (mode == MAC_PROMISCUOUS_MODE_COMPLIANT));  /* invalid mode */
??macRxPromiscuousMode_0:
        MOV       A,#0x2
        XRL       A,R6
        JZ        ??macRxPromiscuousMode_2
        MOV       A,#0x1
        XRL       A,R6
        JZ        ??macRxPromiscuousMode_2
        ; Setup parameters for call to function halAssertHandler
        LCALL     `??halAssertHandler::?relay`; Banked call to: halAssertHandler
// 1360 
// 1361     MAC_RADIO_TURN_OFF_RX_FRAME_FILTERING();
??macRxPromiscuousMode_2:
        MOV       DPTR,#0x6180
        MOVX      A,@DPTR
        CLR       0xE0 /* A   */.0
??macRxPromiscuousMode_1:
        MOVX      @DPTR,A
// 1362   }
// 1363 }
        MOV       R7,#0x1
        LJMP      ?BANKED_LEAVE_XDATA
          CFI EndBlock cfiBlock219

        RSEG BANK_RELAYS:CODE:REORDER:NOROOT(0)
`??macRxInit::?relay`:
        CODE
        LCALL   ?BDISPATCH
        DATA24
        DC24    macRxInit

        RSEG BANK_RELAYS:CODE:REORDER:NOROOT(0)
`??macRxRadioPowerUpInit::?relay`:
        CODE
        LCALL   ?BDISPATCH
        DATA24
        DC24    macRxRadioPowerUpInit

        RSEG BANK_RELAYS:CODE:REORDER:NOROOT(0)
`??macRxTxReset::?relay`:
        CODE
        LCALL   ?BDISPATCH
        DATA24
        DC24    macRxTxReset

        RSEG BANK_RELAYS:CODE:REORDER:NOROOT(0)
`??macRxHaltCleanup::?relay`:
        CODE
        LCALL   ?BDISPATCH
        DATA24
        DC24    macRxHaltCleanup

        RSEG BANK_RELAYS:CODE:REORDER:NOROOT(0)
`??rxHaltCleanupFinalStep::?relay`:
        CODE
        LCALL   ?BDISPATCH
        DATA24
        DC24    rxHaltCleanupFinalStep

        RSEG BANK_RELAYS:CODE:REORDER:NOROOT(0)
`??macRxThresholdIsr::?relay`:
        CODE
        LCALL   ?BDISPATCH
        DATA24
        DC24    macRxThresholdIsr

        RSEG BANK_RELAYS:CODE:REORDER:NOROOT(0)
`??rxStartIsr::?relay`:
        CODE
        LCALL   ?BDISPATCH
        DATA24
        DC24    rxStartIsr

        RSEG BANK_RELAYS:CODE:REORDER:NOROOT(0)
`??rxAddrIsr::?relay`:
        CODE
        LCALL   ?BDISPATCH
        DATA24
        DC24    rxAddrIsr

        RSEG BANK_RELAYS:CODE:REORDER:NOROOT(0)
`??rxPrepPayload::?relay`:
        CODE
        LCALL   ?BDISPATCH
        DATA24
        DC24    rxPrepPayload

        RSEG BANK_RELAYS:CODE:REORDER:NOROOT(0)
`??rxPayloadIsr::?relay`:
        CODE
        LCALL   ?BDISPATCH
        DATA24
        DC24    rxPayloadIsr

        RSEG BANK_RELAYS:CODE:REORDER:NOROOT(0)
`??rxFcsIsr::?relay`:
        CODE
        LCALL   ?BDISPATCH
        DATA24
        DC24    rxFcsIsr

        RSEG BANK_RELAYS:CODE:REORDER:NOROOT(0)
`??rxDone::?relay`:
        CODE
        LCALL   ?BDISPATCH
        DATA24
        DC24    rxDone

        RSEG BANK_RELAYS:CODE:REORDER:NOROOT(0)
`??macRxAckTxDoneCallback::?relay`:
        CODE
        LCALL   ?BDISPATCH
        DATA24
        DC24    macRxAckTxDoneCallback

        RSEG BANK_RELAYS:CODE:REORDER:NOROOT(0)
`??rxPostRxUpdates::?relay`:
        CODE
        LCALL   ?BDISPATCH
        DATA24
        DC24    rxPostRxUpdates

        RSEG BANK_RELAYS:CODE:REORDER:NOROOT(0)
`??rxDiscardFrame::?relay`:
        CODE
        LCALL   ?BDISPATCH
        DATA24
        DC24    rxDiscardFrame

        RSEG BANK_RELAYS:CODE:REORDER:NOROOT(0)
`??rxDiscardIsr::?relay`:
        CODE
        LCALL   ?BDISPATCH
        DATA24
        DC24    rxDiscardIsr

        RSEG BANK_RELAYS:CODE:REORDER:NOROOT(0)
`??macRxFifoOverflowIsr::?relay`:
        CODE
        LCALL   ?BDISPATCH
        DATA24
        DC24    macRxFifoOverflowIsr

        RSEG BANK_RELAYS:CODE:REORDER:NOROOT(0)
`??macRxPromiscuousMode::?relay`:
        CODE
        LCALL   ?BDISPATCH
        DATA24
        DC24    macRxPromiscuousMode

        END
// 1364 
// 1365 #ifdef CC2591_COMPRESSION_WORKAROUND
// 1366 /**************************************************************************************************
// 1367  * @fn          macRxResetRssi
// 1368  *
// 1369  * @brief       This function reset RSSI peak if the device is not actively in TX or RX.
// 1370  *
// 1371  * @param       none
// 1372  *
// 1373  * @return      none
// 1374  **************************************************************************************************
// 1375  */
// 1376 void macRxResetRssi(void)
// 1377 {
// 1378   if ( !(macRxActive || macRxOutgoingAckFlag || macTxActive) )
// 1379   {
// 1380     COMPRESSION_WORKAROUND_RESET_RSSI();
// 1381   }
// 1382 }
// 1383 #endif /* CC2591_COMPRESSION_WORKAROUND */
// 1384 
// 1385 /**************************************************************************************************
// 1386  *                                  Compile Time Integrity Checks
// 1387  **************************************************************************************************
// 1388  */
// 1389 
// 1390 /* check for changes to the spec that would affect the source code */
// 1391 #if ((MAC_A_MAX_PHY_PACKET_SIZE   !=  0x7F )   ||  \ 
// 1392      (MAC_FCF_FIELD_LEN           !=  2    )   ||  \ 
// 1393      (MAC_FCF_FRAME_TYPE_POS      !=  0    )   ||  \ 
// 1394      (MAC_FCF_FRAME_PENDING_POS   !=  4    )   ||  \ 
// 1395      (MAC_FCF_ACK_REQUEST_POS     !=  5    )   ||  \ 
// 1396      (MAC_FCF_INTRA_PAN_POS       !=  6    )   ||  \ 
// 1397      (MAC_FCF_DST_ADDR_MODE_POS   !=  10   )   ||  \ 
// 1398      (MAC_FCF_FRAME_VERSION_POS   !=  12   )   ||  \ 
// 1399      (MAC_FCF_SRC_ADDR_MODE_POS   !=  14   ))
// 1400 #error "ERROR!  Change to the spec that requires modification of source code."
// 1401 #endif
// 1402 
// 1403 /* check for changes to the internal flags format */
// 1404 #if ((MAC_RX_FLAG_VERSION      !=  0x03)  ||  \ 
// 1405      (MAC_RX_FLAG_ACK_PENDING  !=  0x04)  ||  \ 
// 1406      (MAC_RX_FLAG_SECURITY     !=  0x08)  ||  \ 
// 1407      (MAC_RX_FLAG_PENDING      !=  0x10)  ||  \ 
// 1408      (MAC_RX_FLAG_ACK_REQUEST  !=  0x20)  ||  \ 
// 1409      (MAC_RX_FLAG_INTRA_PAN    !=  0x40))
// 1410 #error "ERROR!  Change to the internal RX flags format.  Requires modification of source code."
// 1411 #endif
// 1412 
// 1413 /* validate CRC OK bit optimization */
// 1414 #if (MAC_RX_FLAG_CRC_OK != PROPRIETARY_FCS_CRC_OK_BIT)
// 1415 #error "ERROR!  Optimization relies on these bits having the same position."
// 1416 #endif
// 1417 
// 1418 #if (MAC_RX_ACTIVE_NO_ACTIVITY != 0x00)
// 1419 #error "ERROR! Zero is reserved value of macRxActive. Allows boolean operations, e.g !macRxActive."
// 1420 #endif
// 1421 
// 1422 #if (MAC_PROMISCUOUS_MODE_OFF != 0x00)
// 1423 #error "ERROR! Zero is reserved value of rxPromiscuousMode. Allows boolean operations, e.g !rxPromiscuousMode."
// 1424 #endif
// 1425 
// 1426 
// 1427 /**************************************************************************************************
// 1428 */
// 
// 2 384 bytes in segment BANKED_CODE
//   108 bytes in segment BANK_RELAYS
//     4 bytes in segment CODE_C
//     5 bytes in segment SFR_AN
//    19 bytes in segment XDATA_Z
// 
//   112 bytes of CODE     memory
//     0 bytes of DATA     memory (+ 5 bytes shared)
// 2 384 bytes of HUGECODE memory
//    19 bytes of XDATA    memory
//
//Errors: none
//Warnings: none
