###############################################################################
#
# IAR C/C++ Compiler V10.10.1.4655 for 8051               25/Aug/2024  15:10:29
# Copyright 2004-2017 IAR Systems AB.
# Standalone license - IAR Embedded Workbench for 8051
#
#    Core               =  plain
#    Code model         =  banked
#    Data model         =  large
#    Calling convention =  xdata reentrant
#    Constant location  =  data_rom
#    Dptr setup         =  1,16
#                          
#    Source file        =  
#        C:\Texas
#        Instruments\ZStack-CC2530-2.5.1a\Components\stack\nwk\BindingTable.c
#    Command line       =  
#        -f C:\user\EWE616.tmp ("C:\Texas
#        Instruments\ZStack-CC2530-2.5.1a\Components\stack\nwk\BindingTable.c"
#        -D NWK_AUTO_POLL -D ZTOOL_P1 -D MT_TASK -D MT_SYS_FUNC -D MT_ZDO_FUNC
#        -D LCD_SUPPORTED=DEBUG -lC "C:\Texas
#        Instruments\ZStack-CC2530-2.5.1a\Projects\zstack\Samples\02_fan_wireless\CC2530DB\EndDeviceEB\List"
#        -lA "C:\Texas
#        Instruments\ZStack-CC2530-2.5.1a\Projects\zstack\Samples\02_fan_wireless\CC2530DB\EndDeviceEB\List"
#        --diag_suppress Pe001,Pa010 -o "C:\Texas
#        Instruments\ZStack-CC2530-2.5.1a\Projects\zstack\Samples\02_fan_wireless\CC2530DB\EndDeviceEB\Obj"
#        -e --debug --core=plain --dptr=16,1 --data_model=large
#        --code_model=banked --calling_convention=xdata_reentrant
#        --place_constants=data_rom --nr_virtual_regs 8 -f "C:\Texas
#        Instruments\ZStack-CC2530-2.5.1a\Projects\zstack\Samples\02_fan_wireless\CC2530DB\..\..\..\Tools\CC2530DB\f8wEndev.cfg"
#        (-DCPU32MHZ -DROOT=__near_func -DMAC_CFG_TX_DATA_MAX=3
#        -DMAC_CFG_TX_MAX=6 -DMAC_CFG_RX_MAX=3) -f "C:\Texas
#        Instruments\ZStack-CC2530-2.5.1a\Projects\zstack\Samples\02_fan_wireless\CC2530DB\..\..\..\Tools\CC2530DB\f8wConfig.cfg"
#        (-DZIGBEEPRO -DSECURE=0 -DZG_SECURE_DYNAMIC=0 -DREFLECTOR
#        -DDEFAULT_CHANLIST=0x00000800 -DZDAPP_CONFIG_PAN_ID=0xFFFF
#        -DNWK_START_DELAY=100 -DEXTENDED_JOINING_RANDOM_MASK=0x007F
#        -DBEACON_REQUEST_DELAY=100 -DBEACON_REQ_DELAY_MASK=0x00FF
#        -DLINK_STATUS_JITTER_MASK=0x007F -DROUTE_EXPIRY_TIME=30
#        -DAPSC_ACK_WAIT_DURATION_POLLED=3000 -DNWK_INDIRECT_MSG_TIMEOUT=7
#        -DMAX_RREQ_ENTRIES=8 -DAPSC_MAX_FRAME_RETRIES=3
#        -DNWK_MAX_DATA_RETRIES=2 -DMAX_POLL_FAILURE_RETRIES=2 -DMAX_BCAST=9
#        -DAPS_MAX_GROUPS=16 -DMAX_RTG_ENTRIES=40 -DNWK_MAX_BINDING_ENTRIES=4
#        -DMAX_BINDING_CLUSTER_IDS=4 "-DDEFAULT_KEY={0x01, 0x03, 0x05, 0x07,
#        0x09, 0x0B, 0x0D, 0x0F, 0x00, 0x02, 0x04, 0x06, 0x08, 0x0A, 0x0C,
#        0x0D}" -DMAC_MAX_FRAME_SIZE=116 -DZDNWKMGR_MIN_TRANSMISSIONS=20
#        "-DCONST=const __code" -DGENERIC=__generic -DRFD_RCVC_ALWAYS_ON=FALSE
#        -DPOLL_RATE=1000 -DQUEUED_POLL_RATE=100 -DRESPONSE_POLL_RATE=100
#        -DREJOIN_POLL_RATE=440) -I "C:\Texas
#        Instruments\ZStack-CC2530-2.5.1a\Projects\zstack\Samples\02_fan_wireless\CC2530DB\"
#        -I "C:\Texas
#        Instruments\ZStack-CC2530-2.5.1a\Projects\zstack\Samples\02_fan_wireless\CC2530DB\..\Source\"
#        -I "C:\Texas
#        Instruments\ZStack-CC2530-2.5.1a\Projects\zstack\Samples\02_fan_wireless\CC2530DB\..\..\..\ZMain\TI2530DB\"
#        -I "C:\Texas
#        Instruments\ZStack-CC2530-2.5.1a\Projects\zstack\Samples\02_fan_wireless\CC2530DB\..\..\..\..\..\Components\hal\include\"
#        -I "C:\Texas
#        Instruments\ZStack-CC2530-2.5.1a\Projects\zstack\Samples\02_fan_wireless\CC2530DB\..\..\..\..\..\Components\hal\target\CC2530EB\"
#        -I "C:\Texas
#        Instruments\ZStack-CC2530-2.5.1a\Projects\zstack\Samples\02_fan_wireless\CC2530DB\..\..\..\..\..\Components\mac\include\"
#        -I "C:\Texas
#        Instruments\ZStack-CC2530-2.5.1a\Projects\zstack\Samples\02_fan_wireless\CC2530DB\..\..\..\..\..\Components\mac\high_level\"
#        -I "C:\Texas
#        Instruments\ZStack-CC2530-2.5.1a\Projects\zstack\Samples\02_fan_wireless\CC2530DB\..\..\..\..\..\Components\mac\low_level\srf04\"
#        -I "C:\Texas
#        Instruments\ZStack-CC2530-2.5.1a\Projects\zstack\Samples\02_fan_wireless\CC2530DB\..\..\..\..\..\Components\mac\low_level\srf04\single_chip\"
#        -I "C:\Texas
#        Instruments\ZStack-CC2530-2.5.1a\Projects\zstack\Samples\02_fan_wireless\CC2530DB\..\..\..\..\..\Components\mt\"
#        -I "C:\Texas
#        Instruments\ZStack-CC2530-2.5.1a\Projects\zstack\Samples\02_fan_wireless\CC2530DB\..\..\..\..\..\Components\osal\include\"
#        -I "C:\Texas
#        Instruments\ZStack-CC2530-2.5.1a\Projects\zstack\Samples\02_fan_wireless\CC2530DB\..\..\..\..\..\Components\services\saddr\"
#        -I "C:\Texas
#        Instruments\ZStack-CC2530-2.5.1a\Projects\zstack\Samples\02_fan_wireless\CC2530DB\..\..\..\..\..\Components\services\sdata\"
#        -I "C:\Texas
#        Instruments\ZStack-CC2530-2.5.1a\Projects\zstack\Samples\02_fan_wireless\CC2530DB\..\..\..\..\..\Components\stack\af\"
#        -I "C:\Texas
#        Instruments\ZStack-CC2530-2.5.1a\Projects\zstack\Samples\02_fan_wireless\CC2530DB\..\..\..\..\..\Components\stack\nwk\"
#        -I "C:\Texas
#        Instruments\ZStack-CC2530-2.5.1a\Projects\zstack\Samples\02_fan_wireless\CC2530DB\..\..\..\..\..\Components\stack\sapi\"
#        -I "C:\Texas
#        Instruments\ZStack-CC2530-2.5.1a\Projects\zstack\Samples\02_fan_wireless\CC2530DB\..\..\..\..\..\Components\stack\sec\"
#        -I "C:\Texas
#        Instruments\ZStack-CC2530-2.5.1a\Projects\zstack\Samples\02_fan_wireless\CC2530DB\..\..\..\..\..\Components\stack\sys\"
#        -I "C:\Texas
#        Instruments\ZStack-CC2530-2.5.1a\Projects\zstack\Samples\02_fan_wireless\CC2530DB\..\..\..\..\..\Components\stack\zdo\"
#        -I "C:\Texas
#        Instruments\ZStack-CC2530-2.5.1a\Projects\zstack\Samples\02_fan_wireless\CC2530DB\..\..\..\..\..\Components\zmac\"
#        -I "C:\Texas
#        Instruments\ZStack-CC2530-2.5.1a\Projects\zstack\Samples\02_fan_wireless\CC2530DB\..\..\..\..\..\Components\zmac\f8w\"
#        -Ohz --require_prototypes --no_code_motion)
#    Locale             =  Chinese (Simplified)_China.936
#    List file          =  
#        C:\Texas
#        Instruments\ZStack-CC2530-2.5.1a\Projects\zstack\Samples\02_fan_wireless\CC2530DB\EndDeviceEB\List\BindingTable.lst
#    Object file        =  
#        C:\Texas
#        Instruments\ZStack-CC2530-2.5.1a\Projects\zstack\Samples\02_fan_wireless\CC2530DB\EndDeviceEB\Obj\BindingTable.r51
#
###############################################################################

C:\Texas Instruments\ZStack-CC2530-2.5.1a\Components\stack\nwk\BindingTable.c
      1          /**************************************************************************************************
      2            Filename:       BindingTable.c
      3            Revised:        $Date: 2012-03-28 15:40:50 -0700 (Wed, 28 Mar 2012) $
      4            Revision:       $Revision: 29930 $
      5          
      6            Description:    Device binding table functions.
      7          
      8          
      9            Copyright 2004-2012 Texas Instruments Incorporated. All rights reserved.
     10          
     11            IMPORTANT: Your use of this Software is limited to those specific rights
     12            granted under the terms of a software license agreement between the user
     13            who downloaded the software, his/her employer (which must be your employer)
     14            and Texas Instruments Incorporated (the "License"). You may not use this
     15            Software unless you agree to abide by the terms of the License. The License
     16            limits your use, and you acknowledge, that the Software may not be modified,
     17            copied or distributed unless embedded on a Texas Instruments microcontroller
     18            or used solely and exclusively in conjunction with a Texas Instruments radio
     19            frequency transceiver, which is integrated into your product. Other than for
     20            the foregoing purpose, you may not use, reproduce, copy, prepare derivative
     21            works of, modify, distribute, perform, display or sell this Software and/or
     22            its documentation for any purpose.
     23          
     24            YOU FURTHER ACKNOWLEDGE AND AGREE THAT THE SOFTWARE AND DOCUMENTATION ARE
     25            PROVIDED “AS IS” WITHOUT WARRANTY OF ANY KIND, EITHER EXPRESS OR IMPLIED,
     26            INCLUDING WITHOUT LIMITATION, ANY WARRANTY OF MERCHANTABILITY, TITLE,
     27            NON-INFRINGEMENT AND FITNESS FOR A PARTICULAR PURPOSE. IN NO EVENT SHALL
     28            TEXAS INSTRUMENTS OR ITS LICENSORS BE LIABLE OR OBLIGATED UNDER CONTRACT,
     29            NEGLIGENCE, STRICT LIABILITY, CONTRIBUTION, BREACH OF WARRANTY, OR OTHER
     30            LEGAL EQUITABLE THEORY ANY DIRECT OR INDIRECT DAMAGES OR EXPENSES
     31            INCLUDING BUT NOT LIMITED TO ANY INCIDENTAL, SPECIAL, INDIRECT, PUNITIVE
     32            OR CONSEQUENTIAL DAMAGES, LOST PROFITS OR LOST DATA, COST OF PROCUREMENT
     33            OF SUBSTITUTE GOODS, TECHNOLOGY, SERVICES, OR ANY CLAIMS BY THIRD PARTIES
     34            (INCLUDING BUT NOT LIMITED TO ANY DEFENSE THEREOF), OR OTHER SIMILAR COSTS.
     35          
     36            Should you have any questions regarding your right to use this Software,
     37            contact Texas Instruments Incorporated at www.TI.com.
     38          **************************************************************************************************/
     39          
     40          /*********************************************************************
     41           * INCLUDES
     42           */
     43          #include "ZComDef.h"
     44          #include "OSAL.h"
     45          #include "OSAL_Nv.h"
     46          #include "nwk_globals.h"
     47          #include "AddrMgr.h"
     48          #include "BindingTable.h"
     49          
     50          /*********************************************************************
     51           * MACROS
     52           */
     53          
     54          /*********************************************************************
     55           * CONSTANTS
     56           */
     57          #define NV_BIND_EMPTY   0xFF
     58          #define NV_BIND_REC_SIZE (gBIND_REC_SIZE)
     59          #define NV_BIND_ITEM_SIZE  (gBIND_REC_SIZE * gNWK_MAX_BINDING_ENTRIES)
     60          
     61          /*********************************************************************
     62           * TYPEDEFS
     63           */
     64          typedef struct
     65          {
     66            uint8        srcEP;
     67            uint16       srcIndex;
     68            uint16       dstIndex;
     69            uint8        dstEP;
     70            uint8        dstAddrMode;
     71            uint8        clusterIDs;
     72            uint16*      clusterIDList;
     73          } bindFields_t;
     74          
     75          /*********************************************************************
     76           * GLOBAL VARIABLES
     77           */
     78          
     79          /*********************************************************************
     80           * LOCAL FUNCTIONS
     81           */
     82          void BindAddrMgrCB( uint8 update, AddrMgrEntry_t *entryOld,
     83                              AddrMgrEntry_t *entryNew );
     84          BindingEntry_t *bindFindEmpty( void );
     85          uint16 bindingAddrMgsHelperFind( zAddrType_t *addr );
     86          uint8 bindingAddrMgsHelperConvert( uint16 idx, zAddrType_t *addr );
     87          void bindAddrMgrLocalLoad( void );
     88          uint16 bindAddrIndexGet( zAddrType_t* addr );
     89          
     90          /*********************************************************************
     91           * LOCAL VARIABLES
     92           */

   \                                 In  segment XDATA_Z, align 1, keep-with-next
     93          static uint8 bindAddrMgrLocalLoaded = FALSE;
   \                     bindAddrMgrLocalLoaded:
   \   000000                DS 1
   \   000001                REQUIRE __INIT_XDATA_Z
     94          
     95          /*********************************************************************
     96           * Function Pointers
     97           */
     98          

   \                                 In  segment XDATA_Z, align 1, keep-with-next
     99          BindingEntry_t *(*pbindAddEntry)( byte srcEpInt,
   \                     pbindAddEntry:
   \   000000                DS 2
   \   000002                REQUIRE __INIT_XDATA_Z
    100                                            zAddrType_t *dstAddr, byte dstEpInt,
    101                                            byte numClusterIds, uint16 *clusterIds ) = (void*)NULL;

   \                                 In  segment XDATA_Z, align 1, keep-with-next
    102          uint16 (*pbindNumOfEntries)( void ) = (void*)NULL;
   \                     pbindNumOfEntries:
   \   000000                DS 2
   \   000002                REQUIRE __INIT_XDATA_Z

   \                                 In  segment XDATA_Z, align 1, keep-with-next
    103          void (*pbindRemoveDev)( zAddrType_t *Addr ) = (void*)NULL;
   \                     pbindRemoveDev:
   \   000000                DS 2
   \   000002                REQUIRE __INIT_XDATA_Z

   \                                 In  segment XDATA_Z, align 1, keep-with-next
    104          byte (*pBindInitNV)( void ) = (void*)NULL;
   \                     pBindInitNV:
   \   000000                DS 2
   \   000002                REQUIRE __INIT_XDATA_Z

   \                                 In  segment XDATA_Z, align 1, keep-with-next
    105          void (*pBindSetDefaultNV)( void ) = (void*)NULL;
   \                     pBindSetDefaultNV:
   \   000000                DS 2
   \   000002                REQUIRE __INIT_XDATA_Z

   \                                 In  segment XDATA_Z, align 1, keep-with-next
    106          uint16 (*pBindRestoreFromNV)( void ) = (void*)NULL;
   \                     pBindRestoreFromNV:
   \   000000                DS 2
   \   000002                REQUIRE __INIT_XDATA_Z

   \                                 In  segment XDATA_Z, align 1, keep-with-next
    107          void (*pBindWriteNV)( void ) = (void*)NULL;
   \                     pBindWriteNV:
   \   000000                DS 2
   \   000002                REQUIRE __INIT_XDATA_Z
    108          
    109          #if ( ADDRMGR_CALLBACK_ENABLED == 1 )
    110          /*********************************************************************
    111           * @fn      BindAddrMgrCB()
    112           *
    113           * @brief   Address Manager Callback function
    114           *
    115           * @param   update -
    116           * @param   entry -
    117           *
    118           * @return  pointer to
    119           */
    120          void BindAddrMgrCB( uint8 update, AddrMgrEntry_t *entryNew,
    121                              AddrMgrEntry_t *entryOld )
    122          {
    123            // Check for either deleted items or changed Extended (Duplicate) addresses
    124          }
    125          #endif // ( ADDRMGR_CALLBACK_ENABLED == 1 )
    126          
    127          /*********************************************************************
    128           * @fn      InitBindingTable()
    129           *
    130           * @brief
    131           *
    132           *   This function is used to initialise the binding table
    133           *
    134           * @param   none
    135           *
    136           * @return  none
    137           */

   \                                 In  segment BANKED_CODE, align 1, keep-with-next
    138          void InitBindingTable( void )
   \                     InitBindingTable:
    139          {
   \   000000                REQUIRE ?V0
   \   000000                REQUIRE ?V1
   \   000000   74F6         MOV       A,#-0xa
   \   000002   12....       LCALL     ?BANKED_ENTER_XDATA
   \   000005                ; Saved register size: 10
   \   000005                ; Auto size: 0
    140            osal_memset( BindingTable, 0xFF, gBIND_REC_SIZE * gNWK_MAX_BINDING_ENTRIES );
   \   000005                ; Setup parameters for call to function osal_memset
   \   000005   12....       LCALL     ?Subroutine15 & 0xFFFF
   \                     ??CrossCallReturnLabel_52:
   \   000008   12....       LCALL     ?Subroutine19 & 0xFFFF
   \                     ??CrossCallReturnLabel_19:
   \   00000B   EC           MOV       A,R4
   \   00000C   85..F0       MOV       B,?V0
   \   00000F   A4           MUL       AB
   \   000010   CC           XCH       A,R4
   \   000011   A8F0         MOV       R0,B
   \   000013   85..F0       MOV       B,?V1
   \   000016   A4           MUL       AB
   \   000017   28           ADD       A,R0
   \   000018   F8           MOV       R0,A
   \   000019   85..F0       MOV       B,?V0
   \   00001C   ED           MOV       A,R5
   \   00001D   A4           MUL       AB
   \   00001E   28           ADD       A,R0
   \   00001F   FD           MOV       R5,A
   \   000020   79FF         MOV       R1,#-0x1
   \   000022   7A..         MOV       R2,#BindingTable & 0xff
   \   000024   7B..         MOV       R3,#(BindingTable >> 8) & 0xff
   \   000026   12....       LCALL     `??osal_memset::?relay`; Banked call to: osal_memset
    141          
    142            pbindAddEntry = bindAddEntry;
   \   000029   90....       MOV       DPTR,#pbindAddEntry
   \   00002C   74..         MOV       A,#`??bindAddEntry::?relay` & 0xff
   \   00002E   F0           MOVX      @DPTR,A
   \   00002F   A3           INC       DPTR
   \   000030   74..         MOV       A,#(`??bindAddEntry::?relay` >> 8) & 0xff
   \   000032   F0           MOVX      @DPTR,A
    143            pbindNumOfEntries = bindNumOfEntries;
   \   000033   90....       MOV       DPTR,#pbindNumOfEntries
   \   000036   74..         MOV       A,#`??bindNumOfEntries::?relay` & 0xff
   \   000038   F0           MOVX      @DPTR,A
   \   000039   A3           INC       DPTR
   \   00003A   74..         MOV       A,#(`??bindNumOfEntries::?relay` >> 8) & 0xff
   \   00003C   F0           MOVX      @DPTR,A
    144            pbindRemoveDev = bindRemoveDev;
   \   00003D   90....       MOV       DPTR,#pbindRemoveDev
   \   000040   74..         MOV       A,#`??bindRemoveDev::?relay` & 0xff
   \   000042   F0           MOVX      @DPTR,A
   \   000043   A3           INC       DPTR
   \   000044   74..         MOV       A,#(`??bindRemoveDev::?relay` >> 8) & 0xff
   \   000046   F0           MOVX      @DPTR,A
    145            pBindInitNV = BindInitNV;
   \   000047   90....       MOV       DPTR,#pBindInitNV
   \   00004A   74..         MOV       A,#`??BindInitNV::?relay` & 0xff
   \   00004C   F0           MOVX      @DPTR,A
   \   00004D   A3           INC       DPTR
   \   00004E   74..         MOV       A,#(`??BindInitNV::?relay` >> 8) & 0xff
   \   000050   F0           MOVX      @DPTR,A
    146            pBindSetDefaultNV = BindSetDefaultNV;
   \   000051   90....       MOV       DPTR,#pBindSetDefaultNV
   \   000054   74..         MOV       A,#`??BindSetDefaultNV::?relay` & 0xff
   \   000056   F0           MOVX      @DPTR,A
   \   000057   A3           INC       DPTR
   \   000058   74..         MOV       A,#(`??BindSetDefaultNV::?relay` >> 8) & 0xff
   \   00005A   F0           MOVX      @DPTR,A
    147            pBindRestoreFromNV = BindRestoreFromNV;
   \   00005B   90....       MOV       DPTR,#pBindRestoreFromNV
   \   00005E   74..         MOV       A,#`??BindRestoreFromNV::?relay` & 0xff
   \   000060   F0           MOVX      @DPTR,A
   \   000061   A3           INC       DPTR
   \   000062   74..         MOV       A,#(`??BindRestoreFromNV::?relay` >> 8) & 0xff
   \   000064   F0           MOVX      @DPTR,A
    148            pBindWriteNV = BindWriteNV;
   \   000065   90....       MOV       DPTR,#pBindWriteNV
   \   000068   74..         MOV       A,#`??BindWriteNV::?relay` & 0xff
   \   00006A   F0           MOVX      @DPTR,A
   \   00006B   A3           INC       DPTR
   \   00006C   74..         MOV       A,#(`??BindWriteNV::?relay` >> 8) & 0xff
   \   00006E   F0           MOVX      @DPTR,A
    149          
    150            bindAddrMgrLocalLoaded = FALSE;
   \   00006F   90....       MOV       DPTR,#bindAddrMgrLocalLoaded
   \   000072   E4           CLR       A
   \   000073   F0           MOVX      @DPTR,A
    151          
    152          #if ( ADDRMGR_CALLBACK_ENABLED == 1 )
    153            // Register with the address manager
    154            AddrMgrRegister( ADDRMGR_REG_BINDING, BindAddrMgrCB );
    155          #endif
    156          }
   \   000074   80..         SJMP      ??Subroutine34_0

   \                                 In  segment BANKED_CODE, align 1, keep-with-next
   \                     ??Subroutine34_0:
   \   000000   7F02         MOV       R7,#0x2
   \   000002   02....       LJMP      ?BANKED_LEAVE_XDATA

   \                                 In  segment BANKED_CODE, align 1, keep-with-next
   \                     ?Subroutine15:
   \   000000   90....       MOV       DPTR,#gBIND_REC_SIZE
   \   000003                REQUIRE ??Subroutine37_0
   \   000003                ; // Fall through to label ??Subroutine37_0

   \                                 In  segment BANKED_CODE, align 1, keep-with-next
   \                     ??Subroutine37_0:
   \   000000   E4           CLR       A
   \   000001   93           MOVC      A,@A+DPTR
   \   000002   FC           MOV       R4,A
   \   000003   7401         MOV       A,#0x1
   \   000005   93           MOVC      A,@A+DPTR
   \   000006   FD           MOV       R5,A
   \   000007   22           RET

   \                                 In  segment BANKED_CODE, align 1, keep-with-next
   \                     ?Subroutine19:
   \   000000   90....       MOV       DPTR,#gNWK_MAX_BINDING_ENTRIES
   \   000003   12....       LCALL     ?Subroutine33 & 0xFFFF
   \                     ??CrossCallReturnLabel_42:
   \   000006   22           RET

   \                                 In  segment BANKED_CODE, align 1, keep-with-next
   \                     ?Subroutine33:
   \   000000   E4           CLR       A
   \   000001   93           MOVC      A,@A+DPTR
   \   000002   F5..         MOV       ?V0,A
   \   000004   7401         MOV       A,#0x1
   \   000006   93           MOVC      A,@A+DPTR
   \   000007   F5..         MOV       ?V1,A
   \   000009   22           RET
    157          
    158          /*********************************************************************
    159           * @fn      bindFindEmpty()
    160           *
    161           * @brief   This function returns a pointer to an empty binding slot
    162           *
    163           * @param   none
    164           *
    165           * @return  pointer to binding table entry, NULL if not added
    166           */

   \                                 In  segment BANKED_CODE, align 1, keep-with-next
    167          BindingEntry_t *bindFindEmpty( void )
   \                     bindFindEmpty:
    168          {
   \   000000   C082         PUSH      DPL
   \   000002   C083         PUSH      DPH
   \   000004                ; Saved register size: 2
   \   000004                ; Auto size: 0
    169            uint16 x;
    170          
    171            for ( x = 0; x < gNWK_MAX_BINDING_ENTRIES; x++ )
   \   000004   7800         MOV       R0,#0x0
   \   000006   7900         MOV       R1,#0x0
   \   000008   8005         SJMP      ??bindFindEmpty_0
   \                     ??bindFindEmpty_1:
   \   00000A   08           INC       R0
   \   00000B   E8           MOV       A,R0
   \   00000C   7001         JNZ       ??bindFindEmpty_0
   \   00000E   09           INC       R1
   \                     ??bindFindEmpty_0:
   \   00000F   12....       LCALL     ?Subroutine8 & 0xFFFF
   \                     ??CrossCallReturnLabel_0:
   \   000012   5029         JNC       ??bindFindEmpty_2
    172            {
    173              // It's empty if the index is "Not Found"
    174              if ( BindingTable[x].srcEP == NV_BIND_EMPTY )
   \   000014   E8           MOV       A,R0
   \   000015   FA           MOV       R2,A
   \   000016   E9           MOV       A,R1
   \   000017   FB           MOV       R3,A
   \   000018   EA           MOV       A,R2
   \   000019   75F00E       MOV       B,#0xe
   \   00001C   A4           MUL       AB
   \   00001D   FA           MOV       R2,A
   \   00001E   ACF0         MOV       R4,B
   \   000020   75F00E       MOV       B,#0xe
   \   000023   EB           MOV       A,R3
   \   000024   A4           MUL       AB
   \   000025   2C           ADD       A,R4
   \   000026   12....       LCALL     ??Subroutine38_0 & 0xFFFF
   \                     ??CrossCallReturnLabel_62:
   \   000029   F4           CPL       A
   \   00002A   70DE         JNZ       ??bindFindEmpty_1
    175              {
    176                return ( &BindingTable[x] );
   \   00002C   75F00E       MOV       B,#0xe
   \   00002F   E9           MOV       A,R1
   \   000030   A4           MUL       AB
   \   000031   2C           ADD       A,R4
   \   000032   F9           MOV       R1,A
   \   000033   74..         MOV       A,#BindingTable & 0xff
   \   000035   2A           ADD       A,R2
   \   000036   FA           MOV       R2,A
   \   000037   74..         MOV       A,#(BindingTable >> 8) & 0xff
   \   000039   39           ADDC      A,R1
   \   00003A   FB           MOV       R3,A
   \   00003B   8004         SJMP      ??bindFindEmpty_3
    177              }
    178            }
    179          
    180            return ( (BindingEntry_t *)NULL );
   \                     ??bindFindEmpty_2:
   \   00003D   7A00         MOV       R2,#0x0
   \   00003F   7B00         MOV       R3,#0x0
   \                     ??bindFindEmpty_3:
   \   000041   02....       LJMP      ??Subroutine46_0 & 0xFFFF
    181          }

   \                                 In  segment BANKED_CODE, align 1, keep-with-next
   \                     ??Subroutine38_0:
   \   000000   FB           MOV       R3,A
   \   000001   74..         MOV       A,#BindingTable & 0xff
   \   000003   2A           ADD       A,R2
   \   000004   F582         MOV       DPL,A
   \   000006   74..         MOV       A,#(BindingTable >> 8) & 0xff
   \   000008                REQUIRE ??Subroutine39_0
   \   000008                ; // Fall through to label ??Subroutine39_0

   \                                 In  segment BANKED_CODE, align 1, keep-with-next
   \                     ??Subroutine39_0:
   \   000000   3B           ADDC      A,R3
   \   000001   F583         MOV       DPH,A
   \   000003   E0           MOVX      A,@DPTR
   \   000004   22           RET

   \                                 In  segment BANKED_CODE, align 1, keep-with-next
   \                     ?Subroutine8:
   \   000000   90....       MOV       DPTR,#gNWK_MAX_BINDING_ENTRIES
   \   000003   E4           CLR       A
   \   000004   93           MOVC      A,@A+DPTR
   \   000005   FA           MOV       R2,A
   \   000006   7401         MOV       A,#0x1
   \   000008   93           MOVC      A,@A+DPTR
   \   000009   FB           MOV       R3,A
   \   00000A   C3           CLR       C
   \   00000B   E8           MOV       A,R0
   \   00000C   9A           SUBB      A,R2
   \   00000D   E9           MOV       A,R1
   \   00000E   9B           SUBB      A,R3
   \   00000F   22           RET

   \                                 In  segment BANKED_CODE, align 1, keep-with-next
   \                     ??Subroutine46_0:
   \   000000   D083         POP       DPH
   \   000002   D082         POP       DPL
   \   000004   02....       LJMP      ?BRET
    182          
    183          /*********************************************************************
    184           * @fn      bindNumOfEntries()
    185           *
    186           * @brief   This function returns the number of binding table entries.
    187           *          The return for this is the number of clusters in the
    188           *          table NOT the number of entries.
    189           *
    190           * @param   none
    191           *
    192           * @return  number of entries
    193           */

   \                                 In  segment BANKED_CODE, align 1, keep-with-next
    194          uint16 bindNumOfEntries( void )
   \                     bindNumOfEntries:
    195          {
   \   000000   74F7         MOV       A,#-0x9
   \   000002   12....       LCALL     ?BANKED_ENTER_XDATA
   \   000005                ; Saved register size: 9
   \   000005                ; Auto size: 0
    196            uint16 x;
    197            uint16 found;
    198          
    199            for ( found = 0, x = 0; x < gNWK_MAX_BINDING_ENTRIES; x++ )
   \   000005   7A00         MOV       R2,#0x0
   \   000007   7B00         MOV       R3,#0x0
   \   000009   7800         MOV       R0,#0x0
   \   00000B   7900         MOV       R1,#0x0
   \   00000D   8049         SJMP      ??bindNumOfEntries_0
    200            {
    201              // It's empty if the index is "Not Found"
    202              if ( BindingTable[x].srcEP != NV_BIND_EMPTY )
   \                     ??bindNumOfEntries_1:
   \   00000F   E8           MOV       A,R0
   \   000010   FC           MOV       R4,A
   \   000011   E9           MOV       A,R1
   \   000012   FD           MOV       R5,A
   \   000013   EC           MOV       A,R4
   \   000014   75F00E       MOV       B,#0xe
   \   000017   A4           MUL       AB
   \   000018   FC           MOV       R4,A
   \   000019   AEF0         MOV       R6,B
   \   00001B   75F00E       MOV       B,#0xe
   \   00001E   ED           MOV       A,R5
   \   00001F   A4           MUL       AB
   \   000020   2E           ADD       A,R6
   \   000021   FD           MOV       R5,A
   \   000022   74..         MOV       A,#BindingTable & 0xff
   \   000024   2C           ADD       A,R4
   \   000025   F582         MOV       DPL,A
   \   000027   74..         MOV       A,#(BindingTable >> 8) & 0xff
   \   000029   3D           ADDC      A,R5
   \   00002A   F583         MOV       DPH,A
   \   00002C   E0           MOVX      A,@DPTR
   \   00002D   F4           CPL       A
   \   00002E   6023         JZ        ??bindNumOfEntries_2
    203              {
    204                found += BindingTable[x].numClusterIds;
   \   000030   E8           MOV       A,R0
   \   000031   FC           MOV       R4,A
   \   000032   E9           MOV       A,R1
   \   000033   FD           MOV       R5,A
   \   000034   EC           MOV       A,R4
   \   000035   75F00E       MOV       B,#0xe
   \   000038   A4           MUL       AB
   \   000039   FC           MOV       R4,A
   \   00003A   75F00E       MOV       B,#0xe
   \   00003D   ED           MOV       A,R5
   \   00003E   A4           MUL       AB
   \   00003F   2E           ADD       A,R6
   \   000040   FD           MOV       R5,A
   \   000041   74..         MOV       A,#(BindingTable + 5) & 0xff
   \   000043   2C           ADD       A,R4
   \   000044   F582         MOV       DPL,A
   \   000046   74..         MOV       A,#((BindingTable + 5) >> 8) & 0xff
   \   000048   3D           ADDC      A,R5
   \   000049   F583         MOV       DPH,A
   \   00004B   E0           MOVX      A,@DPTR
   \   00004C   FC           MOV       R4,A
   \   00004D   EA           MOV       A,R2
   \   00004E   2C           ADD       A,R4
   \   00004F   FA           MOV       R2,A
   \   000050   E4           CLR       A
   \   000051   3B           ADDC      A,R3
   \   000052   FB           MOV       R3,A
    205              }
    206            }
   \                     ??bindNumOfEntries_2:
   \   000053   08           INC       R0
   \   000054   E8           MOV       A,R0
   \   000055   7001         JNZ       ??bindNumOfEntries_0
   \   000057   09           INC       R1
   \                     ??bindNumOfEntries_0:
   \   000058   90....       MOV       DPTR,#gNWK_MAX_BINDING_ENTRIES
   \   00005B   12....       LCALL     ??Subroutine37_0 & 0xFFFF
   \                     ??CrossCallReturnLabel_51:
   \   00005E   C3           CLR       C
   \   00005F   E8           MOV       A,R0
   \   000060   9C           SUBB      A,R4
   \   000061   E9           MOV       A,R1
   \   000062   9D           SUBB      A,R5
   \   000063   40AA         JC        ??bindNumOfEntries_1
    207          
    208            return ( found );
   \   000065   02....       LJMP      ?Subroutine2 & 0xFFFF
    209          }

   \                                 In  segment BANKED_CODE, align 1, keep-with-next
   \                     ?Subroutine2:
   \   000000   7F01         MOV       R7,#0x1
   \   000002   02....       LJMP      ?BANKED_LEAVE_XDATA
    210          
    211          /*********************************************************************
    212           * @fn      bindCapacity()
    213           *
    214           * @brief   This function returns the number of binding entries
    215           *          possible and used.
    216           *
    217           * @param   maxEntries - pointer to a place to put the max entries
    218           * @param   usedEntries - pointer to a place to put the number
    219           *               of used entries
    220           *
    221           * @return  none
    222           */

   \                                 In  segment BANKED_CODE, align 1, keep-with-next
    223          void bindCapacity( uint16 *maxEntries, uint16 *usedEntries  )
   \                     bindCapacity:
    224          {
   \   000000                REQUIRE ?V0
   \   000000                REQUIRE ?V1
   \   000000                REQUIRE ?V2
   \   000000   74F5         MOV       A,#-0xb
   \   000002   12....       LCALL     ?BANKED_ENTER_XDATA
   \   000005                ; Saved register size: 11
   \   000005                ; Auto size: 0
   \   000005   EA           MOV       A,R2
   \   000006   FE           MOV       R6,A
   \   000007   EB           MOV       A,R3
   \   000008   FF           MOV       R7,A
    225            uint16 x;
    226            uint16 used;
    227          
    228            for ( used = 0, x = 0; x < gNWK_MAX_BINDING_ENTRIES; x++ )
   \   000009   75..00       MOV       ?V0,#0x0
   \   00000C   75..00       MOV       ?V1,#0x0
   \   00000F   7800         MOV       R0,#0x0
   \   000011   7900         MOV       R1,#0x0
   \   000013   8013         SJMP      ??bindCapacity_0
    229            {
    230              // It's empty if the index is "Not Found"
    231              if ( BindingTable[x].srcEP != NV_BIND_EMPTY )
   \                     ??bindCapacity_1:
   \   000015   12....       LCALL     ?Subroutine25 & 0xFFFF
   \                     ??CrossCallReturnLabel_63:
   \   000018   F4           CPL       A
   \   000019   6008         JZ        ??bindCapacity_2
    232              {
    233                used++;
   \   00001B   05..         INC       ?V0
   \   00001D   E5..         MOV       A,?V0
   \   00001F   7002         JNZ       ??bindCapacity_2
   \   000021   05..         INC       ?V1
    234              }
    235            }
   \                     ??bindCapacity_2:
   \   000023   08           INC       R0
   \   000024   E8           MOV       A,R0
   \   000025   7001         JNZ       ??bindCapacity_0
   \   000027   09           INC       R1
   \                     ??bindCapacity_0:
   \   000028   12....       LCALL     ?Subroutine8 & 0xFFFF
   \                     ??CrossCallReturnLabel_1:
   \   00002B   40E8         JC        ??bindCapacity_1
    236          
    237            *maxEntries = gNWK_MAX_BINDING_ENTRIES;
   \   00002D   12....       LCALL     ?Subroutine18 & 0xFFFF
   \                     ??CrossCallReturnLabel_16:
   \   000030   8E82         MOV       DPL,R6
   \   000032   8F83         MOV       DPH,R7
   \   000034   E8           MOV       A,R0
   \   000035   F0           MOVX      @DPTR,A
   \   000036   A3           INC       DPTR
   \   000037   E9           MOV       A,R1
   \   000038   F0           MOVX      @DPTR,A
    238            *usedEntries = used;
   \   000039   8C82         MOV       DPL,R4
   \   00003B   8D83         MOV       DPH,R5
   \   00003D   12....       LCALL     ?Subroutine23 & 0xFFFF
    239          }
   \                     ??CrossCallReturnLabel_44:
   \   000040                REQUIRE ?Subroutine3
   \   000040                ; // Fall through to label ?Subroutine3

   \                                 In  segment BANKED_CODE, align 1, keep-with-next
   \                     ?Subroutine3:
   \   000000   7F03         MOV       R7,#0x3
   \   000002   02....       LJMP      ?BANKED_LEAVE_XDATA

   \                                 In  segment BANKED_CODE, align 1, keep-with-next
   \                     ?Subroutine23:
   \   000000   E5..         MOV       A,?V0
   \   000002                REQUIRE ??Subroutine35_0
   \   000002                ; // Fall through to label ??Subroutine35_0

   \                                 In  segment BANKED_CODE, align 1, keep-with-next
   \                     ??Subroutine35_0:
   \   000000   F0           MOVX      @DPTR,A
   \   000001   A3           INC       DPTR
   \   000002   E5..         MOV       A,?V1
   \   000004   F0           MOVX      @DPTR,A
   \   000005   22           RET

   \                                 In  segment BANKED_CODE, align 1, keep-with-next
   \                     ?Subroutine18:
   \   000000   12....       LCALL     ??Subroutine43_0 & 0xFFFF
   \                     ??CrossCallReturnLabel_75:
   \   000003   22           RET

   \                                 In  segment BANKED_CODE, align 1, keep-with-next
   \                     ?Subroutine25:
   \   000000   E8           MOV       A,R0
   \   000001   FA           MOV       R2,A
   \   000002   E9           MOV       A,R1
   \   000003   FB           MOV       R3,A
   \   000004   EA           MOV       A,R2
   \   000005   75F00E       MOV       B,#0xe
   \   000008   A4           MUL       AB
   \   000009   FA           MOV       R2,A
   \   00000A   85F0..       MOV       ?V2,B
   \   00000D   75F00E       MOV       B,#0xe
   \   000010   EB           MOV       A,R3
   \   000011   A4           MUL       AB
   \   000012   25..         ADD       A,?V2
   \   000014                REQUIRE ??Subroutine38_0
   \   000014                ; // Fall through to label ??Subroutine38_0

   \                                 In  segment BANKED_CODE, align 1, keep-with-next
   \                     ??Subroutine43_0:
   \   000000   E4           CLR       A
   \   000001   93           MOVC      A,@A+DPTR
   \   000002   F8           MOV       R0,A
   \   000003   7401         MOV       A,#0x1
   \   000005   93           MOVC      A,@A+DPTR
   \   000006   F9           MOV       R1,A
   \   000007   22           RET
    240          
    241          /*********************************************************************
    242           * @fn      bindAddEntry()
    243           *
    244           * @brief   This function is used to Add an entry to the binding table
    245           *
    246           * @param       srcAddr - source Address
    247           * @param       srcEpInt - source endpoint
    248           * @param       dstAddr - destination Address
    249           * @param       dstEpInt - destination endpoint
    250           * @param       numClusterIds - number of cluster Ids in the list
    251           * @param       clusterIds - pointer to the Object ID list
    252           *
    253           * @return  pointer to binding table entry, NULL if not added
    254           */

   \                                 In  segment BANKED_CODE, align 1, keep-with-next
    255          BindingEntry_t *bindAddEntry( byte srcEpInt,
   \                     bindAddEntry:
    256                                        zAddrType_t *dstAddr, byte dstEpInt,
    257                                        byte numClusterIds, uint16 *clusterIds )
    258          {
   \   000000                REQUIRE ?V0
   \   000000                REQUIRE ?V1
   \   000000                REQUIRE ?V2
   \   000000                REQUIRE ?V3
   \   000000                REQUIRE ?V4
   \   000000                REQUIRE ?V5
   \   000000                REQUIRE ?V6
   \   000000   74F1         MOV       A,#-0xf
   \   000002   12....       LCALL     ?BANKED_ENTER_XDATA
   \   000005                ; Saved register size: 15
   \   000005                ; Auto size: 3
   \   000005   74FD         MOV       A,#-0x3
   \   000007   12....       LCALL     ?ALLOC_XSTACK8
   \   00000A   7402         MOV       A,#0x2
   \   00000C   12....       LCALL     ?XSTACK_DISP0_8
   \   00000F   EC           MOV       A,R4
   \   000010   F0           MOVX      @DPTR,A
   \   000011   89..         MOV       ?V6,R1
   \   000013   8A..         MOV       ?V0,R2
   \   000015   8B..         MOV       ?V1,R3
   \   000017   8D..         MOV       ?V3,R5
    259            uint8           index;
    260            BindingEntry_t* entry;
    261            bindFields_t    fields;
    262          
    263            // initialize results
    264            entry = NULL;
   \   000019   7E00         MOV       R6,#0x0
   \   00001B   7F00         MOV       R7,#0x0
    265          
    266            // make sure local addresses have been loaded
    267            bindAddrMgrLocalLoad();
   \   00001D                ; Setup parameters for call to function bindAddrMgrLocalLoad
   \   00001D   12....       LCALL     `??bindAddrMgrLocalLoad::?relay`; Banked call to: bindAddrMgrLocalLoad
    268          
    269            // setup fields
    270            fields.dstIndex = bindAddrIndexGet( dstAddr );
   \   000020                ; Setup parameters for call to function bindAddrIndexGet
   \   000020   AA..         MOV       R2,?V0
   \   000022   AB..         MOV       R3,?V1
   \   000024   12....       LCALL     `??bindAddrIndexGet::?relay`; Banked call to: bindAddrIndexGet
   \   000027   85..82       MOV       DPL,?XSP + 0
   \   00002A   85..83       MOV       DPH,?XSP + 1
   \   00002D   EA           MOV       A,R2
   \   00002E   F0           MOVX      @DPTR,A
   \   00002F   A3           INC       DPTR
   \   000030   EB           MOV       A,R3
   \   000031   F0           MOVX      @DPTR,A
    271            fields.srcEP    = srcEpInt;
    272          
    273            if ( dstAddr->addrMode == AddrGroup )
   \   000032   85..82       MOV       DPL,?V0
   \   000035   85..83       MOV       DPH,?V1
   \   000038   A3           INC       DPTR
   \   000039   A3           INC       DPTR
   \   00003A   A3           INC       DPTR
   \   00003B   A3           INC       DPTR
   \   00003C   A3           INC       DPTR
   \   00003D   A3           INC       DPTR
   \   00003E   A3           INC       DPTR
   \   00003F   A3           INC       DPTR
   \   000040   E0           MOVX      A,@DPTR
   \   000041   6401         XRL       A,#0x1
   \   000043   7008         JNZ       ??bindAddEntry_0
    274            {
    275              fields.dstAddrMode = DSTGROUPMODE_GROUP;
   \   000045   75..01       MOV       ?V1,#0x1
    276              fields.dstEP       = 0;
   \   000048   75..00       MOV       ?V0,#0x0
   \   00004B   800B         SJMP      ??bindAddEntry_1
    277            }
    278            else
    279            {
    280              fields.dstAddrMode = DSTGROUPMODE_ADDR;
   \                     ??bindAddEntry_0:
   \   00004D   75..00       MOV       ?V1,#0x0
    281              fields.dstEP       = dstEpInt;
   \   000050   7402         MOV       A,#0x2
   \   000052   12....       LCALL     ?XSTACK_DISP0_8
   \   000055   E0           MOVX      A,@DPTR
   \   000056   F5..         MOV       ?V0,A
    282            }
    283          
    284            if ( fields.dstIndex != INVALID_NODE_ADDR  )
   \                     ??bindAddEntry_1:
   \   000058   85..82       MOV       DPL,?XSP + 0
   \   00005B   85..83       MOV       DPH,?XSP + 1
   \   00005E   E0           MOVX      A,@DPTR
   \   00005F   64FE         XRL       A,#0xfe
   \   000061   7003         JNZ       ??bindAddEntry_2
   \   000063   A3           INC       DPTR
   \   000064   E0           MOVX      A,@DPTR
   \   000065   F4           CPL       A
   \                     ??bindAddEntry_2:
   \   000066   7003         JNZ       $+5
   \   000068   02....       LJMP      ??bindAddEntry_3 & 0xFFFF
    285            {
    286              for ( index = 0; index < gNWK_MAX_BINDING_ENTRIES; index++ )
   \   00006B   75..00       MOV       ?V2,#0x0
   \   00006E   8002         SJMP      ??bindAddEntry_4
   \                     ??bindAddEntry_5:
   \   000070   05..         INC       ?V2
   \                     ??bindAddEntry_4:
   \   000072   90....       MOV       DPTR,#gNWK_MAX_BINDING_ENTRIES
   \   000075   12....       LCALL     ?Subroutine18 & 0xFFFF
   \                     ??CrossCallReturnLabel_17:
   \   000078   C3           CLR       C
   \   000079   E5..         MOV       A,?V2
   \   00007B   98           SUBB      A,R0
   \   00007C   E4           CLR       A
   \   00007D   99           SUBB      A,R1
   \   00007E   4003         JC        $+5
   \   000080   02....       LJMP      ??bindAddEntry_6 & 0xFFFF
    287              {
    288                if ( ( fields.srcEP       == BindingTable[index].srcEP        ) &&
    289                     ( fields.dstAddrMode == BindingTable[index].dstGroupMode ) &&
    290                     ( fields.dstIndex    == BindingTable[index].dstIdx       ) &&
    291                     ( fields.dstEP       == BindingTable[index].dstEP        )    )
   \   000083   E5..         MOV       A,?V2
   \   000085   75F00E       MOV       B,#0xe
   \   000088   A4           MUL       AB
   \   000089   F8           MOV       R0,A
   \   00008A   A9F0         MOV       R1,B
   \   00008C   12....       LCALL     ??Subroutine42_0 & 0xFFFF
   \                     ??CrossCallReturnLabel_73:
   \   00008F   65..         XRL       A,?V6
   \   000091   70DD         JNZ       ??bindAddEntry_5
   \   000093   12....       LCALL     ??Subroutine40_0 & 0xFFFF
   \                     ??CrossCallReturnLabel_65:
   \   000096   65..         XRL       A,?V1
   \   000098   70D6         JNZ       ??bindAddEntry_5
   \   00009A   12....       LCALL     ?Subroutine27 & 0xFFFF
   \                     ??CrossCallReturnLabel_48:
   \   00009D   E5..         MOV       A,?V2
   \   00009F   75F00E       MOV       B,#0xe
   \   0000A2   A4           MUL       AB
   \   0000A3   FA           MOV       R2,A
   \   0000A4   ACF0         MOV       R4,B
   \   0000A6   EC           MOV       A,R4
   \   0000A7   FB           MOV       R3,A
   \   0000A8   74..         MOV       A,#(BindingTable + 2) & 0xff
   \   0000AA   2A           ADD       A,R2
   \   0000AB   F582         MOV       DPL,A
   \   0000AD   74..         MOV       A,#((BindingTable + 2) >> 8) & 0xff
   \   0000AF   12....       LCALL     ??Subroutine39_0 & 0xFFFF
   \                     ??CrossCallReturnLabel_55:
   \   0000B2   68           XRL       A,R0
   \   0000B3   7003         JNZ       ??bindAddEntry_7
   \   0000B5   A3           INC       DPTR
   \   0000B6   E0           MOVX      A,@DPTR
   \   0000B7   69           XRL       A,R1
   \                     ??bindAddEntry_7:
   \   0000B8   70B6         JNZ       ??bindAddEntry_5
   \   0000BA   EC           MOV       A,R4
   \   0000BB   F9           MOV       R1,A
   \   0000BC   74..         MOV       A,#(BindingTable + 4) & 0xff
   \   0000BE   2A           ADD       A,R2
   \   0000BF   F582         MOV       DPL,A
   \   0000C1   74..         MOV       A,#((BindingTable + 4) >> 8) & 0xff
   \   0000C3   39           ADDC      A,R1
   \   0000C4   F583         MOV       DPH,A
   \   0000C6   E0           MOVX      A,@DPTR
   \   0000C7   65..         XRL       A,?V0
   \   0000C9   70A5         JNZ       ??bindAddEntry_5
    292                {
    293                  entry = &BindingTable[index];
   \   0000CB   74..         MOV       A,#BindingTable & 0xff
   \   0000CD   2A           ADD       A,R2
   \   0000CE   FE           MOV       R6,A
   \   0000CF   74..         MOV       A,#(BindingTable >> 8) & 0xff
   \   0000D1   39           ADDC      A,R1
   \   0000D2   FF           MOV       R7,A
    294          
    295                  // break from loop
    296                  break;
    297                }
    298              }
    299          
    300              if ( entry != NULL )
    301              {
    302                // Loop through the cluster IDs
    303                for ( index = 0; index < numClusterIds; index++ )
   \   0000D3   75..00       MOV       ?V2,#0x0
   \                     ??bindAddEntry_8:
   \   0000D6   E5..         MOV       A,?V2
   \   0000D8   C3           CLR       C
   \   0000D9   95..         SUBB      A,?V3
   \   0000DB   4003         JC        $+5
   \   0000DD   02....       LJMP      ??bindAddEntry_3 & 0xFFFF
    304                {
    305                  // Found - is the cluster already defined?
    306                  if ( bindIsClusterIDinList( entry, clusterIds[index] ) == FALSE )
   \   0000E0                ; Setup parameters for call to function bindIsClusterIDinList
   \   0000E0   A8..         MOV       R0,?V2
   \   0000E2   E8           MOV       A,R0
   \   0000E3   28           ADD       A,R0
   \   0000E4   F8           MOV       R0,A
   \   0000E5   E4           CLR       A
   \   0000E6   33           RLC       A
   \   0000E7   F9           MOV       R1,A
   \   0000E8   7412         MOV       A,#0x12
   \   0000EA   12....       LCALL     ?XSTACK_DISP0_8
   \   0000ED   12....       LCALL     ?Subroutine11 & 0xFFFF
   \                     ??CrossCallReturnLabel_10:
   \   0000F0   12....       LCALL     `??bindIsClusterIDinList::?relay`; Banked call to: bindIsClusterIDinList
   \   0000F3   E9           MOV       A,R1
   \   0000F4   701A         JNZ       ??bindAddEntry_9
    307                  {
    308                    // Nope, add this cluster
    309                    if ( bindAddClusterIdToList( entry, clusterIds[index] ) == FALSE )
   \   0000F6                ; Setup parameters for call to function bindAddClusterIdToList
   \   0000F6   A8..         MOV       R0,?V2
   \   0000F8   E8           MOV       A,R0
   \   0000F9   28           ADD       A,R0
   \   0000FA   F8           MOV       R0,A
   \   0000FB   E4           CLR       A
   \   0000FC   33           RLC       A
   \   0000FD   F9           MOV       R1,A
   \   0000FE   7412         MOV       A,#0x12
   \   000100   12....       LCALL     ?XSTACK_DISP0_8
   \   000103   12....       LCALL     ?Subroutine11 & 0xFFFF
   \                     ??CrossCallReturnLabel_11:
   \   000106   12....       LCALL     `??bindAddClusterIdToList::?relay`; Banked call to: bindAddClusterIdToList
   \   000109   E9           MOV       A,R1
   \   00010A   7004         JNZ       ??bindAddEntry_9
    310                    {
    311                      // Indicate error if cluster list was full
    312                      entry = NULL;
   \   00010C   7E00         MOV       R6,#0x0
   \   00010E   7F00         MOV       R7,#0x0
    313                    }
    314                  }
    315                }
   \                     ??bindAddEntry_9:
   \   000110   05..         INC       ?V2
   \   000112   80C2         SJMP      ??bindAddEntry_8
    316              }
    317              else
    318              {
    319                // Find an empty slot
    320                entry = bindFindEmpty();
   \                     ??bindAddEntry_6:
   \   000114                ; Setup parameters for call to function bindFindEmpty
   \   000114   12....       LCALL     `??bindFindEmpty::?relay`; Banked call to: bindFindEmpty
   \   000117   8A..         MOV       ?V4,R2
   \   000119   8B..         MOV       ?V5,R3
   \   00011B   AE..         MOV       R6,?V4
   \   00011D   AF..         MOV       R7,?V5
    321          
    322                // Check against the maximum number allowed
    323                if ( entry != NULL )
   \   00011F   EE           MOV       A,R6
   \   000120   4F           ORL       A,R7
   \   000121   6067         JZ        ??bindAddEntry_3
    324                {
    325                  // Add new entry
    326                  entry->srcEP         = fields.srcEP;
   \   000123   8E82         MOV       DPL,R6
   \   000125   8F83         MOV       DPH,R7
   \   000127   E5..         MOV       A,?V6
   \   000129   12....       LCALL     ??Subroutine35_0 & 0xFFFF
    327                  entry->dstGroupMode  = fields.dstAddrMode;
    328                  entry->dstIdx        = fields.dstIndex;
   \                     ??CrossCallReturnLabel_43:
   \   00012C   12....       LCALL     ?Subroutine27 & 0xFFFF
   \                     ??CrossCallReturnLabel_49:
   \   00012F   8E82         MOV       DPL,R6
   \   000131   8F83         MOV       DPH,R7
   \   000133   A3           INC       DPTR
   \   000134   A3           INC       DPTR
   \   000135   E8           MOV       A,R0
   \   000136   F0           MOVX      @DPTR,A
   \   000137   A3           INC       DPTR
   \   000138   E9           MOV       A,R1
   \   000139   F0           MOVX      @DPTR,A
    329                  entry->dstEP         = fields.dstEP;
   \   00013A   8E82         MOV       DPL,R6
   \   00013C   8F83         MOV       DPH,R7
   \   00013E   A3           INC       DPTR
   \   00013F   A3           INC       DPTR
   \   000140   A3           INC       DPTR
   \   000141   A3           INC       DPTR
   \   000142   E5..         MOV       A,?V0
   \   000144   F0           MOVX      @DPTR,A
    330          
    331                  if ( numClusterIds > gMAX_BINDING_CLUSTER_IDS )
   \   000145   90....       MOV       DPTR,#gMAX_BINDING_CLUSTER_IDS
   \   000148   E4           CLR       A
   \   000149   93           MOVC      A,@A+DPTR
   \   00014A   C3           CLR       C
   \   00014B   95..         SUBB      A,?V3
   \   00014D   5004         JNC       ??bindAddEntry_10
    332                  {
    333                    numClusterIds = gMAX_BINDING_CLUSTER_IDS;
   \   00014F   E4           CLR       A
   \   000150   93           MOVC      A,@A+DPTR
   \   000151   F5..         MOV       ?V3,A
    334                  }
    335          
    336                  entry->numClusterIds = numClusterIds;
   \                     ??bindAddEntry_10:
   \   000153   8E82         MOV       DPL,R6
   \   000155   8F83         MOV       DPH,R7
   \   000157   A3           INC       DPTR
   \   000158   A3           INC       DPTR
   \   000159   A3           INC       DPTR
   \   00015A   A3           INC       DPTR
   \   00015B   A3           INC       DPTR
   \   00015C   E5..         MOV       A,?V3
   \   00015E   F0           MOVX      @DPTR,A
    337          
    338                  osal_memcpy( entry->clusterIdList,
    339                               clusterIds,
    340                               numClusterIds * sizeof(uint16) );
   \   00015F                ; Setup parameters for call to function osal_memcpy
   \   00015F   7412         MOV       A,#0x12
   \   000161   12....       LCALL     ?XSTACK_DISP0_8
   \   000164   E0           MOVX      A,@DPTR
   \   000165   F5..         MOV       ?V0,A
   \   000167   A3           INC       DPTR
   \   000168   E0           MOVX      A,@DPTR
   \   000169   F5..         MOV       ?V1,A
   \   00016B   75..00       MOV       ?V2,#0x0
   \   00016E   78..         MOV       R0,#?V0
   \   000170   12....       LCALL     ?PUSH_XSTACK_I_THREE
   \   000173   AC..         MOV       R4,?V3
   \   000175   EC           MOV       A,R4
   \   000176   2C           ADD       A,R4
   \   000177   FC           MOV       R4,A
   \   000178   E4           CLR       A
   \   000179   33           RLC       A
   \   00017A   FD           MOV       R5,A
   \   00017B   EE           MOV       A,R6
   \   00017C   2406         ADD       A,#0x6
   \   00017E   FA           MOV       R2,A
   \   00017F   E4           CLR       A
   \   000180   3F           ADDC      A,R7
   \   000181   FB           MOV       R3,A
   \   000182   12....       LCALL     `??osal_memcpy::?relay`; Banked call to: osal_memcpy
   \   000185   7403         MOV       A,#0x3
   \   000187   12....       LCALL     ?DEALLOC_XSTACK8
    341                }
    342              }
    343            }
    344          
    345            return entry;
   \                     ??bindAddEntry_3:
   \   00018A   EE           MOV       A,R6
   \   00018B   FA           MOV       R2,A
   \   00018C   EF           MOV       A,R7
   \   00018D   FB           MOV       R3,A
   \   00018E   7403         MOV       A,#0x3
   \   000190   12....       LCALL     ?DEALLOC_XSTACK8
   \   000193                REQUIRE ?Subroutine4
   \   000193                ; // Fall through to label ?Subroutine4
    346          }

   \                                 In  segment BANKED_CODE, align 1, keep-with-next
   \                     ?Subroutine4:
   \   000000   7F07         MOV       R7,#0x7
   \   000002   02....       LJMP      ?BANKED_LEAVE_XDATA

   \                                 In  segment BANKED_CODE, align 1, keep-with-next
   \                     ?Subroutine27:
   \   000000   85..82       MOV       DPL,?XSP + 0
   \   000003   85..83       MOV       DPH,?XSP + 1
   \   000006                REQUIRE ??Subroutine36_0
   \   000006                ; // Fall through to label ??Subroutine36_0

   \                                 In  segment BANKED_CODE, align 1, keep-with-next
   \                     ??Subroutine36_0:
   \   000000   E0           MOVX      A,@DPTR
   \   000001   F8           MOV       R0,A
   \   000002   A3           INC       DPTR
   \   000003   E0           MOVX      A,@DPTR
   \   000004   F9           MOV       R1,A
   \   000005   22           RET

   \                                 In  segment BANKED_CODE, align 1, keep-with-next
   \                     ?Subroutine11:
   \   000000   E0           MOVX      A,@DPTR
   \   000001   28           ADD       A,R0
   \   000002   FA           MOV       R2,A
   \   000003   A3           INC       DPTR
   \   000004   E0           MOVX      A,@DPTR
   \   000005   39           ADDC      A,R1
   \   000006   8A82         MOV       DPL,R2
   \   000008   F583         MOV       DPH,A
   \   00000A   E0           MOVX      A,@DPTR
   \   00000B   FC           MOV       R4,A
   \   00000C   A3           INC       DPTR
   \   00000D   E0           MOVX      A,@DPTR
   \   00000E   FD           MOV       R5,A
   \   00000F   EE           MOV       A,R6
   \   000010   FA           MOV       R2,A
   \   000011   EF           MOV       A,R7
   \   000012   FB           MOV       R3,A
   \   000013   22           RET

   \                                 In  segment BANKED_CODE, align 1, keep-with-next
   \                     ??Subroutine40_0:
   \   000000   74..         MOV       A,#(BindingTable + 1) & 0xff
   \   000002   28           ADD       A,R0
   \   000003   F582         MOV       DPL,A
   \   000005   74..         MOV       A,#((BindingTable + 1) >> 8) & 0xff
   \   000007   39           ADDC      A,R1
   \   000008   F583         MOV       DPH,A
   \   00000A   E0           MOVX      A,@DPTR
   \   00000B   22           RET

   \                                 In  segment BANKED_CODE, align 1, keep-with-next
   \                     ??Subroutine42_0:
   \   000000   74..         MOV       A,#BindingTable & 0xff
   \   000002   28           ADD       A,R0
   \   000003   F582         MOV       DPL,A
   \   000005   74..         MOV       A,#(BindingTable >> 8) & 0xff
   \   000007   39           ADDC      A,R1
   \   000008   F583         MOV       DPH,A
   \   00000A   E0           MOVX      A,@DPTR
   \   00000B   22           RET
    347          
    348          /*********************************************************************
    349           * @fn      bindRemoveEntry
    350           *
    351           * @brief   Removes a binding table entry.
    352           *
    353           * @param   pBind - pointer to binding table entry to delete
    354           *
    355           * @return  TRUE if Removed, FALSE if not
    356           */

   \                                 In  segment BANKED_CODE, align 1, keep-with-next
    357          byte bindRemoveEntry( BindingEntry_t *pBind )
   \                     bindRemoveEntry:
    358          {
   \   000000   C082         PUSH      DPL
   \   000002   C083         PUSH      DPH
   \   000004                ; Saved register size: 2
   \   000004                ; Auto size: 0
    359            osal_memset( pBind, 0xFF, gBIND_REC_SIZE );
   \   000004                ; Setup parameters for call to function osal_memset
   \   000004   12....       LCALL     ?Subroutine15 & 0xFFFF
   \                     ??CrossCallReturnLabel_53:
   \   000007   79FF         MOV       R1,#-0x1
   \   000009   12....       LCALL     `??osal_memset::?relay`; Banked call to: osal_memset
    360            return ( TRUE );
   \   00000C   7901         MOV       R1,#0x1
   \   00000E   02....       LJMP      ??Subroutine46_0 & 0xFFFF
    361          }
    362          
    363          /*********************************************************************
    364           * @fn      bindIsClusterIDinList()
    365           *
    366           * @brief   Is the clusterID in the clusterID list?
    367           *
    368           * @param   enter - binding table entry
    369           * @param   clusterId  - Cluster ID to look for
    370           *
    371           * @return  TRUE if found, FALSE if not found
    372           */

   \                                 In  segment BANKED_CODE, align 1, keep-with-next
    373          byte bindIsClusterIDinList( BindingEntry_t *entry, uint16 clusterId )
   \                     bindIsClusterIDinList:
    374          {
   \   000000   74F7         MOV       A,#-0x9
   \   000002   12....       LCALL     ?BANKED_ENTER_XDATA
   \   000005                ; Saved register size: 9
   \   000005                ; Auto size: 0
    375            uint8 x;
    376          
    377            if ( entry != NULL )
   \   000005   EA           MOV       A,R2
   \   000006   4B           ORL       A,R3
   \   000007   6037         JZ        ??bindIsClusterIDinList_0
    378            {
    379              for ( x = 0; x < entry->numClusterIds; x++ )
   \   000009   7E00         MOV       R6,#0x0
   \   00000B   8001         SJMP      ??bindIsClusterIDinList_1
   \                     ??bindIsClusterIDinList_2:
   \   00000D   0E           INC       R6
   \                     ??bindIsClusterIDinList_1:
   \   00000E   8A82         MOV       DPL,R2
   \   000010   8B83         MOV       DPH,R3
   \   000012   A3           INC       DPTR
   \   000013   A3           INC       DPTR
   \   000014   A3           INC       DPTR
   \   000015   A3           INC       DPTR
   \   000016   A3           INC       DPTR
   \   000017   E0           MOVX      A,@DPTR
   \   000018   F8           MOV       R0,A
   \   000019   EE           MOV       A,R6
   \   00001A   C3           CLR       C
   \   00001B   98           SUBB      A,R0
   \   00001C   5022         JNC       ??bindIsClusterIDinList_0
    380              {
    381                if ( entry->clusterIdList[x] == clusterId )
   \   00001E   EE           MOV       A,R6
   \   00001F   25E0         ADD       A,0xE0 /* A   */
   \   000021   F8           MOV       R0,A
   \   000022   E4           CLR       A
   \   000023   33           RLC       A
   \   000024   F9           MOV       R1,A
   \   000025   EA           MOV       A,R2
   \   000026   28           ADD       A,R0
   \   000027   F582         MOV       DPL,A
   \   000029   EB           MOV       A,R3
   \   00002A   39           ADDC      A,R1
   \   00002B   F583         MOV       DPH,A
   \   00002D   A3           INC       DPTR
   \   00002E   A3           INC       DPTR
   \   00002F   A3           INC       DPTR
   \   000030   A3           INC       DPTR
   \   000031   A3           INC       DPTR
   \   000032   A3           INC       DPTR
   \   000033   E0           MOVX      A,@DPTR
   \   000034   6C           XRL       A,R4
   \   000035   7003         JNZ       ??bindIsClusterIDinList_3
   \   000037   A3           INC       DPTR
   \   000038   E0           MOVX      A,@DPTR
   \   000039   6D           XRL       A,R5
   \                     ??bindIsClusterIDinList_3:
   \   00003A   70D1         JNZ       ??bindIsClusterIDinList_2
    382                {
    383                  return ( TRUE );
   \   00003C   7901         MOV       R1,#0x1
   \   00003E   8002         SJMP      ??bindIsClusterIDinList_4
    384                }
    385              }
    386            }
    387          
    388            return ( FALSE );
   \                     ??bindIsClusterIDinList_0:
   \   000040   7900         MOV       R1,#0x0
   \                     ??bindIsClusterIDinList_4:
   \   000042   02....       LJMP      ?Subroutine2 & 0xFFFF
    389          }
    390          
    391          /*********************************************************************
    392           * @fn      bindRemoveClusterIdFromList()
    393           *
    394           * @brief   Removes a ClusterID from a list of ClusterIDs.
    395           *
    396           * @param   enter - binding table entry
    397           * @param   clusterId  - Cluster ID to look for
    398           *
    399           * @return  TRUE if there are at least 1 clusterID left, FALSE if none
    400           */

   \                                 In  segment BANKED_CODE, align 1, keep-with-next
    401          byte bindRemoveClusterIdFromList( BindingEntry_t *entry, uint16 clusterId )
   \                     bindRemoveClusterIdFromList:
    402          {
   \   000000                REQUIRE ?V0
   \   000000                REQUIRE ?V1
   \   000000                REQUIRE ?V2
   \   000000   74F5         MOV       A,#-0xb
   \   000002   12....       LCALL     ?BANKED_ENTER_XDATA
   \   000005                ; Saved register size: 11
   \   000005                ; Auto size: 0
    403            byte x;
    404            uint16 *listPtr;
    405            byte numIds;
    406          
    407            if ( entry )
   \   000005   EA           MOV       A,R2
   \   000006   4B           ORL       A,R3
   \   000007   607B         JZ        ??bindRemoveClusterIdFromList_0
    408            {
    409              if ( entry->numClusterIds > 0 )
   \   000009   8A82         MOV       DPL,R2
   \   00000B   8B83         MOV       DPH,R3
   \   00000D   A3           INC       DPTR
   \   00000E   A3           INC       DPTR
   \   00000F   A3           INC       DPTR
   \   000010   A3           INC       DPTR
   \   000011   A3           INC       DPTR
   \   000012   E0           MOVX      A,@DPTR
   \   000013   606F         JZ        ??bindRemoveClusterIdFromList_0
    410              {
    411                listPtr = entry->clusterIdList;
   \   000015   EA           MOV       A,R2
   \   000016   2406         ADD       A,#0x6
   \   000018   F8           MOV       R0,A
   \   000019   E4           CLR       A
   \   00001A   3B           ADDC      A,R3
   \   00001B   F9           MOV       R1,A
    412                numIds = entry->numClusterIds;
   \   00001C   8A82         MOV       DPL,R2
   \   00001E   8B83         MOV       DPH,R3
   \   000020   A3           INC       DPTR
   \   000021   A3           INC       DPTR
   \   000022   A3           INC       DPTR
   \   000023   A3           INC       DPTR
   \   000024   A3           INC       DPTR
   \   000025   E0           MOVX      A,@DPTR
   \   000026   F5..         MOV       ?V1,A
    413          
    414                // Copy the new list over
    415                for ( x = 0; x < numIds; x++ )
   \   000028   75..00       MOV       ?V0,#0x0
   \   00002B   800F         SJMP      ??bindRemoveClusterIdFromList_1
    416                {
    417                  if ( entry->clusterIdList[x] != clusterId )
    418                  {
    419                    *listPtr++ = entry->clusterIdList[x];
    420                  }
    421                  else
    422                  {
    423                    entry->numClusterIds--;
   \                     ??bindRemoveClusterIdFromList_2:
   \   00002D   EA           MOV       A,R2
   \   00002E   2405         ADD       A,#0x5
   \   000030   F582         MOV       DPL,A
   \   000032   E4           CLR       A
   \   000033   12....       LCALL     ??Subroutine39_0 & 0xFFFF
   \                     ??CrossCallReturnLabel_56:
   \   000036   14           DEC       A
   \   000037   F0           MOVX      @DPTR,A
    424                    if ( entry->numClusterIds == 0 )
   \   000038   604A         JZ        ??bindRemoveClusterIdFromList_0
    425                    {
    426                      break;
    427                    }
    428                  }
   \                     ??bindRemoveClusterIdFromList_3:
   \   00003A   05..         INC       ?V0
   \                     ??bindRemoveClusterIdFromList_1:
   \   00003C   E5..         MOV       A,?V0
   \   00003E   C3           CLR       C
   \   00003F   95..         SUBB      A,?V1
   \   000041   5031         JNC       ??bindRemoveClusterIdFromList_4
   \   000043   AE..         MOV       R6,?V0
   \   000045   EE           MOV       A,R6
   \   000046   2E           ADD       A,R6
   \   000047   FE           MOV       R6,A
   \   000048   E4           CLR       A
   \   000049   33           RLC       A
   \   00004A   FF           MOV       R7,A
   \   00004B   12....       LCALL     ?Subroutine28 & 0xFFFF
   \                     ??CrossCallReturnLabel_33:
   \   00004E   6C           XRL       A,R4
   \   00004F   7003         JNZ       ??bindRemoveClusterIdFromList_5
   \   000051   A3           INC       DPTR
   \   000052   E0           MOVX      A,@DPTR
   \   000053   6D           XRL       A,R5
   \                     ??bindRemoveClusterIdFromList_5:
   \   000054   60D7         JZ        ??bindRemoveClusterIdFromList_2
   \   000056   AE..         MOV       R6,?V0
   \   000058   EE           MOV       A,R6
   \   000059   2E           ADD       A,R6
   \   00005A   FE           MOV       R6,A
   \   00005B   12....       LCALL     ?Subroutine28 & 0xFFFF
    429                }
    430              }
    431            }
   \                     ??CrossCallReturnLabel_34:
   \   00005E   FE           MOV       R6,A
   \   00005F   A3           INC       DPTR
   \   000060   E0           MOVX      A,@DPTR
   \   000061   FF           MOV       R7,A
   \   000062   8882         MOV       DPL,R0
   \   000064   8983         MOV       DPH,R1
   \   000066   EE           MOV       A,R6
   \   000067   F0           MOVX      @DPTR,A
   \   000068   A3           INC       DPTR
   \   000069   EF           MOV       A,R7
   \   00006A   F0           MOVX      @DPTR,A
   \   00006B   E8           MOV       A,R0
   \   00006C   2402         ADD       A,#0x2
   \   00006E   F8           MOV       R0,A
   \   00006F   50C9         JNC       ??bindRemoveClusterIdFromList_3
   \   000071   09           INC       R1
   \   000072   80C6         SJMP      ??bindRemoveClusterIdFromList_3
   \                     ??bindRemoveClusterIdFromList_4:
   \   000074   8A82         MOV       DPL,R2
   \   000076   8B83         MOV       DPH,R3
   \   000078   A3           INC       DPTR
   \   000079   A3           INC       DPTR
   \   00007A   A3           INC       DPTR
   \   00007B   A3           INC       DPTR
   \   00007C   A3           INC       DPTR
   \   00007D   E0           MOVX      A,@DPTR
   \   00007E   6004         JZ        ??bindRemoveClusterIdFromList_0
    432          
    433            if ( entry && (entry->numClusterIds > 0) )
    434            {
    435              return ( TRUE );
   \   000080   7901         MOV       R1,#0x1
   \   000082   8002         SJMP      ??bindRemoveClusterIdFromList_6
    436            }
    437            else
    438            {
    439              return ( FALSE );
   \                     ??bindRemoveClusterIdFromList_0:
   \   000084   7900         MOV       R1,#0x0
    440            }
   \                     ??bindRemoveClusterIdFromList_6:
   \   000086   02....       LJMP      ?Subroutine3 & 0xFFFF
    441          }

   \                                 In  segment BANKED_CODE, align 1, keep-with-next
   \                     ?Subroutine28:
   \   000000   12....       LCALL     ?Subroutine31 & 0xFFFF
   \                     ??CrossCallReturnLabel_40:
   \   000003   E0           MOVX      A,@DPTR
   \   000004   22           RET

   \                                 In  segment BANKED_CODE, align 1, keep-with-next
   \                     ?Subroutine31:
   \   000000   EA           MOV       A,R2
   \   000001   2E           ADD       A,R6
   \   000002   F582         MOV       DPL,A
   \   000004   EB           MOV       A,R3
   \   000005   3F           ADDC      A,R7
   \   000006   F583         MOV       DPH,A
   \   000008   A3           INC       DPTR
   \   000009   A3           INC       DPTR
   \   00000A   A3           INC       DPTR
   \   00000B   A3           INC       DPTR
   \   00000C   A3           INC       DPTR
   \   00000D   A3           INC       DPTR
   \   00000E   22           RET
    442          
    443          /*********************************************************************
    444           * @fn      bindAddClusterIdToList()
    445           *
    446           * @brief   Adds a ClusterID to a list of ClusterIDs.
    447           *
    448           * @param   enter - binding table entry
    449           * @param   clusterId  - Cluster ID to Add
    450           *
    451           * @return  TRUE if Added, FALSE if not
    452           */

   \                                 In  segment BANKED_CODE, align 1, keep-with-next
    453          byte bindAddClusterIdToList( BindingEntry_t *entry, uint16 clusterId )
   \                     bindAddClusterIdToList:
    454          {
   \   000000   74F7         MOV       A,#-0x9
   \   000002   12....       LCALL     ?BANKED_ENTER_XDATA
   \   000005                ; Saved register size: 9
   \   000005                ; Auto size: 0
    455            if ( entry && entry->numClusterIds < gMAX_BINDING_CLUSTER_IDS )
   \   000005   EA           MOV       A,R2
   \   000006   4B           ORL       A,R3
   \   000007   6039         JZ        ??bindAddClusterIdToList_0
   \   000009   90....       MOV       DPTR,#gMAX_BINDING_CLUSTER_IDS
   \   00000C   E4           CLR       A
   \   00000D   93           MOVC      A,@A+DPTR
   \   00000E   F8           MOV       R0,A
   \   00000F   8A82         MOV       DPL,R2
   \   000011   8B83         MOV       DPH,R3
   \   000013   A3           INC       DPTR
   \   000014   A3           INC       DPTR
   \   000015   A3           INC       DPTR
   \   000016   A3           INC       DPTR
   \   000017   A3           INC       DPTR
   \   000018   E0           MOVX      A,@DPTR
   \   000019   C3           CLR       C
   \   00001A   98           SUBB      A,R0
   \   00001B   5025         JNC       ??bindAddClusterIdToList_0
    456            {
    457              // Add the new one
    458              entry->clusterIdList[entry->numClusterIds] = clusterId;
   \   00001D   EA           MOV       A,R2
   \   00001E   2405         ADD       A,#0x5
   \   000020   F8           MOV       R0,A
   \   000021   E4           CLR       A
   \   000022   3B           ADDC      A,R3
   \   000023   F9           MOV       R1,A
   \   000024   8882         MOV       DPL,R0
   \   000026   8983         MOV       DPH,R1
   \   000028   E0           MOVX      A,@DPTR
   \   000029   25E0         ADD       A,0xE0 /* A   */
   \   00002B   FE           MOV       R6,A
   \   00002C   E4           CLR       A
   \   00002D   33           RLC       A
   \   00002E   FF           MOV       R7,A
   \   00002F   12....       LCALL     ?Subroutine31 & 0xFFFF
   \                     ??CrossCallReturnLabel_39:
   \   000032   EC           MOV       A,R4
   \   000033   F0           MOVX      @DPTR,A
   \   000034   A3           INC       DPTR
   \   000035   ED           MOV       A,R5
   \   000036   F0           MOVX      @DPTR,A
    459              entry->numClusterIds++;
   \   000037   8882         MOV       DPL,R0
   \   000039   8983         MOV       DPH,R1
   \   00003B   E0           MOVX      A,@DPTR
   \   00003C   04           INC       A
   \   00003D   F0           MOVX      @DPTR,A
    460              return ( TRUE );
   \   00003E   7901         MOV       R1,#0x1
   \   000040   8002         SJMP      ??bindAddClusterIdToList_1
    461            }
    462            return ( FALSE );
   \                     ??bindAddClusterIdToList_0:
   \   000042   7900         MOV       R1,#0x0
   \                     ??bindAddClusterIdToList_1:
   \   000044                REQUIRE ?Subroutine2
   \   000044                ; // Fall through to label ?Subroutine2
    463          }
    464          
    465          /*********************************************************************
    466           * @fn      bindFindExisting
    467           *
    468           * @brief   Finds an existing src/epint to dst/epint bind record
    469           *
    470           * @param   srcAddr - Source address
    471           * @param   srcEpInt - Source Endpoint/Interface
    472           * @param   dstAddr - Destination address
    473           * @param   dstEpInt - Destination Endpoint/Interface
    474           *
    475           * @return  pointer to existing entry or NULL
    476           */

   \                                 In  segment BANKED_CODE, align 1, keep-with-next
    477          BindingEntry_t *bindFindExisting( byte srcEpInt,
   \                     bindFindExisting:
    478                                            zAddrType_t *dstAddr, byte dstEpInt )
    479          {
   \   000000                REQUIRE ?V0
   \   000000                REQUIRE ?V1
   \   000000                REQUIRE ?V2
   \   000000                REQUIRE ?V3
   \   000000   74F4         MOV       A,#-0xc
   \   000002   12....       LCALL     ?BANKED_ENTER_XDATA
   \   000005                ; Saved register size: 12
   \   000005                ; Auto size: 0
   \   000005   89..         MOV       ?V0,R1
   \   000007   EA           MOV       A,R2
   \   000008   FE           MOV       R6,A
   \   000009   EB           MOV       A,R3
   \   00000A   FF           MOV       R7,A
   \   00000B   8C..         MOV       ?V1,R4
    480            uint16 dstIdx;
    481            uint16 x;
    482          
    483            // Find the records in the assoc list
    484            if ( dstAddr->addrMode == AddrGroup )
   \   00000D   8E82         MOV       DPL,R6
   \   00000F   8F83         MOV       DPH,R7
   \   000011   A3           INC       DPTR
   \   000012   A3           INC       DPTR
   \   000013   A3           INC       DPTR
   \   000014   A3           INC       DPTR
   \   000015   A3           INC       DPTR
   \   000016   A3           INC       DPTR
   \   000017   A3           INC       DPTR
   \   000018   A3           INC       DPTR
   \   000019   E0           MOVX      A,@DPTR
   \   00001A   6401         XRL       A,#0x1
   \   00001C   700B         JNZ       ??bindFindExisting_0
    485            {
    486              dstIdx = dstAddr->addr.shortAddr;
   \   00001E   8E82         MOV       DPL,R6
   \   000020   8F83         MOV       DPH,R7
   \   000022   E0           MOVX      A,@DPTR
   \   000023   FC           MOV       R4,A
   \   000024   A3           INC       DPTR
   \   000025   E0           MOVX      A,@DPTR
   \   000026   FD           MOV       R5,A
   \   000027   800B         SJMP      ??bindFindExisting_1
    487            }
    488            else
    489            {
    490              dstIdx = bindingAddrMgsHelperFind( dstAddr );
   \                     ??bindFindExisting_0:
   \   000029                ; Setup parameters for call to function bindingAddrMgsHelperFind
   \   000029   12....       LCALL     `??bindingAddrMgsHelperFind::?relay`; Banked call to: bindingAddrMgsHelperFind
   \   00002C   8A..         MOV       ?V2,R2
   \   00002E   8B..         MOV       ?V3,R3
   \   000030   AC..         MOV       R4,?V2
   \   000032   AD..         MOV       R5,?V3
    491            }
    492          
    493            if ( dstIdx == INVALID_NODE_ADDR )
   \                     ??bindFindExisting_1:
   \   000034   74FE         MOV       A,#-0x2
   \   000036   6C           XRL       A,R4
   \   000037   7003         JNZ       ??bindFindExisting_2
   \   000039   74FF         MOV       A,#-0x1
   \   00003B   6D           XRL       A,R5
   \                     ??bindFindExisting_2:
   \   00003C   607B         JZ        ??bindFindExisting_3
    494            {
    495              return ( (BindingEntry_t *)NULL );
    496            }
    497          
    498            // Start at the beginning
    499            for ( x = 0; x < gNWK_MAX_BINDING_ENTRIES; x++ )
   \   00003E   7800         MOV       R0,#0x0
   \   000040   7900         MOV       R1,#0x0
   \   000042   801D         SJMP      ??bindFindExisting_4
    500            {
    501              if ( (BindingTable[x].srcEP == srcEpInt) )
    502              {
    503                if ( ((dstAddr->addrMode == AddrGroup)
    504                        && (BindingTable[x].dstGroupMode == DSTGROUPMODE_GROUP)
    505                        && (dstIdx == BindingTable[x].dstIdx))
    506                   || ((dstAddr->addrMode != AddrGroup)
    507                       && (BindingTable[x].dstGroupMode == DSTGROUPMODE_ADDR)
    508                       && (dstIdx == BindingTable[x].dstIdx) && (BindingTable[x].dstEP == dstEpInt)) )
   \                     ??bindFindExisting_5:
   \   000044   12....       LCALL     ?Subroutine29 & 0xFFFF
   \                     ??CrossCallReturnLabel_35:
   \   000047   12....       LCALL     ??Subroutine39_0 & 0xFFFF
   \                     ??CrossCallReturnLabel_57:
   \   00004A   6401         XRL       A,#0x1
   \   00004C   700E         JNZ       ??bindFindExisting_6
   \   00004E   12....       LCALL     ?Subroutine30 & 0xFFFF
   \                     ??CrossCallReturnLabel_37:
   \   000051   12....       LCALL     ??Subroutine39_0 & 0xFFFF
   \                     ??CrossCallReturnLabel_58:
   \   000054   6C           XRL       A,R4
   \   000055   7003         JNZ       ??bindFindExisting_7
   \   000057   A3           INC       DPTR
   \   000058   E0           MOVX      A,@DPTR
   \   000059   6D           XRL       A,R5
   \                     ??bindFindExisting_7:
   \   00005A   6058         JZ        ??bindFindExisting_8
   \                     ??bindFindExisting_6:
   \   00005C   08           INC       R0
   \   00005D   E8           MOV       A,R0
   \   00005E   7001         JNZ       ??bindFindExisting_4
   \   000060   09           INC       R1
   \                     ??bindFindExisting_4:
   \   000061   12....       LCALL     ?Subroutine8 & 0xFFFF
   \                     ??CrossCallReturnLabel_2:
   \   000064   5053         JNC       ??bindFindExisting_3
   \   000066   12....       LCALL     ?Subroutine25 & 0xFFFF
   \                     ??CrossCallReturnLabel_64:
   \   000069   65..         XRL       A,?V0
   \   00006B   70EF         JNZ       ??bindFindExisting_6
   \   00006D   8E82         MOV       DPL,R6
   \   00006F   8F83         MOV       DPH,R7
   \   000071   A3           INC       DPTR
   \   000072   A3           INC       DPTR
   \   000073   A3           INC       DPTR
   \   000074   A3           INC       DPTR
   \   000075   A3           INC       DPTR
   \   000076   A3           INC       DPTR
   \   000077   A3           INC       DPTR
   \   000078   A3           INC       DPTR
   \   000079   E0           MOVX      A,@DPTR
   \   00007A   6401         XRL       A,#0x1
   \   00007C   60C6         JZ        ??bindFindExisting_5
   \   00007E   12....       LCALL     ?Subroutine29 & 0xFFFF
   \                     ??CrossCallReturnLabel_36:
   \   000081   12....       LCALL     ??Subroutine39_0 & 0xFFFF
   \                     ??CrossCallReturnLabel_59:
   \   000084   70D6         JNZ       ??bindFindExisting_6
   \   000086   12....       LCALL     ?Subroutine30 & 0xFFFF
   \                     ??CrossCallReturnLabel_38:
   \   000089   12....       LCALL     ??Subroutine39_0 & 0xFFFF
   \                     ??CrossCallReturnLabel_60:
   \   00008C   6C           XRL       A,R4
   \   00008D   7003         JNZ       ??bindFindExisting_9
   \   00008F   A3           INC       DPTR
   \   000090   E0           MOVX      A,@DPTR
   \   000091   6D           XRL       A,R5
   \                     ??bindFindExisting_9:
   \   000092   70C8         JNZ       ??bindFindExisting_6
   \   000094   E8           MOV       A,R0
   \   000095   FA           MOV       R2,A
   \   000096   E9           MOV       A,R1
   \   000097   FB           MOV       R3,A
   \   000098   EA           MOV       A,R2
   \   000099   75F00E       MOV       B,#0xe
   \   00009C   A4           MUL       AB
   \   00009D   FA           MOV       R2,A
   \   00009E   75F00E       MOV       B,#0xe
   \   0000A1   EB           MOV       A,R3
   \   0000A2   A4           MUL       AB
   \   0000A3   25..         ADD       A,?V2
   \   0000A5   FB           MOV       R3,A
   \   0000A6   74..         MOV       A,#(BindingTable + 4) & 0xff
   \   0000A8   2A           ADD       A,R2
   \   0000A9   F582         MOV       DPL,A
   \   0000AB   74..         MOV       A,#((BindingTable + 4) >> 8) & 0xff
   \   0000AD   12....       LCALL     ??Subroutine39_0 & 0xFFFF
   \                     ??CrossCallReturnLabel_61:
   \   0000B0   65..         XRL       A,?V1
   \   0000B2   70A8         JNZ       ??bindFindExisting_6
    509                {
    510                  return ( &BindingTable[x] );
   \                     ??bindFindExisting_8:
   \   0000B4   12....       LCALL     ?Subroutine16 & 0xFFFF
    511                }
    512              }
    513            }
   \                     ??CrossCallReturnLabel_69:
   \   0000B7   8004         SJMP      ??bindFindExisting_10
    514          
    515            return ( (BindingEntry_t *)NULL );
   \                     ??bindFindExisting_3:
   \   0000B9   7A00         MOV       R2,#0x0
   \   0000BB   7B00         MOV       R3,#0x0
   \                     ??bindFindExisting_10:
   \   0000BD   02....       LJMP      ??Subroutine44_0 & 0xFFFF
    516          }

   \                                 In  segment BANKED_CODE, align 1, keep-with-next
   \                     ?Subroutine30:
   \   000000   E8           MOV       A,R0
   \   000001   FA           MOV       R2,A
   \   000002   E9           MOV       A,R1
   \   000003   FB           MOV       R3,A
   \   000004   EA           MOV       A,R2
   \   000005   75F00E       MOV       B,#0xe
   \   000008   A4           MUL       AB
   \   000009   FA           MOV       R2,A
   \   00000A   75F00E       MOV       B,#0xe
   \   00000D   EB           MOV       A,R3
   \   00000E   A4           MUL       AB
   \   00000F   25..         ADD       A,?V2
   \   000011   FB           MOV       R3,A
   \   000012   74..         MOV       A,#(BindingTable + 2) & 0xff
   \   000014   2A           ADD       A,R2
   \   000015   F582         MOV       DPL,A
   \   000017   74..         MOV       A,#((BindingTable + 2) >> 8) & 0xff
   \   000019   22           RET

   \                                 In  segment BANKED_CODE, align 1, keep-with-next
   \                     ?Subroutine29:
   \   000000   E8           MOV       A,R0
   \   000001   FA           MOV       R2,A
   \   000002   E9           MOV       A,R1
   \   000003   FB           MOV       R3,A
   \   000004   EA           MOV       A,R2
   \   000005   75F00E       MOV       B,#0xe
   \   000008   A4           MUL       AB
   \   000009   FA           MOV       R2,A
   \   00000A   75F00E       MOV       B,#0xe
   \   00000D   EB           MOV       A,R3
   \   00000E   A4           MUL       AB
   \   00000F   25..         ADD       A,?V2
   \   000011   FB           MOV       R3,A
   \   000012   74..         MOV       A,#(BindingTable + 1) & 0xff
   \   000014   2A           ADD       A,R2
   \   000015   F582         MOV       DPL,A
   \   000017   74..         MOV       A,#((BindingTable + 1) >> 8) & 0xff
   \   000019   22           RET

   \                                 In  segment BANKED_CODE, align 1, keep-with-next
   \                     ?Subroutine16:
   \   000000   E8           MOV       A,R0
   \   000001   75F00E       MOV       B,#0xe
   \   000004   A4           MUL       AB
   \   000005   F8           MOV       R0,A
   \   000006   AAF0         MOV       R2,B
   \   000008                REQUIRE ??Subroutine41_0
   \   000008                ; // Fall through to label ??Subroutine41_0

   \                                 In  segment BANKED_CODE, align 1, keep-with-next
   \                     ??Subroutine41_0:
   \   000000   75F00E       MOV       B,#0xe
   \   000003   E9           MOV       A,R1
   \   000004   A4           MUL       AB
   \   000005   2A           ADD       A,R2
   \   000006   F9           MOV       R1,A
   \   000007   74..         MOV       A,#BindingTable & 0xff
   \   000009   28           ADD       A,R0
   \   00000A   FA           MOV       R2,A
   \   00000B   74..         MOV       A,#(BindingTable >> 8) & 0xff
   \   00000D   39           ADDC      A,R1
   \   00000E   FB           MOV       R3,A
   \   00000F   22           RET

   \                                 In  segment BANKED_CODE, align 1, keep-with-next
   \                     ??Subroutine44_0:
   \   000000   7F04         MOV       R7,#0x4
   \   000002   02....       LJMP      ?BANKED_LEAVE_XDATA
    517          
    518          /*********************************************************************
    519           * @fn       bindRemoveDev()
    520           *
    521           * @brief
    522           *
    523           *   Remove all bind(s) entries associated to a device address (destination).
    524           *   Updates binding table.
    525           *
    526           * @param   Addr - address of device to be removed from Binding Table
    527           *
    528           * @return  none
    529           */

   \                                 In  segment BANKED_CODE, align 1, keep-with-next
    530          void bindRemoveDev( zAddrType_t *Addr )
   \                     bindRemoveDev:
    531          {
   \   000000                REQUIRE ?V0
   \   000000                REQUIRE ?V1
   \   000000                REQUIRE ?V2
   \   000000                REQUIRE ?V3
   \   000000                REQUIRE ?V4
   \   000000                REQUIRE ?V5
   \   000000   74F2         MOV       A,#-0xe
   \   000002   12....       LCALL     ?BANKED_ENTER_XDATA
   \   000005                ; Saved register size: 14
   \   000005                ; Auto size: 0
   \   000005   8A..         MOV       ?V2,R2
   \   000007   8B..         MOV       ?V3,R3
    532            uint16 idx;
    533            uint16 x;
    534          
    535            if ( Addr->addrMode == AddrGroup )
   \   000009   8A82         MOV       DPL,R2
   \   00000B   8B83         MOV       DPH,R3
   \   00000D   A3           INC       DPTR
   \   00000E   A3           INC       DPTR
   \   00000F   A3           INC       DPTR
   \   000010   A3           INC       DPTR
   \   000011   A3           INC       DPTR
   \   000012   A3           INC       DPTR
   \   000013   A3           INC       DPTR
   \   000014   A3           INC       DPTR
   \   000015   E0           MOVX      A,@DPTR
   \   000016   6401         XRL       A,#0x1
   \   000018   700D         JNZ       ??bindRemoveDev_0
    536            {
    537              idx = Addr->addr.shortAddr;
   \   00001A   8A82         MOV       DPL,R2
   \   00001C   8B83         MOV       DPH,R3
   \   00001E   E0           MOVX      A,@DPTR
   \   00001F   F5..         MOV       ?V0,A
   \   000021   A3           INC       DPTR
   \   000022   E0           MOVX      A,@DPTR
   \   000023   F5..         MOV       ?V1,A
   \   000025   8007         SJMP      ??bindRemoveDev_1
    538            }
    539            else
    540            {
    541              idx = bindingAddrMgsHelperFind( Addr );
   \                     ??bindRemoveDev_0:
   \   000027                ; Setup parameters for call to function bindingAddrMgsHelperFind
   \   000027   12....       LCALL     `??bindingAddrMgsHelperFind::?relay`; Banked call to: bindingAddrMgsHelperFind
   \   00002A   8A..         MOV       ?V0,R2
   \   00002C   8B..         MOV       ?V1,R3
    542            }
    543          
    544            if ( idx == INVALID_NODE_ADDR )
   \                     ??bindRemoveDev_1:
   \   00002E   74FE         MOV       A,#-0x2
   \   000030   65..         XRL       A,?V0
   \   000032   7004         JNZ       ??bindRemoveDev_2
   \   000034   74FF         MOV       A,#-0x1
   \   000036   65..         XRL       A,?V1
   \                     ??bindRemoveDev_2:
   \   000038   6057         JZ        ??bindRemoveDev_3
    545            {
    546              return;
    547            }
    548          
    549            // Removes all the entries that match the destination Address/Index
    550            for ( x = 0; x < gNWK_MAX_BINDING_ENTRIES; x++ )
   \   00003A   7E00         MOV       R6,#0x0
   \   00003C   7F00         MOV       R7,#0x0
   \   00003E   8025         SJMP      ??bindRemoveDev_4
    551            {
    552              if ( ( (Addr->addrMode == AddrGroup) && (BindingTable[x].dstGroupMode == DSTGROUPMODE_GROUP)
    553                                                   && (BindingTable[x].dstIdx == idx) ) ||
    554                   ( (Addr->addrMode != AddrGroup) && (BindingTable[x].dstGroupMode == DSTGROUPMODE_ADDR)
    555                                                   && (BindingTable[x].dstIdx == idx) ) )
   \                     ??bindRemoveDev_5:
   \   000040   12....       LCALL     ?Subroutine13 & 0xFFFF
   \                     ??CrossCallReturnLabel_66:
   \   000043   701B         JNZ       ??bindRemoveDev_6
   \   000045   12....       LCALL     ?Subroutine17 & 0xFFFF
   \                     ??CrossCallReturnLabel_14:
   \   000048   7004         JNZ       ??bindRemoveDev_7
   \   00004A   A3           INC       DPTR
   \   00004B   E0           MOVX      A,@DPTR
   \   00004C   65..         XRL       A,?V1
   \                     ??bindRemoveDev_7:
   \   00004E   7010         JNZ       ??bindRemoveDev_6
    556              {
    557                bindRemoveEntry( &BindingTable[x] );
   \                     ??bindRemoveDev_8:
   \   000050                ; Setup parameters for call to function bindRemoveEntry
   \   000050   EE           MOV       A,R6
   \   000051   F8           MOV       R0,A
   \   000052   EF           MOV       A,R7
   \   000053   F9           MOV       R1,A
   \   000054   E8           MOV       A,R0
   \   000055   75F00E       MOV       B,#0xe
   \   000058   A4           MUL       AB
   \   000059   F8           MOV       R0,A
   \   00005A   12....       LCALL     ??Subroutine41_0 & 0xFFFF
    558              }
   \                     ??CrossCallReturnLabel_68:
   \   00005D   12....       LCALL     `??bindRemoveEntry::?relay`; Banked call to: bindRemoveEntry
   \                     ??bindRemoveDev_6:
   \   000060   0E           INC       R6
   \   000061   EE           MOV       A,R6
   \   000062   7001         JNZ       ??bindRemoveDev_4
   \   000064   0F           INC       R7
   \                     ??bindRemoveDev_4:
   \   000065   12....       LCALL     ?Subroutine10 & 0xFFFF
   \                     ??CrossCallReturnLabel_7:
   \   000068   5027         JNC       ??bindRemoveDev_3
   \   00006A   85..82       MOV       DPL,?V2
   \   00006D   85..83       MOV       DPH,?V3
   \   000070   A3           INC       DPTR
   \   000071   A3           INC       DPTR
   \   000072   A3           INC       DPTR
   \   000073   A3           INC       DPTR
   \   000074   A3           INC       DPTR
   \   000075   A3           INC       DPTR
   \   000076   A3           INC       DPTR
   \   000077   A3           INC       DPTR
   \   000078   E0           MOVX      A,@DPTR
   \   000079   6401         XRL       A,#0x1
   \   00007B   70C3         JNZ       ??bindRemoveDev_5
   \   00007D   12....       LCALL     ?Subroutine13 & 0xFFFF
    559            }
   \                     ??CrossCallReturnLabel_67:
   \   000080   6401         XRL       A,#0x1
   \   000082   70DC         JNZ       ??bindRemoveDev_6
   \   000084   12....       LCALL     ?Subroutine17 & 0xFFFF
   \                     ??CrossCallReturnLabel_15:
   \   000087   7004         JNZ       ??bindRemoveDev_9
   \   000089   A3           INC       DPTR
   \   00008A   E0           MOVX      A,@DPTR
   \   00008B   65..         XRL       A,?V1
   \                     ??bindRemoveDev_9:
   \   00008D   60C1         JZ        ??bindRemoveDev_8
   \   00008F   80CF         SJMP      ??bindRemoveDev_6
    560          }
   \                     ??bindRemoveDev_3:
   \   000091                REQUIRE ?Subroutine6
   \   000091                ; // Fall through to label ?Subroutine6

   \                                 In  segment BANKED_CODE, align 1, keep-with-next
   \                     ?Subroutine6:
   \   000000   7F06         MOV       R7,#0x6
   \   000002   02....       LJMP      ?BANKED_LEAVE_XDATA

   \                                 In  segment BANKED_CODE, align 1, keep-with-next
   \                     ?Subroutine17:
   \   000000   EE           MOV       A,R6
   \   000001   F8           MOV       R0,A
   \   000002   EF           MOV       A,R7
   \   000003   F9           MOV       R1,A
   \   000004   E8           MOV       A,R0
   \   000005   75F00E       MOV       B,#0xe
   \   000008   A4           MUL       AB
   \   000009   F8           MOV       R0,A
   \   00000A   75F00E       MOV       B,#0xe
   \   00000D   E9           MOV       A,R1
   \   00000E   A4           MUL       AB
   \   00000F   2A           ADD       A,R2
   \   000010   F9           MOV       R1,A
   \   000011   74..         MOV       A,#(BindingTable + 2) & 0xff
   \   000013   28           ADD       A,R0
   \   000014   F582         MOV       DPL,A
   \   000016   74..         MOV       A,#((BindingTable + 2) >> 8) & 0xff
   \   000018   39           ADDC      A,R1
   \   000019   F583         MOV       DPH,A
   \   00001B   E0           MOVX      A,@DPTR
   \   00001C   65..         XRL       A,?V0
   \   00001E   22           RET

   \                                 In  segment BANKED_CODE, align 1, keep-with-next
   \                     ?Subroutine13:
   \   000000   EE           MOV       A,R6
   \   000001   F8           MOV       R0,A
   \   000002   EF           MOV       A,R7
   \   000003   F9           MOV       R1,A
   \   000004   E8           MOV       A,R0
   \   000005   75F00E       MOV       B,#0xe
   \   000008   A4           MUL       AB
   \   000009   F8           MOV       R0,A
   \   00000A   AAF0         MOV       R2,B
   \   00000C   75F00E       MOV       B,#0xe
   \   00000F   E9           MOV       A,R1
   \   000010   A4           MUL       AB
   \   000011   2A           ADD       A,R2
   \   000012   F9           MOV       R1,A
   \   000013                REQUIRE ??Subroutine40_0
   \   000013                ; // Fall through to label ??Subroutine40_0

   \                                 In  segment BANKED_CODE, align 1, keep-with-next
   \                     ?Subroutine10:
   \   000000   12....       LCALL     ?Subroutine32 & 0xFFFF
   \                     ??CrossCallReturnLabel_76:
   \   000003   C3           CLR       C
   \   000004   EE           MOV       A,R6
   \   000005   98           SUBB      A,R0
   \   000006   EF           MOV       A,R7
   \   000007   99           SUBB      A,R1
   \   000008   22           RET

   \                                 In  segment BANKED_CODE, align 1, keep-with-next
   \                     ?Subroutine32:
   \   000000   90....       MOV       DPTR,#gNWK_MAX_BINDING_ENTRIES
   \   000003                REQUIRE ??Subroutine43_0
   \   000003                ; // Fall through to label ??Subroutine43_0
    561          
    562          /*********************************************************************
    563           * @fn       bindRemoveSrcDev()
    564           *
    565           * @brief
    566           *
    567           *   Remove binds(s) associated to device address (source).
    568           *   Updates binding table.
    569           *
    570           * @param   srcAddr - address of device
    571           * @param   ep - endpoint to remove, 0xFF is all endpoints
    572           *
    573           * @return  none
    574           */

   \                                 In  segment BANKED_CODE, align 1, keep-with-next
    575          void bindRemoveSrcDev( uint8 ep )
   \                     bindRemoveSrcDev:
    576          {
   \   000000                REQUIRE ?V0
   \   000000   74F7         MOV       A,#-0x9
   \   000002   12....       LCALL     ?BANKED_ENTER_XDATA
   \   000005                ; Saved register size: 9
   \   000005                ; Auto size: 0
   \   000005   89..         MOV       ?V0,R1
    577            uint16 x;
    578          
    579            for ( x = 0; x < gNWK_MAX_BINDING_ENTRIES; x++ )
   \   000007   7E00         MOV       R6,#0x0
   \   000009   7F00         MOV       R7,#0x0
   \   00000B   802C         SJMP      ??bindRemoveSrcDev_0
    580            {
    581              if ( (ep == 0xFF) || (ep == BindingTable[x].srcEP) )
   \                     ??bindRemoveSrcDev_1:
   \   00000D   74FF         MOV       A,#-0x1
   \   00000F   65..         XRL       A,?V0
   \   000011   6017         JZ        ??bindRemoveSrcDev_2
   \   000013   EE           MOV       A,R6
   \   000014   F8           MOV       R0,A
   \   000015   EF           MOV       A,R7
   \   000016   F9           MOV       R1,A
   \   000017   E8           MOV       A,R0
   \   000018   75F00E       MOV       B,#0xe
   \   00001B   A4           MUL       AB
   \   00001C   F8           MOV       R0,A
   \   00001D   AAF0         MOV       R2,B
   \   00001F   75F00E       MOV       B,#0xe
   \   000022   E9           MOV       A,R1
   \   000023   12....       LCALL     ?Subroutine12 & 0xFFFF
   \                     ??CrossCallReturnLabel_74:
   \   000026   65..         XRL       A,?V0
   \   000028   700A         JNZ       ??bindRemoveSrcDev_3
    582              {
    583                bindRemoveEntry( &BindingTable[x] );
   \                     ??bindRemoveSrcDev_2:
   \   00002A                ; Setup parameters for call to function bindRemoveEntry
   \   00002A   EE           MOV       A,R6
   \   00002B   F8           MOV       R0,A
   \   00002C   EF           MOV       A,R7
   \   00002D   F9           MOV       R1,A
   \   00002E   12....       LCALL     ?Subroutine16 & 0xFFFF
    584              }
    585            }
   \                     ??CrossCallReturnLabel_70:
   \   000031   12....       LCALL     `??bindRemoveEntry::?relay`; Banked call to: bindRemoveEntry
   \                     ??bindRemoveSrcDev_3:
   \   000034   0E           INC       R6
   \   000035   EE           MOV       A,R6
   \   000036   7001         JNZ       ??bindRemoveSrcDev_0
   \   000038   0F           INC       R7
   \                     ??bindRemoveSrcDev_0:
   \   000039   12....       LCALL     ?Subroutine10 & 0xFFFF
   \                     ??CrossCallReturnLabel_8:
   \   00003C   40CF         JC        ??bindRemoveSrcDev_1
    586          }
   \   00003E   02....       LJMP      ?Subroutine2 & 0xFFFF

   \                                 In  segment BANKED_CODE, align 1, keep-with-next
   \                     ?Subroutine12:
   \   000000   A4           MUL       AB
   \   000001   2A           ADD       A,R2
   \   000002   F9           MOV       R1,A
   \   000003                REQUIRE ??Subroutine42_0
   \   000003                ; // Fall through to label ??Subroutine42_0
    587          
    588          /*********************************************************************
    589           * @fn          bindNumBoundTo
    590           *
    591           * @brief       Calculate the number items this device is bound to.
    592           *              When srcMode is set to TRUE, discard what value devAddr
    593           *              has, it returns number count bound to the local dev.
    594           *
    595           * @param       devAddr - device Address
    596           * @param       devEP - endpoint
    597           * @param       srcMode - TRUE - assume devHandle is a source address
    598           *                        FALSE - destination address
    599           *
    600           * @return      status
    601           */

   \                                 In  segment BANKED_CODE, align 1, keep-with-next
    602          byte bindNumBoundTo( zAddrType_t *devAddr, byte devEpInt, byte srcMode )
   \                     bindNumBoundTo:
    603          {
   \   000000                REQUIRE ?V0
   \   000000                REQUIRE ?V1
   \   000000                REQUIRE ?V2
   \   000000                REQUIRE ?V3
   \   000000                REQUIRE ?V4
   \   000000   74F3         MOV       A,#-0xd
   \   000002   12....       LCALL     ?BANKED_ENTER_XDATA
   \   000005                ; Saved register size: 13
   \   000005                ; Auto size: 0
   \   000005   EA           MOV       A,R2
   \   000006   FE           MOV       R6,A
   \   000007   EB           MOV       A,R3
   \   000008   FF           MOV       R7,A
   \   000009   89..         MOV       ?V1,R1
   \   00000B   8C..         MOV       ?V4,R4
    604            BindingEntry_t *pBind;
    605            uint16 idx;
    606            byte   num;
    607            uint16 x;
    608          
    609            // Init
    610            num = 0;
   \   00000D   75..00       MOV       ?V0,#0x0
    611          
    612            if ( devAddr->addrMode == AddrGroup )
   \   000010   8E82         MOV       DPL,R6
   \   000012   8F83         MOV       DPH,R7
   \   000014   A3           INC       DPTR
   \   000015   A3           INC       DPTR
   \   000016   A3           INC       DPTR
   \   000017   A3           INC       DPTR
   \   000018   A3           INC       DPTR
   \   000019   A3           INC       DPTR
   \   00001A   A3           INC       DPTR
   \   00001B   A3           INC       DPTR
   \   00001C   E0           MOVX      A,@DPTR
   \   00001D   6401         XRL       A,#0x1
   \   00001F   700B         JNZ       ??bindNumBoundTo_0
    613            {
    614              idx = devAddr->addr.shortAddr;
   \   000021   8E82         MOV       DPL,R6
   \   000023   8F83         MOV       DPH,R7
   \   000025   E0           MOVX      A,@DPTR
   \   000026   FC           MOV       R4,A
   \   000027   A3           INC       DPTR
   \   000028   E0           MOVX      A,@DPTR
   \   000029   FD           MOV       R5,A
   \   00002A   800B         SJMP      ??bindNumBoundTo_1
    615            }
    616            else
    617            {
    618              idx = bindingAddrMgsHelperFind( devAddr );
   \                     ??bindNumBoundTo_0:
   \   00002C                ; Setup parameters for call to function bindingAddrMgsHelperFind
   \   00002C   12....       LCALL     `??bindingAddrMgsHelperFind::?relay`; Banked call to: bindingAddrMgsHelperFind
   \   00002F   8A..         MOV       ?V2,R2
   \   000031   8B..         MOV       ?V3,R3
   \   000033   AC..         MOV       R4,?V2
   \   000035   AD..         MOV       R5,?V3
    619            }
    620          
    621            for ( x = 0; x < gNWK_MAX_BINDING_ENTRIES; x++ )
   \                     ??bindNumBoundTo_1:
   \   000037   7800         MOV       R0,#0x0
   \   000039   7900         MOV       R1,#0x0
   \   00003B   8026         SJMP      ??bindNumBoundTo_2
    622            {
    623              pBind = &BindingTable[x];
    624              if ( srcMode )
    625              {
    626                if ( pBind->srcEP == devEpInt )
    627                {
    628                  num++;
    629                }
    630              }
    631              else
    632              {
    633                if ( ((devAddr->addrMode == AddrGroup)
    634                        && (pBind->dstGroupMode == DSTGROUPMODE_GROUP) && (pBind->dstIdx == idx))
    635                    || ((devAddr->addrMode != AddrGroup) && (pBind->dstGroupMode == DSTGROUPMODE_ADDR)
    636                                          && (pBind->dstIdx == idx) && (pBind->dstEP == devEpInt)) )
   \                     ??bindNumBoundTo_3:
   \   00003D   E0           MOVX      A,@DPTR
   \   00003E   701E         JNZ       ??bindNumBoundTo_4
   \   000040   8A82         MOV       DPL,R2
   \   000042   8B83         MOV       DPH,R3
   \   000044   A3           INC       DPTR
   \   000045   A3           INC       DPTR
   \   000046   E0           MOVX      A,@DPTR
   \   000047   6C           XRL       A,R4
   \   000048   7003         JNZ       ??bindNumBoundTo_5
   \   00004A   A3           INC       DPTR
   \   00004B   E0           MOVX      A,@DPTR
   \   00004C   6D           XRL       A,R5
   \                     ??bindNumBoundTo_5:
   \   00004D   700F         JNZ       ??bindNumBoundTo_4
   \   00004F   8A82         MOV       DPL,R2
   \   000051   8B83         MOV       DPH,R3
   \   000053   A3           INC       DPTR
   \   000054   A3           INC       DPTR
   \   000055   A3           INC       DPTR
   \   000056   A3           INC       DPTR
   \   000057   E0           MOVX      A,@DPTR
   \   000058   65..         XRL       A,?V1
   \   00005A   7002         JNZ       ??bindNumBoundTo_4
    637                {
    638                  num++;
   \                     ??bindNumBoundTo_6:
   \   00005C   05..         INC       ?V0
    639                }
   \                     ??bindNumBoundTo_4:
   \   00005E   08           INC       R0
   \   00005F   E8           MOV       A,R0
   \   000060   7001         JNZ       ??bindNumBoundTo_2
   \   000062   09           INC       R1
   \                     ??bindNumBoundTo_2:
   \   000063   12....       LCALL     ?Subroutine8 & 0xFFFF
   \                     ??CrossCallReturnLabel_3:
   \   000066   5058         JNC       ??bindNumBoundTo_7
   \   000068   E8           MOV       A,R0
   \   000069   FA           MOV       R2,A
   \   00006A   E9           MOV       A,R1
   \   00006B   FB           MOV       R3,A
   \   00006C   EA           MOV       A,R2
   \   00006D   75F00E       MOV       B,#0xe
   \   000070   A4           MUL       AB
   \   000071   FA           MOV       R2,A
   \   000072   85F0..       MOV       ?V2,B
   \   000075   75F00E       MOV       B,#0xe
   \   000078   EB           MOV       A,R3
   \   000079   A4           MUL       AB
   \   00007A   25..         ADD       A,?V2
   \   00007C   FB           MOV       R3,A
   \   00007D   74..         MOV       A,#BindingTable & 0xff
   \   00007F   2A           ADD       A,R2
   \   000080   FA           MOV       R2,A
   \   000081   74..         MOV       A,#(BindingTable >> 8) & 0xff
   \   000083   3B           ADDC      A,R3
   \   000084   FB           MOV       R3,A
   \   000085   E5..         MOV       A,?V4
   \   000087   600B         JZ        ??bindNumBoundTo_8
   \   000089   8A82         MOV       DPL,R2
   \   00008B   8B83         MOV       DPH,R3
   \   00008D   E0           MOVX      A,@DPTR
   \   00008E   65..         XRL       A,?V1
   \   000090   70CC         JNZ       ??bindNumBoundTo_4
   \   000092   80C8         SJMP      ??bindNumBoundTo_6
   \                     ??bindNumBoundTo_8:
   \   000094   8E82         MOV       DPL,R6
   \   000096   8F83         MOV       DPH,R7
   \   000098   A3           INC       DPTR
   \   000099   A3           INC       DPTR
   \   00009A   A3           INC       DPTR
   \   00009B   A3           INC       DPTR
   \   00009C   A3           INC       DPTR
   \   00009D   A3           INC       DPTR
   \   00009E   A3           INC       DPTR
   \   00009F   A3           INC       DPTR
   \   0000A0   E0           MOVX      A,@DPTR
   \   0000A1   6401         XRL       A,#0x1
   \   0000A3   8A82         MOV       DPL,R2
   \   0000A5   8B83         MOV       DPH,R3
   \   0000A7   A3           INC       DPTR
   \   0000A8   7093         JNZ       ??bindNumBoundTo_3
   \   0000AA   E0           MOVX      A,@DPTR
   \   0000AB   6401         XRL       A,#0x1
   \   0000AD   70AF         JNZ       ??bindNumBoundTo_4
   \   0000AF   8A82         MOV       DPL,R2
   \   0000B1   8B83         MOV       DPH,R3
   \   0000B3   A3           INC       DPTR
   \   0000B4   A3           INC       DPTR
   \   0000B5   E0           MOVX      A,@DPTR
   \   0000B6   6C           XRL       A,R4
   \   0000B7   7003         JNZ       ??bindNumBoundTo_9
   \   0000B9   A3           INC       DPTR
   \   0000BA   E0           MOVX      A,@DPTR
   \   0000BB   6D           XRL       A,R5
   \                     ??bindNumBoundTo_9:
   \   0000BC   609E         JZ        ??bindNumBoundTo_6
   \   0000BE   809E         SJMP      ??bindNumBoundTo_4
    640              }
    641            }
    642          
    643            return num;
   \                     ??bindNumBoundTo_7:
   \   0000C0   A9..         MOV       R1,?V0
   \   0000C2                REQUIRE ?Subroutine7
   \   0000C2                ; // Fall through to label ?Subroutine7
    644          }

   \                                 In  segment BANKED_CODE, align 1, keep-with-next
   \                     ?Subroutine7:
   \   000000   7F05         MOV       R7,#0x5
   \   000002   02....       LJMP      ?BANKED_LEAVE_XDATA
    645          
    646          /*********************************************************************
    647           * @fn          bindNumReflections
    648           *
    649           * @brief       Counts the number of reflections needed for a
    650           *              endpoint and cluster ID combo.
    651           *
    652           * @param       ep - source endpoint
    653           * @param       clusterID - matching clusterID
    654           *
    655           * @return      number of reflections needed.
    656           */

   \                                 In  segment BANKED_CODE, align 1, keep-with-next
    657          uint16 bindNumReflections( uint8 ep, uint16 clusterID )
   \                     bindNumReflections:
    658          {
   \   000000                REQUIRE ?V0
   \   000000                REQUIRE ?V1
   \   000000                REQUIRE ?V2
   \   000000                REQUIRE ?V3
   \   000000                REQUIRE ?V4
   \   000000   74F3         MOV       A,#-0xd
   \   000002   12....       LCALL     ?BANKED_ENTER_XDATA
   \   000005                ; Saved register size: 13
   \   000005                ; Auto size: 0
   \   000005   89..         MOV       ?V4,R1
   \   000007   EA           MOV       A,R2
   \   000008   FE           MOV       R6,A
   \   000009   EB           MOV       A,R3
   \   00000A   FF           MOV       R7,A
    659            uint16 x;
    660            BindingEntry_t *pBind;
    661            uint16 cnt = 0;
   \   00000B   75..00       MOV       ?V2,#0x0
   \   00000E   75..00       MOV       ?V3,#0x0
    662            uint8 bindEP;
    663          
    664            for ( x = 0; x < gNWK_MAX_BINDING_ENTRIES; x++ )
   \   000011   75..00       MOV       ?V0,#0x0
   \   000014   75..00       MOV       ?V1,#0x0
   \   000017   8033         SJMP      ??bindNumReflections_0
    665            {
    666              pBind = &BindingTable[x];
   \                     ??bindNumReflections_1:
   \   000019   E5..         MOV       A,?V0
   \   00001B   75F00E       MOV       B,#0xe
   \   00001E   A4           MUL       AB
   \   00001F   F8           MOV       R0,A
   \   000020   AAF0         MOV       R2,B
   \   000022   75F00E       MOV       B,#0xe
   \   000025   E5..         MOV       A,?V1
   \   000027   12....       LCALL     ?Subroutine12 & 0xFFFF
    667              bindEP = pBind->srcEP;
    668          
    669              if ( (bindEP == ep) && (bindIsClusterIDinList( pBind, clusterID )) )
   \                     ??CrossCallReturnLabel_72:
   \   00002A   65..         XRL       A,?V4
   \   00002C   7016         JNZ       ??bindNumReflections_2
   \   00002E                ; Setup parameters for call to function bindIsClusterIDinList
   \   00002E   EE           MOV       A,R6
   \   00002F   FC           MOV       R4,A
   \   000030   EF           MOV       A,R7
   \   000031   FD           MOV       R5,A
   \   000032   AA82         MOV       R2,DPL
   \   000034   AB83         MOV       R3,DPH
   \   000036   12....       LCALL     `??bindIsClusterIDinList::?relay`; Banked call to: bindIsClusterIDinList
   \   000039   E9           MOV       A,R1
   \   00003A   6008         JZ        ??bindNumReflections_2
    670              {
    671                cnt++;
   \   00003C   05..         INC       ?V2
   \   00003E   E5..         MOV       A,?V2
   \   000040   7002         JNZ       ??bindNumReflections_2
   \   000042   05..         INC       ?V3
    672              }
    673            }
   \                     ??bindNumReflections_2:
   \   000044   05..         INC       ?V0
   \   000046   E5..         MOV       A,?V0
   \   000048   7002         JNZ       ??bindNumReflections_0
   \   00004A   05..         INC       ?V1
   \                     ??bindNumReflections_0:
   \   00004C   12....       LCALL     ?Subroutine14 & 0xFFFF
   \                     ??CrossCallReturnLabel_12:
   \   00004F   40C8         JC        ??bindNumReflections_1
    674          
    675            return ( cnt );
   \   000051   AA..         MOV       R2,?V2
   \   000053   AB..         MOV       R3,?V3
   \   000055   80..         SJMP      ?Subroutine7
    676          }

   \                                 In  segment BANKED_CODE, align 1, keep-with-next
   \                     ?Subroutine14:
   \   000000   12....       LCALL     ?Subroutine32 & 0xFFFF
   \                     ??CrossCallReturnLabel_77:
   \   000003   C3           CLR       C
   \   000004   E5..         MOV       A,?V0
   \   000006   98           SUBB      A,R0
   \   000007   E5..         MOV       A,?V1
   \   000009   99           SUBB      A,R1
   \   00000A   22           RET
    677          
    678          /*********************************************************************
    679           * @fn          bindFind
    680           *
    681           * @brief       Finds the binding entry for the source address, endpoint
    682           *              and cluster ID passed in as a parameter.
    683           *
    684           * @param       ep - source endpoint
    685           * @param       clusterID - matching clusterID
    686           * @param       skip - number of matches to skip before returning
    687           *
    688           * @return      pointer to the binding table entry, NULL if not found
    689           */

   \                                 In  segment BANKED_CODE, align 1, keep-with-next
    690          BindingEntry_t *bindFind( uint8 ep, uint16 clusterID, uint8 skipping )
   \                     bindFind:
    691          {
   \   000000                REQUIRE ?V0
   \   000000                REQUIRE ?V1
   \   000000                REQUIRE ?V2
   \   000000                REQUIRE ?V3
   \   000000                REQUIRE ?V4
   \   000000                REQUIRE ?V5
   \   000000                REQUIRE ?V6
   \   000000   74F1         MOV       A,#-0xf
   \   000002   12....       LCALL     ?BANKED_ENTER_XDATA
   \   000005                ; Saved register size: 15
   \   000005                ; Auto size: 0
   \   000005   89..         MOV       ?V6,R1
   \   000007   EA           MOV       A,R2
   \   000008   FE           MOV       R6,A
   \   000009   EB           MOV       A,R3
   \   00000A   FF           MOV       R7,A
   \   00000B   8C..         MOV       ?V3,R4
    692            BindingEntry_t *pBind;
    693            byte skipped = 0;
   \   00000D   75..00       MOV       ?V2,#0x0
    694            uint16 x;
    695          
    696            for ( x = 0; x < gNWK_MAX_BINDING_ENTRIES; x++ )
   \   000010   75..00       MOV       ?V0,#0x0
   \   000013   75..00       MOV       ?V1,#0x0
   \   000016   800A         SJMP      ??bindFind_0
    697            {
    698              pBind = &BindingTable[x];
    699          
    700              if ( ( pBind->srcEP == ep) && bindIsClusterIDinList( pBind, clusterID ))
    701              {
    702                if ( skipped < skipping )
    703                {
    704                  skipped++;
   \                     ??bindFind_1:
   \   000018   05..         INC       ?V2
    705                }
   \                     ??bindFind_2:
   \   00001A   05..         INC       ?V0
   \   00001C   E5..         MOV       A,?V0
   \   00001E   7002         JNZ       ??bindFind_0
   \   000020   05..         INC       ?V1
   \                     ??bindFind_0:
   \   000022   12....       LCALL     ?Subroutine14 & 0xFFFF
   \                     ??CrossCallReturnLabel_13:
   \   000025   5036         JNC       ??bindFind_3
   \   000027   E5..         MOV       A,?V0
   \   000029   75F00E       MOV       B,#0xe
   \   00002C   A4           MUL       AB
   \   00002D   F8           MOV       R0,A
   \   00002E   AAF0         MOV       R2,B
   \   000030   75F00E       MOV       B,#0xe
   \   000033   E5..         MOV       A,?V1
   \   000035   12....       LCALL     ?Subroutine20 & 0xFFFF
   \                     ??CrossCallReturnLabel_21:
   \   000038   85..82       MOV       DPL,?V4
   \   00003B   F583         MOV       DPH,A
   \   00003D   E0           MOVX      A,@DPTR
   \   00003E   65..         XRL       A,?V6
   \   000040   70D8         JNZ       ??bindFind_2
   \   000042                ; Setup parameters for call to function bindIsClusterIDinList
   \   000042   EE           MOV       A,R6
   \   000043   FC           MOV       R4,A
   \   000044   EF           MOV       A,R7
   \   000045   FD           MOV       R5,A
   \   000046   AA..         MOV       R2,?V4
   \   000048   AB..         MOV       R3,?V5
   \   00004A   12....       LCALL     `??bindIsClusterIDinList::?relay`; Banked call to: bindIsClusterIDinList
   \   00004D   E9           MOV       A,R1
   \   00004E   60CA         JZ        ??bindFind_2
   \   000050   E5..         MOV       A,?V2
   \   000052   C3           CLR       C
   \   000053   95..         SUBB      A,?V3
   \   000055   40C1         JC        ??bindFind_1
    706                else
    707                {
    708                  return ( pBind );
   \   000057   AA..         MOV       R2,?V4
   \   000059   AB..         MOV       R3,?V5
   \   00005B   8004         SJMP      ??bindFind_4
    709                }
    710              }
    711            }
    712          
    713            return ( (BindingEntry_t *)NULL );
   \                     ??bindFind_3:
   \   00005D   7A00         MOV       R2,#0x0
   \   00005F   7B00         MOV       R3,#0x0
   \                     ??bindFind_4:
   \   000061   02....       LJMP      ?Subroutine4 & 0xFFFF
    714          }

   \                                 In  segment BANKED_CODE, align 1, keep-with-next
   \                     ?Subroutine20:
   \   000000   A4           MUL       AB
   \   000001   2A           ADD       A,R2
   \   000002   F9           MOV       R1,A
   \   000003   74..         MOV       A,#BindingTable & 0xff
   \   000005   28           ADD       A,R0
   \   000006   F5..         MOV       ?V4,A
   \   000008   74..         MOV       A,#(BindingTable >> 8) & 0xff
   \   00000A   39           ADDC      A,R1
   \   00000B   F5..         MOV       ?V5,A
   \   00000D   22           RET
    715          
    716          /*********************************************************************
    717           * @fn          BindInitNV
    718           *
    719           * @brief       Initialize the Binding NV Item
    720           *
    721           * @param       none
    722           *
    723           * @return      ZSUCCESS if successful, NV_ITEM_UNINIT if item did not
    724           *              exist in NV, NV_OPER_FAILED if failure.
    725           */

   \                                 In  segment BANKED_CODE, align 1, keep-with-next
    726          byte BindInitNV( void )
   \                     BindInitNV:
    727          {
   \   000000                REQUIRE ?V0
   \   000000                REQUIRE ?V1
   \   000000   74F6         MOV       A,#-0xa
   \   000002   12....       LCALL     ?BANKED_ENTER_XDATA
   \   000005                ; Saved register size: 10
   \   000005                ; Auto size: 0
    728            byte ret;
    729          
    730            // Initialize the device list
    731            ret = osal_nv_item_init( ZCD_NV_BINDING_TABLE,
    732                            (uint16)(gBIND_REC_SIZE + NV_BIND_ITEM_SIZE), NULL );
   \   000005                ; Setup parameters for call to function osal_nv_item_init
   \   000005   E4           CLR       A
   \   000006   F5..         MOV       ?V0,A
   \   000008   F5..         MOV       ?V1,A
   \   00000A   78..         MOV       R0,#?V0
   \   00000C   12....       LCALL     ?PUSH_XSTACK_I_TWO
   \   00000F   90....       MOV       DPTR,#gBIND_REC_SIZE
   \   000012   12....       LCALL     ?Subroutine18 & 0xFFFF
   \                     ??CrossCallReturnLabel_18:
   \   000015   90....       MOV       DPTR,#gNWK_MAX_BINDING_ENTRIES
   \   000018   12....       LCALL     ?Subroutine9 & 0xFFFF
   \                     ??CrossCallReturnLabel_5:
   \   00001B   7583..       MOV       DPH,#(gBIND_REC_SIZE >> 8) & 0xff
   \   00001E   7582..       MOV       DPL,#gBIND_REC_SIZE & 0xff
   \   000021   E4           CLR       A
   \   000022   93           MOVC      A,@A+DPTR
   \   000023   28           ADD       A,R0
   \   000024   FC           MOV       R4,A
   \   000025   A3           INC       DPTR
   \   000026   E4           CLR       A
   \   000027   93           MOVC      A,@A+DPTR
   \   000028   39           ADDC      A,R1
   \   000029   FD           MOV       R5,A
   \   00002A   7A41         MOV       R2,#0x41
   \   00002C   7B00         MOV       R3,#0x0
   \   00002E   12....       LCALL     `??osal_nv_item_init::?relay`; Banked call to: osal_nv_item_init
   \   000031   7402         MOV       A,#0x2
   \   000033   12....       LCALL     ?DEALLOC_XSTACK8
   \   000036   E9           MOV       A,R1
   \   000037   FE           MOV       R6,A
    733          
    734            if ( ret != ZSUCCESS )
   \   000038   6003         JZ        ??BindInitNV_0
    735            {
    736              BindSetDefaultNV();
   \   00003A                ; Setup parameters for call to function BindSetDefaultNV
   \   00003A   12....       LCALL     `??BindSetDefaultNV::?relay`; Banked call to: BindSetDefaultNV
    737            }
    738          
    739            return ( ret );
   \                     ??BindInitNV_0:
   \   00003D   EE           MOV       A,R6
   \   00003E   F9           MOV       R1,A
   \   00003F   02....       LJMP      ??Subroutine34_0 & 0xFFFF
    740          }

   \                                 In  segment BANKED_CODE, align 1, keep-with-next
   \                     ?Subroutine9:
   \   000000   12....       LCALL     ?Subroutine33 & 0xFFFF
   \                     ??CrossCallReturnLabel_41:
   \   000003   E8           MOV       A,R0
   \   000004   85..F0       MOV       B,?V0
   \   000007   A4           MUL       AB
   \   000008   C8           XCH       A,R0
   \   000009   AAF0         MOV       R2,B
   \   00000B   85..F0       MOV       B,?V1
   \   00000E   A4           MUL       AB
   \   00000F   2A           ADD       A,R2
   \   000010   FA           MOV       R2,A
   \   000011   85..F0       MOV       B,?V0
   \   000014   E9           MOV       A,R1
   \   000015   A4           MUL       AB
   \   000016   2A           ADD       A,R2
   \   000017   F9           MOV       R1,A
   \   000018   22           RET
    741          
    742          /*********************************************************************
    743           * @fn          BindSetDefaultNV
    744           *
    745           * @brief       Write the defaults to NV
    746           *
    747           * @param       none
    748           *
    749           * @return      none
    750           */

   \                                 In  segment BANKED_CODE, align 1, keep-with-next
   \                     ?Subroutine0:
   \   000000   12....       LCALL     ?DEALLOC_XSTACK8
   \   000003                REQUIRE ??Subroutine34_0
   \   000003                ; // Fall through to label ??Subroutine34_0

   \                                 In  segment BANKED_CODE, align 1, keep-with-next
    751          void BindSetDefaultNV( void )
   \                     BindSetDefaultNV:
    752          {
   \   000000                REQUIRE ?V0
   \   000000                REQUIRE ?V1
   \   000000   74F6         MOV       A,#-0xa
   \   000002   12....       LCALL     ?BANKED_ENTER_XDATA
   \   000005                ; Saved register size: 10
   \   000005                ; Auto size: 2
   \   000005   74FE         MOV       A,#-0x2
   \   000007   12....       LCALL     ?ALLOC_XSTACK8
    753            nvBindingHdr_t hdr;
    754          
    755            // Initialize the header
    756            hdr.numRecs = 0;
   \   00000A   85..82       MOV       DPL,?XSP + 0
   \   00000D   85..83       MOV       DPH,?XSP + 1
   \   000010   E4           CLR       A
   \   000011   F0           MOVX      @DPTR,A
   \   000012   A3           INC       DPTR
   \   000013   F0           MOVX      @DPTR,A
    757          
    758            // Save off the header
    759            osal_nv_write( ZCD_NV_BINDING_TABLE, 0, sizeof( nvBindingHdr_t ), &hdr );
   \   000014                ; Setup parameters for call to function osal_nv_write
   \   000014   A8..         MOV       R0,?XSP + 0
   \   000016   A9..         MOV       R1,?XSP + 1
   \   000018   88..         MOV       ?V0,R0
   \   00001A   89..         MOV       ?V1,R1
   \   00001C   78..         MOV       R0,#?V0
   \   00001E   12....       LCALL     ?PUSH_XSTACK_I_TWO
   \   000021   75..02       MOV       ?V0,#0x2
   \   000024   75..00       MOV       ?V1,#0x0
   \   000027   78..         MOV       R0,#?V0
   \   000029   12....       LCALL     ?PUSH_XSTACK_I_TWO
   \   00002C   7C00         MOV       R4,#0x0
   \   00002E   7D00         MOV       R5,#0x0
   \   000030   7A41         MOV       R2,#0x41
   \   000032   7B00         MOV       R3,#0x0
   \   000034   12....       LCALL     `??osal_nv_write::?relay`; Banked call to: osal_nv_write
   \   000037   7404         MOV       A,#0x4
   \   000039   12....       LCALL     ?DEALLOC_XSTACK8
    760          }
   \   00003C   7402         MOV       A,#0x2
   \   00003E   02....       LJMP      ?Subroutine0 & 0xFFFF
    761          
    762          /*********************************************************************
    763           * @fn          BindRestoreFromNV
    764           *
    765           * @brief       Restore the binding table from NV
    766           *
    767           * @param       none
    768           *
    769           * @return      Number of entries restored
    770           */

   \                                 In  segment BANKED_CODE, align 1, keep-with-next
    771          uint16 BindRestoreFromNV( void )
   \                     BindRestoreFromNV:
    772          {
   \   000000                REQUIRE ?V0
   \   000000                REQUIRE ?V1
   \   000000                REQUIRE ?V2
   \   000000                REQUIRE ?V3
   \   000000   74F4         MOV       A,#-0xc
   \   000002   12....       LCALL     ?BANKED_ENTER_XDATA
   \   000005                ; Saved register size: 12
   \   000005                ; Auto size: 2
   \   000005   74FE         MOV       A,#-0x2
   \   000007   12....       LCALL     ?ALLOC_XSTACK8
    773            nvBindingHdr_t hdr;
    774            uint16 numAdded = 0;
   \   00000A   7E00         MOV       R6,#0x0
   \   00000C   7F00         MOV       R7,#0x0
    775          
    776            if ( osal_nv_read( ZCD_NV_BINDING_TABLE, 0, sizeof(nvBindingHdr_t), &hdr ) == ZSuccess )
   \   00000E                ; Setup parameters for call to function osal_nv_read
   \   00000E   A8..         MOV       R0,?XSP + 0
   \   000010   A9..         MOV       R1,?XSP + 1
   \   000012   88..         MOV       ?V0,R0
   \   000014   89..         MOV       ?V1,R1
   \   000016   78..         MOV       R0,#?V0
   \   000018   12....       LCALL     ?PUSH_XSTACK_I_TWO
   \   00001B   75..02       MOV       ?V0,#0x2
   \   00001E   8E..         MOV       ?V1,R6
   \   000020   78..         MOV       R0,#?V0
   \   000022   12....       LCALL     ?PUSH_XSTACK_I_TWO
   \   000025   7C00         MOV       R4,#0x0
   \   000027   7D00         MOV       R5,#0x0
   \   000029   7A41         MOV       R2,#0x41
   \   00002B   7B00         MOV       R3,#0x0
   \   00002D   12....       LCALL     `??osal_nv_read::?relay`; Banked call to: osal_nv_read
   \   000030   7404         MOV       A,#0x4
   \   000032   12....       LCALL     ?DEALLOC_XSTACK8
   \   000035   E9           MOV       A,R1
   \   000036   7064         JNZ       ??BindRestoreFromNV_0
    777            {
    778              if (hdr.numRecs > 0)
   \   000038   12....       LCALL     ?Subroutine27 & 0xFFFF
   \                     ??CrossCallReturnLabel_50:
   \   00003B   E8           MOV       A,R0
   \   00003C   49           ORL       A,R1
   \   00003D   605D         JZ        ??BindRestoreFromNV_0
    779              {
    780                // Read the whole table at once
    781                if ( osal_nv_read( ZCD_NV_BINDING_TABLE,
    782                                   (uint16)(sizeof(nvBindingHdr_t)),
    783                                   (NV_BIND_REC_SIZE * gNWK_MAX_BINDING_ENTRIES), BindingTable ) == ZSUCCESS )
   \   00003F                ; Setup parameters for call to function osal_nv_read
   \   00003F   75....       MOV       ?V0,#BindingTable & 0xff
   \   000042   75....       MOV       ?V1,#(BindingTable >> 8) & 0xff
   \   000045   78..         MOV       R0,#?V0
   \   000047   12....       LCALL     ?PUSH_XSTACK_I_TWO
   \   00004A   90....       MOV       DPTR,#gBIND_REC_SIZE
   \   00004D   E4           CLR       A
   \   00004E   93           MOVC      A,@A+DPTR
   \   00004F   F5..         MOV       ?V2,A
   \   000051   7401         MOV       A,#0x1
   \   000053   93           MOVC      A,@A+DPTR
   \   000054   F5..         MOV       ?V3,A
   \   000056   12....       LCALL     ?Subroutine19 & 0xFFFF
   \                     ??CrossCallReturnLabel_20:
   \   000059   E5..         MOV       A,?V2
   \   00005B   85..F0       MOV       B,?V0
   \   00005E   A4           MUL       AB
   \   00005F   C5..         XCH       A,?V2
   \   000061   A8F0         MOV       R0,B
   \   000063   85..F0       MOV       B,?V1
   \   000066   A4           MUL       AB
   \   000067   28           ADD       A,R0
   \   000068   F8           MOV       R0,A
   \   000069   85..F0       MOV       B,?V0
   \   00006C   E5..         MOV       A,?V3
   \   00006E   A4           MUL       AB
   \   00006F   28           ADD       A,R0
   \   000070   F5..         MOV       ?V3,A
   \   000072   78..         MOV       R0,#?V2
   \   000074   12....       LCALL     ?PUSH_XSTACK_I_TWO
   \   000077   7C02         MOV       R4,#0x2
   \   000079   7D00         MOV       R5,#0x0
   \   00007B   7A41         MOV       R2,#0x41
   \   00007D   7B00         MOV       R3,#0x0
   \   00007F   12....       LCALL     `??osal_nv_read::?relay`; Banked call to: osal_nv_read
   \   000082   7404         MOV       A,#0x4
   \   000084   12....       LCALL     ?DEALLOC_XSTACK8
   \   000087   E9           MOV       A,R1
   \   000088   7012         JNZ       ??BindRestoreFromNV_0
    784                {
    785                  numAdded = gNWK_MAX_BINDING_ENTRIES;
   \   00008A   90....       MOV       DPTR,#gNWK_MAX_BINDING_ENTRIES
   \   00008D   E4           CLR       A
   \   00008E   93           MOVC      A,@A+DPTR
   \   00008F   C0E0         PUSH      A
   \   000091   7401         MOV       A,#0x1
   \   000093   93           MOVC      A,@A+DPTR
   \   000094   F583         MOV       DPH,A
   \   000096   D082         POP       DPL
   \   000098   AE82         MOV       R6,DPL
   \   00009A   AF83         MOV       R7,DPH
    786                }
    787              }
    788            }
    789            return ( numAdded );
   \                     ??BindRestoreFromNV_0:
   \   00009C   EE           MOV       A,R6
   \   00009D   FA           MOV       R2,A
   \   00009E   EF           MOV       A,R7
   \   00009F   FB           MOV       R3,A
   \   0000A0   7402         MOV       A,#0x2
   \   0000A2                REQUIRE ?Subroutine5
   \   0000A2                ; // Fall through to label ?Subroutine5
    790          }

   \                                 In  segment BANKED_CODE, align 1, keep-with-next
   \                     ?Subroutine5:
   \   000000   12....       LCALL     ?DEALLOC_XSTACK8
   \   000003                REQUIRE ??Subroutine44_0
   \   000003                ; // Fall through to label ??Subroutine44_0
    791          
    792          /*********************************************************************
    793           * @fn          BindWriteNV
    794           *
    795           * @brief       Save the Binding Table in NV
    796           *
    797           * @param       none
    798           *
    799           * @return      none
    800           */

   \                                 In  segment BANKED_CODE, align 1, keep-with-next
    801          void BindWriteNV( void )
   \                     BindWriteNV:
    802          {
   \   000000                REQUIRE ?V0
   \   000000                REQUIRE ?V1
   \   000000                REQUIRE ?V2
   \   000000                REQUIRE ?V4
   \   000000                REQUIRE ?V5
   \   000000   74F2         MOV       A,#-0xe
   \   000002   12....       LCALL     ?BANKED_ENTER_XDATA
   \   000005                ; Saved register size: 14
   \   000005                ; Auto size: 16
   \   000005   74F0         MOV       A,#-0x10
   \   000007   12....       LCALL     ?ALLOC_XSTACK8
    803            BindingEntry_t *pBind;
    804            BindingEntry_t bind;
    805            nvBindingHdr_t hdr;
    806            uint16 x;
    807          
    808            hdr.numRecs = 0;
   \   00000A   85..82       MOV       DPL,?XSP + 0
   \   00000D   85..83       MOV       DPH,?XSP + 1
   \   000010   E4           CLR       A
   \   000011   F0           MOVX      @DPTR,A
   \   000012   A3           INC       DPTR
   \   000013   F0           MOVX      @DPTR,A
    809          
    810            for ( x = 0; x < gNWK_MAX_BINDING_ENTRIES; x++ )
   \   000014   FE           MOV       R6,A
   \   000015   FF           MOV       R7,A
   \   000016   807F         SJMP      ??BindWriteNV_0
    811            {
    812              pBind = &BindingTable[x];
   \                     ??BindWriteNV_1:
   \   000018   EE           MOV       A,R6
   \   000019   F8           MOV       R0,A
   \   00001A   EF           MOV       A,R7
   \   00001B   F9           MOV       R1,A
   \   00001C   E8           MOV       A,R0
   \   00001D   75F00E       MOV       B,#0xe
   \   000020   A4           MUL       AB
   \   000021   F8           MOV       R0,A
   \   000022   AAF0         MOV       R2,B
   \   000024   75F00E       MOV       B,#0xe
   \   000027   E9           MOV       A,R1
   \   000028   12....       LCALL     ?Subroutine20 & 0xFFFF
    813          
    814              osal_memcpy( &bind, pBind, gBIND_REC_SIZE );
   \                     ??CrossCallReturnLabel_22:
   \   00002B                ; Setup parameters for call to function osal_memcpy
   \   00002B   85....       MOV       ?V0,?V4
   \   00002E   F5..         MOV       ?V1,A
   \   000030   75..00       MOV       ?V2,#0x0
   \   000033   78..         MOV       R0,#?V0
   \   000035   12....       LCALL     ?PUSH_XSTACK_I_THREE
   \   000038   12....       LCALL     ?Subroutine15 & 0xFFFF
   \                     ??CrossCallReturnLabel_54:
   \   00003B   7405         MOV       A,#0x5
   \   00003D   12....       LCALL     ?XSTACK_DISP101_8
   \   000040   12....       LCALL     `??osal_memcpy::?relay`; Banked call to: osal_memcpy
   \   000043   7403         MOV       A,#0x3
   \   000045   12....       LCALL     ?DEALLOC_XSTACK8
    815          
    816              // Save the record to NV
    817              osal_nv_write( ZCD_NV_BINDING_TABLE,
    818                             (uint16)((sizeof(nvBindingHdr_t)) + (x * NV_BIND_REC_SIZE)),
    819                             NV_BIND_REC_SIZE, &bind );
   \   000048                ; Setup parameters for call to function osal_nv_write
   \   000048   7402         MOV       A,#0x2
   \   00004A   12....       LCALL     ?XSTACK_DISP100_8
   \   00004D   88..         MOV       ?V0,R0
   \   00004F   89..         MOV       ?V1,R1
   \   000051   78..         MOV       R0,#?V0
   \   000053   12....       LCALL     ?PUSH_XSTACK_I_TWO
   \   000056   90....       MOV       DPTR,#gBIND_REC_SIZE
   \   000059   12....       LCALL     ?PUSH_XSTACK8_C_TWO
   \   00005C   EE           MOV       A,R6
   \   00005D   F8           MOV       R0,A
   \   00005E   EF           MOV       A,R7
   \   00005F   F9           MOV       R1,A
   \   000060   90....       MOV       DPTR,#gBIND_REC_SIZE
   \   000063   12....       LCALL     ?Subroutine9 & 0xFFFF
   \                     ??CrossCallReturnLabel_6:
   \   000066   E8           MOV       A,R0
   \   000067   2402         ADD       A,#0x2
   \   000069   FC           MOV       R4,A
   \   00006A   E4           CLR       A
   \   00006B   39           ADDC      A,R1
   \   00006C   FD           MOV       R5,A
   \   00006D   7A41         MOV       R2,#0x41
   \   00006F   7B00         MOV       R3,#0x0
   \   000071   12....       LCALL     `??osal_nv_write::?relay`; Banked call to: osal_nv_write
   \   000074   7404         MOV       A,#0x4
   \   000076   12....       LCALL     ?DEALLOC_XSTACK8
    820          
    821              if ( pBind->srcEP != NV_BIND_EMPTY )
   \   000079   85..82       MOV       DPL,?V4
   \   00007C   85..83       MOV       DPH,?V5
   \   00007F   E0           MOVX      A,@DPTR
   \   000080   F4           CPL       A
   \   000081   600F         JZ        ??BindWriteNV_2
    822              {
    823                hdr.numRecs++;
   \   000083   85..82       MOV       DPL,?XSP + 0
   \   000086   85..83       MOV       DPH,?XSP + 1
   \   000089   E0           MOVX      A,@DPTR
   \   00008A   2401         ADD       A,#0x1
   \   00008C   F0           MOVX      @DPTR,A
   \   00008D   A3           INC       DPTR
   \   00008E   E0           MOVX      A,@DPTR
   \   00008F   3400         ADDC      A,#0x0
   \   000091   F0           MOVX      @DPTR,A
    824              }
    825            }
   \                     ??BindWriteNV_2:
   \   000092   0E           INC       R6
   \   000093   EE           MOV       A,R6
   \   000094   7001         JNZ       ??BindWriteNV_0
   \   000096   0F           INC       R7
   \                     ??BindWriteNV_0:
   \   000097   12....       LCALL     ?Subroutine10 & 0xFFFF
   \                     ??CrossCallReturnLabel_9:
   \   00009A   5003         JNC       $+5
   \   00009C   02....       LJMP      ??BindWriteNV_1 & 0xFFFF
    826          
    827            // Save off the header
    828            osal_nv_write( ZCD_NV_BINDING_TABLE, 0, sizeof(nvBindingHdr_t), &hdr );
   \   00009F                ; Setup parameters for call to function osal_nv_write
   \   00009F   A8..         MOV       R0,?XSP + 0
   \   0000A1   A9..         MOV       R1,?XSP + 1
   \   0000A3   88..         MOV       ?V0,R0
   \   0000A5   89..         MOV       ?V1,R1
   \   0000A7   78..         MOV       R0,#?V0
   \   0000A9   12....       LCALL     ?PUSH_XSTACK_I_TWO
   \   0000AC   75..02       MOV       ?V0,#0x2
   \   0000AF   75..00       MOV       ?V1,#0x0
   \   0000B2   78..         MOV       R0,#?V0
   \   0000B4   12....       LCALL     ?PUSH_XSTACK_I_TWO
   \   0000B7   7C00         MOV       R4,#0x0
   \   0000B9   7D00         MOV       R5,#0x0
   \   0000BB   7A41         MOV       R2,#0x41
   \   0000BD   7B00         MOV       R3,#0x0
   \   0000BF   12....       LCALL     `??osal_nv_write::?relay`; Banked call to: osal_nv_write
   \   0000C2   7404         MOV       A,#0x4
   \   0000C4   12....       LCALL     ?DEALLOC_XSTACK8
    829          }
   \   0000C7   7410         MOV       A,#0x10
   \   0000C9   12....       LCALL     ?DEALLOC_XSTACK8
   \   0000CC   02....       LJMP      ?Subroutine6 & 0xFFFF
    830          
    831          /*********************************************************************
    832           * @fn          bindUpdateAddr
    833           *
    834           * @brief       Update the network address in the binding table.
    835           *
    836           * @param       oldAddr - old network address
    837           * @param       newAddr - new network address
    838           *
    839           * @return      none
    840           */

   \                                 In  segment BANKED_CODE, align 1, keep-with-next
    841          void bindUpdateAddr( uint16 oldAddr, uint16 newAddr )
   \                     bindUpdateAddr:
    842          {
   \   000000                REQUIRE ?V0
   \   000000                REQUIRE ?V1
   \   000000                REQUIRE ?V2
   \   000000                REQUIRE ?V3
   \   000000   74F4         MOV       A,#-0xc
   \   000002   12....       LCALL     ?BANKED_ENTER_XDATA
   \   000005                ; Saved register size: 12
   \   000005                ; Auto size: 9
   \   000005   74F7         MOV       A,#-0x9
   \   000007   12....       LCALL     ?ALLOC_XSTACK8
   \   00000A   8C..         MOV       ?V0,R4
   \   00000C   8D..         MOV       ?V1,R5
    843            uint16 oldIdx;
    844            uint16 newIdx;
    845            zAddrType_t addr;
    846            uint16 x;
    847            BindingEntry_t *pBind;
    848          
    849            addr.addrMode = Addr16Bit;
   \   00000E   7408         MOV       A,#0x8
   \   000010   12....       LCALL     ?XSTACK_DISP0_8
   \   000013   7402         MOV       A,#0x2
   \   000015   F0           MOVX      @DPTR,A
    850            addr.addr.shortAddr = oldAddr;
   \   000016   85..82       MOV       DPL,?XSP + 0
   \   000019   85..83       MOV       DPH,?XSP + 1
   \   00001C   12....       LCALL     ?Subroutine22 & 0xFFFF
    851            oldIdx = bindingAddrMgsHelperFind( &addr );
   \                     ??CrossCallReturnLabel_25:
   \   00001F   12....       LCALL     `??bindingAddrMgsHelperFind::?relay`; Banked call to: bindingAddrMgsHelperFind
   \   000022   8A..         MOV       ?V2,R2
   \   000024   8B..         MOV       ?V3,R3
   \   000026   AE..         MOV       R6,?V2
   \   000028   AF..         MOV       R7,?V3
    852            addr.addr.shortAddr = newAddr;
   \   00002A   85..82       MOV       DPL,?XSP + 0
   \   00002D   85..83       MOV       DPH,?XSP + 1
   \   000030   12....       LCALL     ?Subroutine23 & 0xFFFF
    853            newIdx = bindingAddrMgsHelperFind( &addr );
   \                     ??CrossCallReturnLabel_45:
   \   000033                ; Setup parameters for call to function bindingAddrMgsHelperFind
   \   000033   AA..         MOV       R2,?XSP + 0
   \   000035   AB..         MOV       R3,?XSP + 1
   \   000037   12....       LCALL     `??bindingAddrMgsHelperFind::?relay`; Banked call to: bindingAddrMgsHelperFind
   \   00003A   8A..         MOV       ?V0,R2
   \   00003C   8B..         MOV       ?V1,R3
    854          
    855            for ( x = 0; x < gNWK_MAX_BINDING_ENTRIES; x++ )
   \   00003E   7800         MOV       R0,#0x0
   \   000040   7900         MOV       R1,#0x0
   \   000042   8038         SJMP      ??bindUpdateAddr_0
    856            {
    857              pBind = &BindingTable[x];
   \                     ??bindUpdateAddr_1:
   \   000044   E8           MOV       A,R0
   \   000045   FA           MOV       R2,A
   \   000046   E9           MOV       A,R1
   \   000047   FB           MOV       R3,A
   \   000048   EA           MOV       A,R2
   \   000049   75F00E       MOV       B,#0xe
   \   00004C   A4           MUL       AB
   \   00004D   FA           MOV       R2,A
   \   00004E   ACF0         MOV       R4,B
   \   000050   75F00E       MOV       B,#0xe
   \   000053   EB           MOV       A,R3
   \   000054   A4           MUL       AB
   \   000055   2C           ADD       A,R4
   \   000056   FB           MOV       R3,A
   \   000057   74..         MOV       A,#BindingTable & 0xff
   \   000059   2A           ADD       A,R2
   \   00005A   FA           MOV       R2,A
   \   00005B   74..         MOV       A,#(BindingTable >> 8) & 0xff
   \   00005D   3B           ADDC      A,R3
   \   00005E   FB           MOV       R3,A
    858          
    859              if ( pBind->dstIdx == oldIdx )
   \   00005F   8A82         MOV       DPL,R2
   \   000061   8B83         MOV       DPH,R3
   \   000063   A3           INC       DPTR
   \   000064   A3           INC       DPTR
   \   000065   E0           MOVX      A,@DPTR
   \   000066   6E           XRL       A,R6
   \   000067   7003         JNZ       ??bindUpdateAddr_2
   \   000069   A3           INC       DPTR
   \   00006A   E0           MOVX      A,@DPTR
   \   00006B   6F           XRL       A,R7
   \                     ??bindUpdateAddr_2:
   \   00006C   7009         JNZ       ??CrossCallReturnLabel_46
    860              {
    861                pBind->dstIdx = newIdx;
   \   00006E   8A82         MOV       DPL,R2
   \   000070   8B83         MOV       DPH,R3
   \   000072   A3           INC       DPTR
   \   000073   A3           INC       DPTR
   \   000074   12....       LCALL     ?Subroutine23 & 0xFFFF
    862              }
    863            }
   \                     ??CrossCallReturnLabel_46:
   \   000077   08           INC       R0
   \   000078   E8           MOV       A,R0
   \   000079   7001         JNZ       ??bindUpdateAddr_0
   \   00007B   09           INC       R1
   \                     ??bindUpdateAddr_0:
   \   00007C   12....       LCALL     ?Subroutine8 & 0xFFFF
   \                     ??CrossCallReturnLabel_4:
   \   00007F   40C3         JC        ??bindUpdateAddr_1
    864          }
   \   000081   7409         MOV       A,#0x9
   \   000083   02....       LJMP      ?Subroutine5 & 0xFFFF

   \                                 In  segment BANKED_CODE, align 1, keep-with-next
   \                     ?Subroutine22:
   \   000000   EA           MOV       A,R2
   \   000001   F0           MOVX      @DPTR,A
   \   000002   A3           INC       DPTR
   \   000003   EB           MOV       A,R3
   \   000004   F0           MOVX      @DPTR,A
   \   000005                ; Setup parameters for call to function bindingAddrMgsHelperFind
   \   000005                ; Setup parameters for call to function AddrMgrEntryGet
   \   000005                ; Setup parameters for call to function AddrMgrEntryGet
   \   000005   AA..         MOV       R2,?XSP + 0
   \   000007   AB..         MOV       R3,?XSP + 1
   \   000009   22           RET
    865          
    866          /*********************************************************************
    867           * @fn      bindingAddrMgsHelperFind
    868           *
    869           * @brief   Turns an zAddrType_t to an Addr Manager index
    870           *
    871           * @param   addr - zAddrType_t
    872           *
    873           * @return  INVALID_NODE_ADDR if not found, otherwise an index
    874           */

   \                                 In  segment BANKED_CODE, align 1, keep-with-next
    875          uint16 bindingAddrMgsHelperFind( zAddrType_t *addr )
   \                     bindingAddrMgsHelperFind:
    876          {
   \   000000   C082         PUSH      DPL
   \   000002   C083         PUSH      DPH
   \   000004                ; Saved register size: 2
   \   000004                ; Auto size: 13
   \   000004   74F3         MOV       A,#-0xd
   \   000006   12....       LCALL     ?ALLOC_XSTACK8
    877            AddrMgrEntry_t entry;
    878          
    879            // Resolve addresses with the address manager
    880            entry.user = ADDRMGR_USER_BINDING;
   \   000009   12....       LCALL     ?Subroutine21 & 0xFFFF
    881            if ( addr->addrMode == Addr16Bit )
   \                     ??CrossCallReturnLabel_23:
   \   00000C   7012         JNZ       ??bindingAddrMgsHelperFind_0
    882            {
    883              entry.nwkAddr = addr->addr.shortAddr;
   \   00000E   8A82         MOV       DPL,R2
   \   000010   8B83         MOV       DPH,R3
   \   000012   12....       LCALL     ?Subroutine26 & 0xFFFF
    884              AddrMgrEntryLookupNwk( &entry );
    885            }
   \                     ??CrossCallReturnLabel_30:
   \   000015   12....       LCALL     ?XSTACK_DISP0_8
   \   000018   12....       LCALL     ?Subroutine24 & 0xFFFF
   \                     ??CrossCallReturnLabel_28:
   \   00001B   12....       LCALL     `??AddrMgrEntryLookupNwk::?relay`; Banked call to: AddrMgrEntryLookupNwk
   \   00001E   8017         SJMP      ??bindingAddrMgsHelperFind_1
    886            else
    887            {
    888              AddrMgrExtAddrSet( entry.extAddr, addr->addr.extAddr );
   \                     ??bindingAddrMgsHelperFind_0:
   \   000020                ; Setup parameters for call to function AddrMgrExtAddrSet
   \   000020   EA           MOV       A,R2
   \   000021   FC           MOV       R4,A
   \   000022   EB           MOV       A,R3
   \   000023   FD           MOV       R5,A
   \   000024   7403         MOV       A,#0x3
   \   000026   12....       LCALL     ?XSTACK_DISP0_8
   \   000029   AA82         MOV       R2,DPL
   \   00002B   AB83         MOV       R3,DPH
   \   00002D   12....       LCALL     `??AddrMgrExtAddrSet::?relay`; Banked call to: AddrMgrExtAddrSet
    889              AddrMgrEntryLookupExt( &entry );
   \   000030                ; Setup parameters for call to function AddrMgrEntryLookupExt
   \   000030   AA..         MOV       R2,?XSP + 0
   \   000032   AB..         MOV       R3,?XSP + 1
   \   000034   12....       LCALL     `??AddrMgrEntryLookupExt::?relay`; Banked call to: AddrMgrEntryLookupExt
    890            }
    891          
    892            return ( entry.index );
   \                     ??bindingAddrMgsHelperFind_1:
   \   000037   80..         SJMP      ?Subroutine1
    893          }

   \                                 In  segment BANKED_CODE, align 1, keep-with-next
   \                     ?Subroutine1:
   \   000000   740B         MOV       A,#0xb
   \   000002                REQUIRE ??Subroutine45_0
   \   000002                ; // Fall through to label ??Subroutine45_0

   \                                 In  segment BANKED_CODE, align 1, keep-with-next
   \                     ??Subroutine45_0:
   \   000000   12....       LCALL     ?XSTACK_DISP0_8
   \   000003   E0           MOVX      A,@DPTR
   \   000004   FA           MOV       R2,A
   \   000005   A3           INC       DPTR
   \   000006   E0           MOVX      A,@DPTR
   \   000007   FB           MOV       R3,A
   \   000008   740D         MOV       A,#0xd
   \   00000A   12....       LCALL     ?DEALLOC_XSTACK8
   \   00000D                REQUIRE ??Subroutine46_0
   \   00000D                ; // Fall through to label ??Subroutine46_0

   \                                 In  segment BANKED_CODE, align 1, keep-with-next
   \                     ?Subroutine26:
   \   000000   E0           MOVX      A,@DPTR
   \   000001   F8           MOV       R0,A
   \   000002   A3           INC       DPTR
   \   000003   E0           MOVX      A,@DPTR
   \   000004   F9           MOV       R1,A
   \   000005   7401         MOV       A,#0x1
   \   000007   22           RET

   \                                 In  segment BANKED_CODE, align 1, keep-with-next
   \                     ?Subroutine24:
   \   000000   E8           MOV       A,R0
   \   000001   F0           MOVX      @DPTR,A
   \   000002   A3           INC       DPTR
   \   000003   E9           MOV       A,R1
   \   000004   F0           MOVX      @DPTR,A
   \   000005                ; Setup parameters for call to function AddrMgrEntryLookupNwk
   \   000005                ; Setup parameters for call to function AddrMgrEntryLookupNwk
   \   000005   AA..         MOV       R2,?XSP + 0
   \   000007   AB..         MOV       R3,?XSP + 1
   \   000009   22           RET

   \                                 In  segment BANKED_CODE, align 1, keep-with-next
   \                     ?Subroutine21:
   \   000000   85..82       MOV       DPL,?XSP + 0
   \   000003   85..83       MOV       DPH,?XSP + 1
   \   000006   7404         MOV       A,#0x4
   \   000008   F0           MOVX      @DPTR,A
   \   000009   8A82         MOV       DPL,R2
   \   00000B   8B83         MOV       DPH,R3
   \   00000D   A3           INC       DPTR
   \   00000E   A3           INC       DPTR
   \   00000F   A3           INC       DPTR
   \   000010   A3           INC       DPTR
   \   000011   A3           INC       DPTR
   \   000012   A3           INC       DPTR
   \   000013   A3           INC       DPTR
   \   000014   A3           INC       DPTR
   \   000015   E0           MOVX      A,@DPTR
   \   000016   6402         XRL       A,#0x2
   \   000018   22           RET
    894          
    895          /*********************************************************************
    896           * @fn      bindingAddrMgsHelperConvert
    897           *
    898           * @brief   Convert an index into an zAddrType_t
    899           *
    900           * @param   idx -
    901           * @param   addr - zAddrType_t
    902           *
    903           * @return  TRUE if found, FALSE if not
    904           */

   \                                 In  segment BANKED_CODE, align 1, keep-with-next
    905          uint8 bindingAddrMgsHelperConvert( uint16 idx, zAddrType_t *addr )
   \                     bindingAddrMgsHelperConvert:
    906          {
   \   000000                REQUIRE ?V0
   \   000000   74F7         MOV       A,#-0x9
   \   000002   12....       LCALL     ?BANKED_ENTER_XDATA
   \   000005                ; Saved register size: 9
   \   000005                ; Auto size: 13
   \   000005   74F3         MOV       A,#-0xd
   \   000007   12....       LCALL     ?ALLOC_XSTACK8
   \   00000A   EC           MOV       A,R4
   \   00000B   FE           MOV       R6,A
   \   00000C   ED           MOV       A,R5
   \   00000D   FF           MOV       R7,A
    907            AddrMgrEntry_t entry;
    908            uint8 stat;
    909          
    910            // Resolve addresses with the address manager
    911            entry.user = ADDRMGR_USER_BINDING;
   \   00000E   85..82       MOV       DPL,?XSP + 0
   \   000011   85..83       MOV       DPH,?XSP + 1
   \   000014   7404         MOV       A,#0x4
   \   000016   F0           MOVX      @DPTR,A
    912            entry.index = idx;
   \   000017   740B         MOV       A,#0xb
   \   000019   12....       LCALL     ?XSTACK_DISP0_8
   \   00001C   12....       LCALL     ?Subroutine22 & 0xFFFF
    913            stat = AddrMgrEntryGet( &entry );
   \                     ??CrossCallReturnLabel_26:
   \   00001F   12....       LCALL     `??AddrMgrEntryGet::?relay`; Banked call to: AddrMgrEntryGet
   \   000022   E9           MOV       A,R1
   \   000023   F5..         MOV       ?V0,A
    914            if ( stat )
   \   000025   601D         JZ        ??bindingAddrMgsHelperConvert_0
    915            {
    916              addr->addrMode = Addr64Bit;
   \   000027   8E82         MOV       DPL,R6
   \   000029   8F83         MOV       DPH,R7
   \   00002B   A3           INC       DPTR
   \   00002C   A3           INC       DPTR
   \   00002D   A3           INC       DPTR
   \   00002E   A3           INC       DPTR
   \   00002F   A3           INC       DPTR
   \   000030   A3           INC       DPTR
   \   000031   A3           INC       DPTR
   \   000032   A3           INC       DPTR
   \   000033   7403         MOV       A,#0x3
   \   000035   F0           MOVX      @DPTR,A
    917              osal_cpyExtAddr( addr->addr.extAddr, entry.extAddr );
   \   000036                ; Setup parameters for call to function sAddrExtCpy
   \   000036   12....       LCALL     ?XSTACK_DISP0_8
   \   000039   AC82         MOV       R4,DPL
   \   00003B   AD83         MOV       R5,DPH
   \   00003D   EE           MOV       A,R6
   \   00003E   FA           MOV       R2,A
   \   00003F   EF           MOV       A,R7
   \   000040   FB           MOV       R3,A
   \   000041   12....       LCALL     `??sAddrExtCpy::?relay`; Banked call to: sAddrExtCpy
    918            }
    919          
    920            return ( stat );
   \                     ??bindingAddrMgsHelperConvert_0:
   \   000044   A9..         MOV       R1,?V0
   \   000046   740D         MOV       A,#0xd
   \   000048   12....       LCALL     ?DEALLOC_XSTACK8
   \   00004B   02....       LJMP      ?Subroutine2 & 0xFFFF
    921          }
    922          
    923          /*********************************************************************
    924           * @fn      bindingAddrMgsHelperConvertShort
    925           *
    926           * @brief   Convert an index into a short address
    927           *
    928           * @param   idx -
    929           *
    930           * @return  INVALID_NODE_ADDR if not available, otherwise the short address
    931           */

   \                                 In  segment BANKED_CODE, align 1, keep-with-next
    932          uint16 bindingAddrMgsHelperConvertShort( uint16 idx )
   \                     bindingAddrMgsHelperConvertShort:
    933          {
   \   000000   C082         PUSH      DPL
   \   000002   C083         PUSH      DPH
   \   000004                ; Saved register size: 2
   \   000004                ; Auto size: 13
   \   000004   74F3         MOV       A,#-0xd
   \   000006   12....       LCALL     ?ALLOC_XSTACK8
    934            AddrMgrEntry_t entry;
    935          
    936            // Resolve addresses with the address manager
    937            entry.user = ADDRMGR_USER_BINDING;
   \   000009   85..82       MOV       DPL,?XSP + 0
   \   00000C   85..83       MOV       DPH,?XSP + 1
   \   00000F   7404         MOV       A,#0x4
   \   000011   F0           MOVX      @DPTR,A
    938            entry.index = idx;
   \   000012   740B         MOV       A,#0xb
   \   000014   12....       LCALL     ?XSTACK_DISP0_8
   \   000017   12....       LCALL     ?Subroutine22 & 0xFFFF
    939            AddrMgrEntryGet( &entry );
   \                     ??CrossCallReturnLabel_27:
   \   00001A   12....       LCALL     `??AddrMgrEntryGet::?relay`; Banked call to: AddrMgrEntryGet
    940          
    941            return ( entry.nwkAddr );
   \   00001D   7401         MOV       A,#0x1
   \   00001F   80..         SJMP      ??Subroutine45_0
    942          }
    943          
    944          /*********************************************************************
    945           * @fn      bindAddrMgrLocalLoad
    946           *
    947           * @brief   Load local(self and parent) address information into
    948           *          Address Manager
    949           *
    950           * @param   none
    951           *
    952           * @return  none
    953           */

   \                                 In  segment BANKED_CODE, align 1, keep-with-next
    954          void bindAddrMgrLocalLoad( void )
   \                     bindAddrMgrLocalLoad:
    955          {
   \   000000                REQUIRE ?V0
   \   000000                REQUIRE ?V1
   \   000000   74F6         MOV       A,#-0xa
   \   000002   12....       LCALL     ?BANKED_ENTER_XDATA
   \   000005                ; Saved register size: 10
   \   000005                ; Auto size: 13
   \   000005   74F3         MOV       A,#-0xd
   \   000007   12....       LCALL     ?ALLOC_XSTACK8
    956            AddrMgrEntry_t entry;
    957            uint16         parent;
    958          
    959            // add "local"(self and parent) address informtion into the Address
    960            // Manager
    961            if ( bindAddrMgrLocalLoaded == FALSE )
   \   00000A   90....       MOV       DPTR,#bindAddrMgrLocalLoaded
   \   00000D   E0           MOVX      A,@DPTR
   \   00000E   707B         JNZ       ??bindAddrMgrLocalLoad_0
    962            {
    963              // add the device's address information
    964              entry.user    = ADDRMGR_USER_BINDING;
   \   000010   85..82       MOV       DPL,?XSP + 0
   \   000013   85..83       MOV       DPH,?XSP + 1
   \   000016   7404         MOV       A,#0x4
   \   000018   F0           MOVX      @DPTR,A
    965              entry.nwkAddr = _NIB.nwkDevAddress;
   \   000019   90....       MOV       DPTR,#_NIB + 20
   \   00001C   12....       LCALL     ?Subroutine26 & 0xFFFF
   \                     ??CrossCallReturnLabel_31:
   \   00001F   12....       LCALL     ?XSTACK_DISP0_8
   \   000022   E8           MOV       A,R0
   \   000023   F0           MOVX      @DPTR,A
   \   000024   A3           INC       DPTR
   \   000025   E9           MOV       A,R1
   \   000026   F0           MOVX      @DPTR,A
    966              AddrMgrExtAddrSet( entry.extAddr, NLME_GetExtAddr() );
   \   000027                ; Setup parameters for call to function NLME_GetExtAddr
   \   000027   12....       LCALL     `??NLME_GetExtAddr::?relay`; Banked call to: NLME_GetExtAddr
   \   00002A   8A..         MOV       ?V0,R2
   \   00002C   8B..         MOV       ?V1,R3
   \   00002E   AC..         MOV       R4,?V0
   \   000030   AD..         MOV       R5,?V1
   \   000032                ; Setup parameters for call to function AddrMgrExtAddrSet
   \   000032   7403         MOV       A,#0x3
   \   000034   12....       LCALL     ?XSTACK_DISP0_8
   \   000037   AA82         MOV       R2,DPL
   \   000039   AB83         MOV       R3,DPH
   \   00003B   12....       LCALL     `??AddrMgrExtAddrSet::?relay`; Banked call to: AddrMgrExtAddrSet
    967              AddrMgrEntryUpdate( &entry );
   \   00003E                ; Setup parameters for call to function AddrMgrEntryUpdate
   \   00003E   AA..         MOV       R2,?XSP + 0
   \   000040   AB..         MOV       R3,?XSP + 1
   \   000042   12....       LCALL     `??AddrMgrEntryUpdate::?relay`; Banked call to: AddrMgrEntryUpdate
    968          
    969              // make sure parent address is valid
    970              parent = NLME_GetCoordShortAddr();
   \   000045                ; Setup parameters for call to function NLME_GetCoordShortAddr
   \   000045   12....       LCALL     `??NLME_GetCoordShortAddr::?relay`; Banked call to: NLME_GetCoordShortAddr
   \   000048   8A..         MOV       ?V0,R2
   \   00004A   8B..         MOV       ?V1,R3
   \   00004C   A8..         MOV       R0,?V0
   \   00004E   A9..         MOV       R1,?V1
    971              if ( ( parent != entry.nwkAddr     ) &&
    972                   ( parent != INVALID_NODE_ADDR )    )
   \   000050   7401         MOV       A,#0x1
   \   000052   12....       LCALL     ?XSTACK_DISP0_8
   \   000055   E0           MOVX      A,@DPTR
   \   000056   68           XRL       A,R0
   \   000057   7003         JNZ       ??bindAddrMgrLocalLoad_1
   \   000059   A3           INC       DPTR
   \   00005A   E0           MOVX      A,@DPTR
   \   00005B   69           XRL       A,R1
   \                     ??bindAddrMgrLocalLoad_1:
   \   00005C   6027         JZ        ??bindAddrMgrLocalLoad_2
   \   00005E   74FE         MOV       A,#-0x2
   \   000060   68           XRL       A,R0
   \   000061   7003         JNZ       ??bindAddrMgrLocalLoad_3
   \   000063   74FF         MOV       A,#-0x1
   \   000065   69           XRL       A,R1
   \                     ??bindAddrMgrLocalLoad_3:
   \   000066   601D         JZ        ??bindAddrMgrLocalLoad_2
    973              {
    974                // add the parent's address information
    975                entry.nwkAddr = parent;
   \   000068   7401         MOV       A,#0x1
   \   00006A   12....       LCALL     ?XSTACK_DISP0_8
   \   00006D   E8           MOV       A,R0
   \   00006E   F0           MOVX      @DPTR,A
   \   00006F   A3           INC       DPTR
   \   000070   E9           MOV       A,R1
   \   000071   F0           MOVX      @DPTR,A
    976                NLME_GetCoordExtAddr( entry.extAddr );
   \   000072                ; Setup parameters for call to function NLME_GetCoordExtAddr
   \   000072   7403         MOV       A,#0x3
   \   000074   12....       LCALL     ?XSTACK_DISP0_8
   \   000077   AA82         MOV       R2,DPL
   \   000079   AB83         MOV       R3,DPH
   \   00007B   12....       LCALL     `??NLME_GetCoordExtAddr::?relay`; Banked call to: NLME_GetCoordExtAddr
    977                AddrMgrEntryUpdate( &entry );
   \   00007E                ; Setup parameters for call to function AddrMgrEntryUpdate
   \   00007E   AA..         MOV       R2,?XSP + 0
   \   000080   AB..         MOV       R3,?XSP + 1
   \   000082   12....       LCALL     `??AddrMgrEntryUpdate::?relay`; Banked call to: AddrMgrEntryUpdate
    978              }
    979          
    980              bindAddrMgrLocalLoaded = TRUE;
   \                     ??bindAddrMgrLocalLoad_2:
   \   000085   90....       MOV       DPTR,#bindAddrMgrLocalLoaded
   \   000088   7401         MOV       A,#0x1
   \   00008A   F0           MOVX      @DPTR,A
    981            }
    982          }
   \                     ??bindAddrMgrLocalLoad_0:
   \   00008B   740D         MOV       A,#0xd
   \   00008D   02....       LJMP      ?Subroutine0 & 0xFFFF
    983          
    984          /*********************************************************************
    985           * @fn      bindAddrIndexGet
    986           *
    987           * @brief   Get bind address index.
    988           *
    989           * @param   addr - <zAddrType_t>
    990           *
    991           * @return  (uint16) address index
    992           */

   \                                 In  segment BANKED_CODE, align 1, keep-with-next
    993          uint16 bindAddrIndexGet( zAddrType_t* addr )
   \                     bindAddrIndexGet:
    994          {
   \   000000   C082         PUSH      DPL
   \   000002   C083         PUSH      DPH
   \   000004                ; Saved register size: 2
   \   000004                ; Auto size: 13
   \   000004   74F3         MOV       A,#-0xd
   \   000006   12....       LCALL     ?ALLOC_XSTACK8
    995            AddrMgrEntry_t entry;
    996            uint8          update;
    997          
    998            update = FALSE;
    999          
   1000            // sync binding addresses with the address manager
   1001            entry.user = ADDRMGR_USER_BINDING;
   \   000009   12....       LCALL     ?Subroutine21 & 0xFFFF
   1002          
   1003            if ( addr->addrMode == Addr16Bit )
   \                     ??CrossCallReturnLabel_24:
   \   00000C   8A82         MOV       DPL,R2
   \   00000E   8B83         MOV       DPH,R3
   \   000010   7011         JNZ       ??bindAddrIndexGet_0
   1004            {
   1005              entry.nwkAddr = addr->addr.shortAddr;
   \   000012   12....       LCALL     ?Subroutine26 & 0xFFFF
   1006          
   1007              if ( AddrMgrEntryLookupNwk( &entry ) == FALSE )
   1008              {
   1009                update = TRUE;
   1010              }
   1011            }
   \                     ??CrossCallReturnLabel_32:
   \   000015   12....       LCALL     ?XSTACK_DISP0_8
   \   000018   12....       LCALL     ?Subroutine24 & 0xFFFF
   \                     ??CrossCallReturnLabel_29:
   \   00001B   12....       LCALL     `??AddrMgrEntryLookupNwk::?relay`; Banked call to: AddrMgrEntryLookupNwk
   \   00001E   E9           MOV       A,R1
   \   00001F   7060         JNZ       ??bindAddrIndexGet_1
   \   000021   8027         SJMP      ??bindAddrIndexGet_2
   1012            else if ( addr->addrMode == Addr64Bit )
   \                     ??bindAddrIndexGet_0:
   \   000023   A3           INC       DPTR
   \   000024   A3           INC       DPTR
   \   000025   A3           INC       DPTR
   \   000026   A3           INC       DPTR
   \   000027   A3           INC       DPTR
   \   000028   A3           INC       DPTR
   \   000029   A3           INC       DPTR
   \   00002A   A3           INC       DPTR
   \   00002B   E0           MOVX      A,@DPTR
   \   00002C   6403         XRL       A,#0x3
   \   00002E   7023         JNZ       ??bindAddrIndexGet_3
   1013            {
   1014              AddrMgrExtAddrSet( entry.extAddr, addr->addr.extAddr );
   \   000030                ; Setup parameters for call to function AddrMgrExtAddrSet
   \   000030   EA           MOV       A,R2
   \   000031   FC           MOV       R4,A
   \   000032   EB           MOV       A,R3
   \   000033   FD           MOV       R5,A
   \   000034   7403         MOV       A,#0x3
   \   000036   12....       LCALL     ?XSTACK_DISP0_8
   \   000039   AA82         MOV       R2,DPL
   \   00003B   AB83         MOV       R3,DPH
   \   00003D   12....       LCALL     `??AddrMgrExtAddrSet::?relay`; Banked call to: AddrMgrExtAddrSet
   1015          
   1016              if ( AddrMgrEntryLookupExt( &entry ) == FALSE )
   \   000040                ; Setup parameters for call to function AddrMgrEntryLookupExt
   \   000040   AA..         MOV       R2,?XSP + 0
   \   000042   AB..         MOV       R3,?XSP + 1
   \   000044   12....       LCALL     `??AddrMgrEntryLookupExt::?relay`; Banked call to: AddrMgrEntryLookupExt
   \   000047   E9           MOV       A,R1
   \   000048   7037         JNZ       ??bindAddrIndexGet_1
   1017              {
   1018                update = TRUE;
   1019              }
   1020            }
   1021            else if ( addr->addrMode == AddrGroup )
   1022            {
   1023              entry.index = addr->addr.shortAddr;
   1024            }
   1025            else
   1026            {
   1027              entry.index = INVALID_NODE_ADDR;
   1028            }
   1029          
   1030            if ( update )
   1031            {
   1032              AddrMgrEntryUpdate( &entry );
   \                     ??bindAddrIndexGet_2:
   \   00004A                ; Setup parameters for call to function AddrMgrEntryUpdate
   \   00004A   AA..         MOV       R2,?XSP + 0
   \   00004C   AB..         MOV       R3,?XSP + 1
   \   00004E   12....       LCALL     `??AddrMgrEntryUpdate::?relay`; Banked call to: AddrMgrEntryUpdate
   \   000051   802E         SJMP      ??bindAddrIndexGet_1
   1033            }
   \                     ??bindAddrIndexGet_3:
   \   000053   8A82         MOV       DPL,R2
   \   000055   8B83         MOV       DPH,R3
   \   000057   A3           INC       DPTR
   \   000058   A3           INC       DPTR
   \   000059   A3           INC       DPTR
   \   00005A   A3           INC       DPTR
   \   00005B   A3           INC       DPTR
   \   00005C   A3           INC       DPTR
   \   00005D   A3           INC       DPTR
   \   00005E   A3           INC       DPTR
   \   00005F   E0           MOVX      A,@DPTR
   \   000060   6401         XRL       A,#0x1
   \   000062   7012         JNZ       ??bindAddrIndexGet_4
   \   000064   8A82         MOV       DPL,R2
   \   000066   8B83         MOV       DPH,R3
   \   000068   12....       LCALL     ??Subroutine36_0 & 0xFFFF
   \                     ??CrossCallReturnLabel_47:
   \   00006B   740B         MOV       A,#0xb
   \   00006D   12....       LCALL     ?XSTACK_DISP0_8
   \   000070   E8           MOV       A,R0
   \   000071   F0           MOVX      @DPTR,A
   \   000072   A3           INC       DPTR
   \   000073   E9           MOV       A,R1
   \   000074   800A         SJMP      ??bindAddrIndexGet_5
   \                     ??bindAddrIndexGet_4:
   \   000076   740B         MOV       A,#0xb
   \   000078   12....       LCALL     ?XSTACK_DISP0_8
   \   00007B   74FE         MOV       A,#-0x2
   \   00007D   F0           MOVX      @DPTR,A
   \   00007E   A3           INC       DPTR
   \   00007F   04           INC       A
   \                     ??bindAddrIndexGet_5:
   \   000080   F0           MOVX      @DPTR,A
   1034          
   1035            return entry.index;
   \                     ??bindAddrIndexGet_1:
   \   000081   02....       LJMP      ?Subroutine1 & 0xFFFF
   1036          }
   1037          
   1038          /*********************************************************************
   1039           * @fn      GetBindingTableEntry
   1040           *
   1041           * @brief   Get a pointer to the Nth valid binding table entry.
   1042           *
   1043           * @param   Nth valid entry being requested.
   1044           *
   1045           * @return  The Nth valid binding table entry.
   1046           */

   \                                 In  segment BANKED_CODE, align 1, keep-with-next
   1047          BindingEntry_t *GetBindingTableEntry( uint16 Nth )
   \                     GetBindingTableEntry:
   1048          {
   \   000000                REQUIRE ?V0
   \   000000                REQUIRE ?V1
   \   000000                REQUIRE ?V2
   \   000000   74F5         MOV       A,#-0xb
   \   000002   12....       LCALL     ?BANKED_ENTER_XDATA
   \   000005                ; Saved register size: 11
   \   000005                ; Auto size: 0
   \   000005   EA           MOV       A,R2
   \   000006   FC           MOV       R4,A
   \   000007   EB           MOV       A,R3
   \   000008   FD           MOV       R5,A
   1049            BindingEntry_t *rtrn = NULL;
   \   000009   7A00         MOV       R2,#0x0
   \   00000B   7B00         MOV       R3,#0x0
   1050          
   1051          #if defined ( REFLECTOR )
   1052            uint16 idx, cnt = 0;
   \   00000D   8A..         MOV       ?V0,R2
   \   00000F   8A..         MOV       ?V1,R2
   1053          
   1054            for ( idx = 0; idx < gNWK_MAX_BINDING_ENTRIES; idx++ )
   \   000011   7800         MOV       R0,#0x0
   \   000013   7900         MOV       R1,#0x0
   \   000015   8005         SJMP      ??GetBindingTableEntry_0
   \                     ??GetBindingTableEntry_1:
   \   000017   08           INC       R0
   \   000018   E8           MOV       A,R0
   \   000019   7001         JNZ       ??GetBindingTableEntry_0
   \   00001B   09           INC       R1
   \                     ??GetBindingTableEntry_0:
   \   00001C   90....       MOV       DPTR,#gNWK_MAX_BINDING_ENTRIES
   \   00001F   E4           CLR       A
   \   000020   93           MOVC      A,@A+DPTR
   \   000021   FE           MOV       R6,A
   \   000022   7401         MOV       A,#0x1
   \   000024   93           MOVC      A,@A+DPTR
   \   000025   FF           MOV       R7,A
   \   000026   C3           CLR       C
   \   000027   E8           MOV       A,R0
   \   000028   9E           SUBB      A,R6
   \   000029   E9           MOV       A,R1
   \   00002A   9F           SUBB      A,R7
   \   00002B   503B         JNC       ??CrossCallReturnLabel_71
   1055            {
   1056              if ( BindingTable[idx].srcEP != NV_BIND_EMPTY )
   \   00002D   E8           MOV       A,R0
   \   00002E   FE           MOV       R6,A
   \   00002F   E9           MOV       A,R1
   \   000030   FF           MOV       R7,A
   \   000031   EE           MOV       A,R6
   \   000032   75F00E       MOV       B,#0xe
   \   000035   A4           MUL       AB
   \   000036   FE           MOV       R6,A
   \   000037   85F0..       MOV       ?V2,B
   \   00003A   75F00E       MOV       B,#0xe
   \   00003D   EF           MOV       A,R7
   \   00003E   A4           MUL       AB
   \   00003F   25..         ADD       A,?V2
   \   000041   FF           MOV       R7,A
   \   000042   74..         MOV       A,#BindingTable & 0xff
   \   000044   2E           ADD       A,R6
   \   000045   F582         MOV       DPL,A
   \   000047   74..         MOV       A,#(BindingTable >> 8) & 0xff
   \   000049   3F           ADDC      A,R7
   \   00004A   F583         MOV       DPH,A
   \   00004C   E0           MOVX      A,@DPTR
   \   00004D   F4           CPL       A
   \   00004E   60C7         JZ        ??GetBindingTableEntry_1
   1057              {
   1058                if ( cnt++ == Nth )
   \   000050   AE..         MOV       R6,?V0
   \   000052   AF..         MOV       R7,?V1
   \   000054   EE           MOV       A,R6
   \   000055   2401         ADD       A,#0x1
   \   000057   F5..         MOV       ?V0,A
   \   000059   E4           CLR       A
   \   00005A   3F           ADDC      A,R7
   \   00005B   F5..         MOV       ?V1,A
   \   00005D   EC           MOV       A,R4
   \   00005E   6E           XRL       A,R6
   \   00005F   7002         JNZ       ??GetBindingTableEntry_2
   \   000061   ED           MOV       A,R5
   \   000062   6F           XRL       A,R7
   \                     ??GetBindingTableEntry_2:
   \   000063   70B2         JNZ       ??GetBindingTableEntry_1
   1059                {
   1060                  rtrn = BindingTable+idx;
   \   000065   12....       LCALL     ?Subroutine16 & 0xFFFF
   1061                  break;
   1062                }
   1063              }
   1064            }
   1065          #else
   1066            (void)Nth;
   1067          #endif
   1068          
   1069            return rtrn;
   \                     ??CrossCallReturnLabel_71:
   \   000068   02....       LJMP      ?Subroutine3 & 0xFFFF
   1070          }

   \                                 In  segment BANK_RELAYS, align 1
   \                     `??InitBindingTable::?relay`:
   \   000000   12....       LCALL   ?BDISPATCH
   \   000003   ......       DC24    InitBindingTable

   \                                 In  segment BANK_RELAYS, align 1
   \                     `??bindFindEmpty::?relay`:
   \   000000   12....       LCALL   ?BDISPATCH
   \   000003   ......       DC24    bindFindEmpty

   \                                 In  segment BANK_RELAYS, align 1
   \                     `??bindNumOfEntries::?relay`:
   \   000000   12....       LCALL   ?BDISPATCH
   \   000003   ......       DC24    bindNumOfEntries

   \                                 In  segment BANK_RELAYS, align 1
   \                     `??bindCapacity::?relay`:
   \   000000   12....       LCALL   ?BDISPATCH
   \   000003   ......       DC24    bindCapacity

   \                                 In  segment BANK_RELAYS, align 1
   \                     `??bindAddEntry::?relay`:
   \   000000   12....       LCALL   ?BDISPATCH
   \   000003   ......       DC24    bindAddEntry

   \                                 In  segment BANK_RELAYS, align 1
   \                     `??bindRemoveEntry::?relay`:
   \   000000   12....       LCALL   ?BDISPATCH
   \   000003   ......       DC24    bindRemoveEntry

   \                                 In  segment BANK_RELAYS, align 1
   \                     `??bindIsClusterIDinList::?relay`:
   \   000000   12....       LCALL   ?BDISPATCH
   \   000003   ......       DC24    bindIsClusterIDinList

   \                                 In  segment BANK_RELAYS, align 1
   \                     `??bindRemoveClusterIdFromList::?relay`:
   \   000000   12....       LCALL   ?BDISPATCH
   \   000003   ......       DC24    bindRemoveClusterIdFromList

   \                                 In  segment BANK_RELAYS, align 1
   \                     `??bindAddClusterIdToList::?relay`:
   \   000000   12....       LCALL   ?BDISPATCH
   \   000003   ......       DC24    bindAddClusterIdToList

   \                                 In  segment BANK_RELAYS, align 1
   \                     `??bindFindExisting::?relay`:
   \   000000   12....       LCALL   ?BDISPATCH
   \   000003   ......       DC24    bindFindExisting

   \                                 In  segment BANK_RELAYS, align 1
   \                     `??bindRemoveDev::?relay`:
   \   000000   12....       LCALL   ?BDISPATCH
   \   000003   ......       DC24    bindRemoveDev

   \                                 In  segment BANK_RELAYS, align 1
   \                     `??bindRemoveSrcDev::?relay`:
   \   000000   12....       LCALL   ?BDISPATCH
   \   000003   ......       DC24    bindRemoveSrcDev

   \                                 In  segment BANK_RELAYS, align 1
   \                     `??bindNumBoundTo::?relay`:
   \   000000   12....       LCALL   ?BDISPATCH
   \   000003   ......       DC24    bindNumBoundTo

   \                                 In  segment BANK_RELAYS, align 1
   \                     `??bindNumReflections::?relay`:
   \   000000   12....       LCALL   ?BDISPATCH
   \   000003   ......       DC24    bindNumReflections

   \                                 In  segment BANK_RELAYS, align 1
   \                     `??bindFind::?relay`:
   \   000000   12....       LCALL   ?BDISPATCH
   \   000003   ......       DC24    bindFind

   \                                 In  segment BANK_RELAYS, align 1
   \                     `??BindInitNV::?relay`:
   \   000000   12....       LCALL   ?BDISPATCH
   \   000003   ......       DC24    BindInitNV

   \                                 In  segment BANK_RELAYS, align 1
   \                     `??BindSetDefaultNV::?relay`:
   \   000000   12....       LCALL   ?BDISPATCH
   \   000003   ......       DC24    BindSetDefaultNV

   \                                 In  segment BANK_RELAYS, align 1
   \                     `??BindRestoreFromNV::?relay`:
   \   000000   12....       LCALL   ?BDISPATCH
   \   000003   ......       DC24    BindRestoreFromNV

   \                                 In  segment BANK_RELAYS, align 1
   \                     `??BindWriteNV::?relay`:
   \   000000   12....       LCALL   ?BDISPATCH
   \   000003   ......       DC24    BindWriteNV

   \                                 In  segment BANK_RELAYS, align 1
   \                     `??bindUpdateAddr::?relay`:
   \   000000   12....       LCALL   ?BDISPATCH
   \   000003   ......       DC24    bindUpdateAddr

   \                                 In  segment BANK_RELAYS, align 1
   \                     `??bindingAddrMgsHelperFind::?relay`:
   \   000000   12....       LCALL   ?BDISPATCH
   \   000003   ......       DC24    bindingAddrMgsHelperFind

   \                                 In  segment BANK_RELAYS, align 1
   \                     `??bindingAddrMgsHelperConvert::?relay`:
   \   000000   12....       LCALL   ?BDISPATCH
   \   000003   ......       DC24    bindingAddrMgsHelperConvert

   \                                 In  segment BANK_RELAYS, align 1
   \                     `??bindingAddrMgsHelperConvertShort::?relay`:
   \   000000   12....       LCALL   ?BDISPATCH
   \   000003   ......       DC24    bindingAddrMgsHelperConvertShort

   \                                 In  segment BANK_RELAYS, align 1
   \                     `??bindAddrMgrLocalLoad::?relay`:
   \   000000   12....       LCALL   ?BDISPATCH
   \   000003   ......       DC24    bindAddrMgrLocalLoad

   \                                 In  segment BANK_RELAYS, align 1
   \                     `??bindAddrIndexGet::?relay`:
   \   000000   12....       LCALL   ?BDISPATCH
   \   000003   ......       DC24    bindAddrIndexGet

   \                                 In  segment BANK_RELAYS, align 1
   \                     `??GetBindingTableEntry::?relay`:
   \   000000   12....       LCALL   ?BDISPATCH
   \   000003   ......       DC24    GetBindingTableEntry
   1071          
   1072          /*********************************************************************
   1073          *********************************************************************/

   Maximum stack usage in bytes:

   ISTACK XSTACK Function
   ------ ------ --------
      2     12   BindInitNV
        0     10   -> BindSetDefaultNV
        0     12   -> osal_nv_item_init
      0     18   BindRestoreFromNV
        0     18   -> osal_nv_read
      0     26   BindSetDefaultNV
        0     16   -> osal_nv_write
      0     34   BindWriteNV
        0     33   -> osal_memcpy
        0     34   -> osal_nv_write
      0     11   GetBindingTableEntry
      0     10   InitBindingTable
        0     10   -> osal_memset
      0     27   bindAddClusterIdToList
      1     23   bindAddEntry
        0     18   -> bindAddClusterIdToList
        0     18   -> bindAddrIndexGet
        0     18   -> bindAddrMgrLocalLoad
        0     18   -> bindFindEmpty
        0     18   -> bindIsClusterIDinList
        0     21   -> osal_memcpy
      2     31   bindAddrIndexGet
        2     13   -> AddrMgrEntryLookupExt
        2     13   -> AddrMgrEntryLookupNwk
        2     13   -> AddrMgrEntryUpdate
        2     13   -> AddrMgrExtAddrSet
      0     41   bindAddrMgrLocalLoad
        0     23   -> AddrMgrEntryUpdate
        0     23   -> AddrMgrExtAddrSet
        0     23   -> NLME_GetCoordExtAddr
        0     23   -> NLME_GetCoordShortAddr
        0     23   -> NLME_GetExtAddr
      0     11   bindCapacity
      0     15   bindFind
        0     15   -> bindIsClusterIDinList
      2     18   bindFindEmpty
      0     12   bindFindExisting
        0     12   -> bindingAddrMgsHelperFind
      0     27   bindIsClusterIDinList
      0     13   bindNumBoundTo
        0     13   -> bindingAddrMgsHelperFind
      0      9   bindNumOfEntries
      0     13   bindNumReflections
        0     13   -> bindIsClusterIDinList
      0     11   bindRemoveClusterIdFromList
      0     14   bindRemoveDev
        0     14   -> bindRemoveEntry
        0     14   -> bindingAddrMgsHelperFind
      2     14   bindRemoveEntry
        2      0   -> osal_memset
      0      9   bindRemoveSrcDev
        0      9   -> bindRemoveEntry
      0     21   bindUpdateAddr
        0     21   -> bindingAddrMgsHelperFind
      0     22   bindingAddrMgsHelperConvert
        0     22   -> AddrMgrEntryGet
        0     22   -> sAddrExtCpy
      2     13   bindingAddrMgsHelperConvertShort
        2     13   -> AddrMgrEntryGet
      2     34   bindingAddrMgsHelperFind
        2     13   -> AddrMgrEntryLookupExt
        2     13   -> AddrMgrEntryLookupNwk
        2     13   -> AddrMgrExtAddrSet


   Segment part sizes:

   Bytes  Function/Label
   -----  --------------
       5  ??Subroutine34_0
       6  ??Subroutine35_0
       6  ??Subroutine36_0
       8  ??Subroutine37_0
       8  ??Subroutine38_0
       5  ??Subroutine39_0
      12  ??Subroutine40_0
      16  ??Subroutine41_0
      12  ??Subroutine42_0
       8  ??Subroutine43_0
       5  ??Subroutine44_0
      13  ??Subroutine45_0
       7  ??Subroutine46_0
       3  ?Subroutine0
       2  ?Subroutine1
       9  ?Subroutine10
      20  ?Subroutine11
       3  ?Subroutine12
      19  ?Subroutine13
      11  ?Subroutine14
       3  ?Subroutine15
       8  ?Subroutine16
      31  ?Subroutine17
       4  ?Subroutine18
       7  ?Subroutine19
       5  ?Subroutine2
      14  ?Subroutine20
      25  ?Subroutine21
      10  ?Subroutine22
       2  ?Subroutine23
      10  ?Subroutine24
      20  ?Subroutine25
       8  ?Subroutine26
       6  ?Subroutine27
       5  ?Subroutine28
      26  ?Subroutine29
       5  ?Subroutine3
      26  ?Subroutine30
      15  ?Subroutine31
       3  ?Subroutine32
      10  ?Subroutine33
       5  ?Subroutine4
       3  ?Subroutine5
       5  ?Subroutine6
       5  ?Subroutine7
      16  ?Subroutine8
      25  ?Subroutine9
      66  BindInitNV
       6  BindInitNV::?relay
     162  BindRestoreFromNV
       6  BindRestoreFromNV::?relay
      65  BindSetDefaultNV
       6  BindSetDefaultNV::?relay
     207  BindWriteNV
       6  BindWriteNV::?relay
     107  GetBindingTableEntry
       6  GetBindingTableEntry::?relay
     118  InitBindingTable
       6  InitBindingTable::?relay
      68  bindAddClusterIdToList
       6  bindAddClusterIdToList::?relay
     403  bindAddEntry
       6  bindAddEntry::?relay
     132  bindAddrIndexGet
       6  bindAddrIndexGet::?relay
     144  bindAddrMgrLocalLoad
       6  bindAddrMgrLocalLoad::?relay
       1  bindAddrMgrLocalLoaded
      64  bindCapacity
       6  bindCapacity::?relay
     100  bindFind
       6  bindFind::?relay
      68  bindFindEmpty
       6  bindFindEmpty::?relay
     192  bindFindExisting
       6  bindFindExisting::?relay
      69  bindIsClusterIDinList
       6  bindIsClusterIDinList::?relay
     194  bindNumBoundTo
       6  bindNumBoundTo::?relay
     104  bindNumOfEntries
       6  bindNumOfEntries::?relay
      87  bindNumReflections
       6  bindNumReflections::?relay
     137  bindRemoveClusterIdFromList
       6  bindRemoveClusterIdFromList::?relay
     145  bindRemoveDev
       6  bindRemoveDev::?relay
      17  bindRemoveEntry
       6  bindRemoveEntry::?relay
      65  bindRemoveSrcDev
       6  bindRemoveSrcDev::?relay
     134  bindUpdateAddr
       6  bindUpdateAddr::?relay
      78  bindingAddrMgsHelperConvert
       6  bindingAddrMgsHelperConvert::?relay
      33  bindingAddrMgsHelperConvertShort
       6  bindingAddrMgsHelperConvertShort::?relay
      57  bindingAddrMgsHelperFind
       6  bindingAddrMgsHelperFind::?relay
       2  pBindInitNV
       2  pBindRestoreFromNV
       2  pBindSetDefaultNV
       2  pBindWriteNV
       2  pbindAddEntry
       2  pbindNumOfEntries
       2  pbindRemoveDev

 
 3 496 bytes in segment BANKED_CODE
   156 bytes in segment BANK_RELAYS
    15 bytes in segment XDATA_Z
 
   156 bytes of CODE     memory
 3 496 bytes of HUGECODE memory
    15 bytes of XDATA    memory

Errors: none
Warnings: none
