///////////////////////////////////////////////////////////////////////////////
//
// IAR C/C++ Compiler V10.10.1.4655 for 8051              25/Aug/2024  15:10:39
// Copyright 2004-2017 IAR Systems AB.
// Standalone license - IAR Embedded Workbench for 8051
//
//    Core               =  plain
//    Code model         =  banked
//    Data model         =  large
//    Calling convention =  xdata reentrant
//    Constant location  =  data_rom
//    Dptr setup         =  1,16
//                          
//    Source file        =  
//        C:\Texas Instruments\ZStack-CC2530-2.5.1a\Components\mt\MT_ZDO.c
//    Command line       =  
//        -f C:\user\EWFBC.tmp ("C:\Texas
//        Instruments\ZStack-CC2530-2.5.1a\Components\mt\MT_ZDO.c" -D
//        NWK_AUTO_POLL -D ZTOOL_P1 -D MT_TASK -D MT_SYS_FUNC -D MT_ZDO_FUNC -D
//        LCD_SUPPORTED=DEBUG -lC "C:\Texas
//        Instruments\ZStack-CC2530-2.5.1a\Projects\zstack\Samples\02_fan_wireless\CC2530DB\EndDeviceEB\List"
//        -lA "C:\Texas
//        Instruments\ZStack-CC2530-2.5.1a\Projects\zstack\Samples\02_fan_wireless\CC2530DB\EndDeviceEB\List"
//        --diag_suppress Pe001,Pa010 -o "C:\Texas
//        Instruments\ZStack-CC2530-2.5.1a\Projects\zstack\Samples\02_fan_wireless\CC2530DB\EndDeviceEB\Obj"
//        -e --debug --core=plain --dptr=16,1 --data_model=large
//        --code_model=banked --calling_convention=xdata_reentrant
//        --place_constants=data_rom --nr_virtual_regs 8 -f "C:\Texas
//        Instruments\ZStack-CC2530-2.5.1a\Projects\zstack\Samples\02_fan_wireless\CC2530DB\..\..\..\Tools\CC2530DB\f8wEndev.cfg"
//        (-DCPU32MHZ -DROOT=__near_func -DMAC_CFG_TX_DATA_MAX=3
//        -DMAC_CFG_TX_MAX=6 -DMAC_CFG_RX_MAX=3) -f "C:\Texas
//        Instruments\ZStack-CC2530-2.5.1a\Projects\zstack\Samples\02_fan_wireless\CC2530DB\..\..\..\Tools\CC2530DB\f8wConfig.cfg"
//        (-DZIGBEEPRO -DSECURE=0 -DZG_SECURE_DYNAMIC=0 -DREFLECTOR
//        -DDEFAULT_CHANLIST=0x00000800 -DZDAPP_CONFIG_PAN_ID=0xFFFF
//        -DNWK_START_DELAY=100 -DEXTENDED_JOINING_RANDOM_MASK=0x007F
//        -DBEACON_REQUEST_DELAY=100 -DBEACON_REQ_DELAY_MASK=0x00FF
//        -DLINK_STATUS_JITTER_MASK=0x007F -DROUTE_EXPIRY_TIME=30
//        -DAPSC_ACK_WAIT_DURATION_POLLED=3000 -DNWK_INDIRECT_MSG_TIMEOUT=7
//        -DMAX_RREQ_ENTRIES=8 -DAPSC_MAX_FRAME_RETRIES=3
//        -DNWK_MAX_DATA_RETRIES=2 -DMAX_POLL_FAILURE_RETRIES=2 -DMAX_BCAST=9
//        -DAPS_MAX_GROUPS=16 -DMAX_RTG_ENTRIES=40 -DNWK_MAX_BINDING_ENTRIES=4
//        -DMAX_BINDING_CLUSTER_IDS=4 "-DDEFAULT_KEY={0x01, 0x03, 0x05, 0x07,
//        0x09, 0x0B, 0x0D, 0x0F, 0x00, 0x02, 0x04, 0x06, 0x08, 0x0A, 0x0C,
//        0x0D}" -DMAC_MAX_FRAME_SIZE=116 -DZDNWKMGR_MIN_TRANSMISSIONS=20
//        "-DCONST=const __code" -DGENERIC=__generic -DRFD_RCVC_ALWAYS_ON=FALSE
//        -DPOLL_RATE=1000 -DQUEUED_POLL_RATE=100 -DRESPONSE_POLL_RATE=100
//        -DREJOIN_POLL_RATE=440) -I "C:\Texas
//        Instruments\ZStack-CC2530-2.5.1a\Projects\zstack\Samples\02_fan_wireless\CC2530DB\"
//        -I "C:\Texas
//        Instruments\ZStack-CC2530-2.5.1a\Projects\zstack\Samples\02_fan_wireless\CC2530DB\..\Source\"
//        -I "C:\Texas
//        Instruments\ZStack-CC2530-2.5.1a\Projects\zstack\Samples\02_fan_wireless\CC2530DB\..\..\..\ZMain\TI2530DB\"
//        -I "C:\Texas
//        Instruments\ZStack-CC2530-2.5.1a\Projects\zstack\Samples\02_fan_wireless\CC2530DB\..\..\..\..\..\Components\hal\include\"
//        -I "C:\Texas
//        Instruments\ZStack-CC2530-2.5.1a\Projects\zstack\Samples\02_fan_wireless\CC2530DB\..\..\..\..\..\Components\hal\target\CC2530EB\"
//        -I "C:\Texas
//        Instruments\ZStack-CC2530-2.5.1a\Projects\zstack\Samples\02_fan_wireless\CC2530DB\..\..\..\..\..\Components\mac\include\"
//        -I "C:\Texas
//        Instruments\ZStack-CC2530-2.5.1a\Projects\zstack\Samples\02_fan_wireless\CC2530DB\..\..\..\..\..\Components\mac\high_level\"
//        -I "C:\Texas
//        Instruments\ZStack-CC2530-2.5.1a\Projects\zstack\Samples\02_fan_wireless\CC2530DB\..\..\..\..\..\Components\mac\low_level\srf04\"
//        -I "C:\Texas
//        Instruments\ZStack-CC2530-2.5.1a\Projects\zstack\Samples\02_fan_wireless\CC2530DB\..\..\..\..\..\Components\mac\low_level\srf04\single_chip\"
//        -I "C:\Texas
//        Instruments\ZStack-CC2530-2.5.1a\Projects\zstack\Samples\02_fan_wireless\CC2530DB\..\..\..\..\..\Components\mt\"
//        -I "C:\Texas
//        Instruments\ZStack-CC2530-2.5.1a\Projects\zstack\Samples\02_fan_wireless\CC2530DB\..\..\..\..\..\Components\osal\include\"
//        -I "C:\Texas
//        Instruments\ZStack-CC2530-2.5.1a\Projects\zstack\Samples\02_fan_wireless\CC2530DB\..\..\..\..\..\Components\services\saddr\"
//        -I "C:\Texas
//        Instruments\ZStack-CC2530-2.5.1a\Projects\zstack\Samples\02_fan_wireless\CC2530DB\..\..\..\..\..\Components\services\sdata\"
//        -I "C:\Texas
//        Instruments\ZStack-CC2530-2.5.1a\Projects\zstack\Samples\02_fan_wireless\CC2530DB\..\..\..\..\..\Components\stack\af\"
//        -I "C:\Texas
//        Instruments\ZStack-CC2530-2.5.1a\Projects\zstack\Samples\02_fan_wireless\CC2530DB\..\..\..\..\..\Components\stack\nwk\"
//        -I "C:\Texas
//        Instruments\ZStack-CC2530-2.5.1a\Projects\zstack\Samples\02_fan_wireless\CC2530DB\..\..\..\..\..\Components\stack\sapi\"
//        -I "C:\Texas
//        Instruments\ZStack-CC2530-2.5.1a\Projects\zstack\Samples\02_fan_wireless\CC2530DB\..\..\..\..\..\Components\stack\sec\"
//        -I "C:\Texas
//        Instruments\ZStack-CC2530-2.5.1a\Projects\zstack\Samples\02_fan_wireless\CC2530DB\..\..\..\..\..\Components\stack\sys\"
//        -I "C:\Texas
//        Instruments\ZStack-CC2530-2.5.1a\Projects\zstack\Samples\02_fan_wireless\CC2530DB\..\..\..\..\..\Components\stack\zdo\"
//        -I "C:\Texas
//        Instruments\ZStack-CC2530-2.5.1a\Projects\zstack\Samples\02_fan_wireless\CC2530DB\..\..\..\..\..\Components\zmac\"
//        -I "C:\Texas
//        Instruments\ZStack-CC2530-2.5.1a\Projects\zstack\Samples\02_fan_wireless\CC2530DB\..\..\..\..\..\Components\zmac\f8w\"
//        -Ohz --require_prototypes --no_code_motion)
//    Locale             =  Chinese (Simplified)_China.936
//    List file          =  
//        C:\Texas
//        Instruments\ZStack-CC2530-2.5.1a\Projects\zstack\Samples\02_fan_wireless\CC2530DB\EndDeviceEB\List\MT_ZDO.s51
//
///////////////////////////////////////////////////////////////////////////////

        NAME MT_ZDO

        RTMODEL "__SystemLibrary", "CLib"
        RTMODEL "__calling_convention", "xdata_reentrant"
        RTMODEL "__code_model", "banked"
        RTMODEL "__core", "plain"
        RTMODEL "__data_model", "large"
        RTMODEL "__dptr_size", "16"
        RTMODEL "__extended_stack", "disabled"
        RTMODEL "__location_for_constants", "data"
        RTMODEL "__number_of_dptrs", "1"
        RTMODEL "__register_banks", "*"
        RTMODEL "__rt_version", "1"

        RSEG DOVERLAY:DATA:NOROOT(0)
        RSEG IOVERLAY:IDATA:NOROOT(0)
        RSEG ISTACK:IDATA:NOROOT(0)
        RSEG PSTACK:XDATA:NOROOT(0)
        RSEG XSTACK:XDATA:NOROOT(0)

        EXTERN ?V0
        EXTERN ?V1
        EXTERN ?V2
        EXTERN ?V3
        EXTERN ?V4
        EXTERN ?V5
        EXTERN ?V6
        EXTERN ?V7
        EXTERN ?ALLOC_XSTACK8
        EXTERN ?BANKED_ENTER_XDATA
        EXTERN ?BANKED_LEAVE_XDATA
        EXTERN ?BDISPATCH
        EXTERN ?BRET
        EXTERN ?DEALLOC_XSTACK8
        EXTERN ?PUSH_XSTACK_I_ONE
        EXTERN ?PUSH_XSTACK_I_THREE
        EXTERN ?PUSH_XSTACK_I_TWO
        EXTERN ?XSP
        EXTERN ?XSTACK_DISP0_8
        EXTERN ?XSTACK_DISP100_8
        EXTERN ?XSTACK_DISP101_8
        EXTERN ?XSTACK_DISP102_8
        EXTERN ?XSTACK_DISP103_8
        EXTERN __INIT_XDATA_Z

        PUBLIC `??MT_ZdoActiveEpRequest::?relay`
        FUNCTION `??MT_ZdoActiveEpRequest::?relay`,0203H
        PUBLIC `??MT_ZdoBeaconIndCB::?relay`
        FUNCTION `??MT_ZdoBeaconIndCB::?relay`,0203H
        PUBLIC `??MT_ZdoBindRequest::?relay`
        FUNCTION `??MT_ZdoBindRequest::?relay`,0203H
        PUBLIC `??MT_ZdoCommandProcessing::?relay`
        FUNCTION `??MT_ZdoCommandProcessing::?relay`,0203H
        PUBLIC `??MT_ZdoComplexDescRequest::?relay`
        FUNCTION `??MT_ZdoComplexDescRequest::?relay`,0203H
        PUBLIC `??MT_ZdoEndDevAnnce::?relay`
        FUNCTION `??MT_ZdoEndDevAnnce::?relay`,0203H
        PUBLIC `??MT_ZdoEndDevBindRequest::?relay`
        FUNCTION `??MT_ZdoEndDevBindRequest::?relay`,0203H
        PUBLIC `??MT_ZdoIEEEAddrRequest::?relay`
        FUNCTION `??MT_ZdoIEEEAddrRequest::?relay`,0203H
        PUBLIC `??MT_ZdoInit::?relay`
        FUNCTION `??MT_ZdoInit::?relay`,0203H
        PUBLIC `??MT_ZdoJoinCnfCB::?relay`
        FUNCTION `??MT_ZdoJoinCnfCB::?relay`,0203H
        PUBLIC `??MT_ZdoJoinReq::?relay`
        FUNCTION `??MT_ZdoJoinReq::?relay`,0203H
        PUBLIC `??MT_ZdoMatchDescRequest::?relay`
        FUNCTION `??MT_ZdoMatchDescRequest::?relay`,0203H
        PUBLIC `??MT_ZdoNWKAddressRequest::?relay`
        FUNCTION `??MT_ZdoNWKAddressRequest::?relay`,0203H
        PUBLIC `??MT_ZdoNetworkDiscoveryReq::?relay`
        FUNCTION `??MT_ZdoNetworkDiscoveryReq::?relay`,0203H
        PUBLIC `??MT_ZdoNodeDescRequest::?relay`
        FUNCTION `??MT_ZdoNodeDescRequest::?relay`,0203H
        PUBLIC `??MT_ZdoNwkDiscoveryCnfCB::?relay`
        FUNCTION `??MT_ZdoNwkDiscoveryCnfCB::?relay`,0203H
        PUBLIC `??MT_ZdoPowerDescRequest::?relay`
        FUNCTION `??MT_ZdoPowerDescRequest::?relay`,0203H
        PUBLIC `??MT_ZdoRegisterForZDOMsg::?relay`
        FUNCTION `??MT_ZdoRegisterForZDOMsg::?relay`,0203H
        PUBLIC `??MT_ZdoRemoveRegisteredCB::?relay`
        FUNCTION `??MT_ZdoRemoveRegisteredCB::?relay`,0203H
        PUBLIC `??MT_ZdoSendMsgCB::?relay`
        FUNCTION `??MT_ZdoSendMsgCB::?relay`,0203H
        PUBLIC `??MT_ZdoServiceDiscRequest::?relay`
        FUNCTION `??MT_ZdoServiceDiscRequest::?relay`,0203H
        PUBLIC `??MT_ZdoSimpleDescRequest::?relay`
        FUNCTION `??MT_ZdoSimpleDescRequest::?relay`,0203H
        PUBLIC `??MT_ZdoStartupFromApp::?relay`
        FUNCTION `??MT_ZdoStartupFromApp::?relay`,0203H
        PUBLIC `??MT_ZdoUnbindRequest::?relay`
        FUNCTION `??MT_ZdoUnbindRequest::?relay`,0203H
        PUBLIC `??MT_ZdoUserDescRequest::?relay`
        FUNCTION `??MT_ZdoUserDescRequest::?relay`,0203H
        PUBLIC `??MT_ZdoUserDescSet::?relay`
        FUNCTION `??MT_ZdoUserDescSet::?relay`,0203H
        PUBLIC MT_ZdoActiveEpRequest
        FUNCTION MT_ZdoActiveEpRequest,0a1203H
        ARGFRAME XSTACK, 9, STACK
        ARGFRAME IOVERLAY, 0, STATIC
        ARGFRAME DOVERLAY, 0, STATIC
        LOCFRAME ISTACK, 1, STACK
        LOCFRAME XSTACK, 20, STACK
        PUBLIC MT_ZdoBeaconIndCB
        FUNCTION MT_ZdoBeaconIndCB,0a1603H
        ARGFRAME XSTACK, 9, STACK
        ARGFRAME IOVERLAY, 0, STATIC
        ARGFRAME DOVERLAY, 0, STATIC
        LOCFRAME ISTACK, 1, STACK
        LOCFRAME XSTACK, 14, STACK
        PUBLIC MT_ZdoBindRequest
        FUNCTION MT_ZdoBindRequest,0a1203H
        ARGFRAME XSTACK, 9, STACK
        ARGFRAME IOVERLAY, 0, STATIC
        ARGFRAME DOVERLAY, 0, STATIC
        LOCFRAME ISTACK, 1, STACK
        LOCFRAME XSTACK, 43, STACK
        PUBLIC MT_ZdoCommandProcessing
        FUNCTION MT_ZdoCommandProcessing,021203H
        ARGFRAME XSTACK, 0, STACK
        LOCFRAME XSTACK, 9, STACK
        PUBLIC MT_ZdoComplexDescRequest
        FUNCTION MT_ZdoComplexDescRequest,0a1203H
        ARGFRAME XSTACK, 9, STACK
        ARGFRAME IOVERLAY, 0, STATIC
        ARGFRAME DOVERLAY, 0, STATIC
        LOCFRAME ISTACK, 1, STACK
        LOCFRAME XSTACK, 20, STACK
        PUBLIC MT_ZdoEndDevAnnce
        FUNCTION MT_ZdoEndDevAnnce,0a1203H
        ARGFRAME XSTACK, 9, STACK
        ARGFRAME IOVERLAY, 0, STATIC
        ARGFRAME DOVERLAY, 0, STATIC
        LOCFRAME ISTACK, 1, STACK
        LOCFRAME XSTACK, 11, STACK
        PUBLIC MT_ZdoEndDevBindRequest
        FUNCTION MT_ZdoEndDevBindRequest,0a1203H
        ARGFRAME XSTACK, 9, STACK
        ARGFRAME IOVERLAY, 0, STATIC
        ARGFRAME DOVERLAY, 0, STATIC
        LOCFRAME ISTACK, 1, STACK
        LOCFRAME XSTACK, 94, STACK
        PUBLIC MT_ZdoIEEEAddrRequest
        FUNCTION MT_ZdoIEEEAddrRequest,0a1203H
        ARGFRAME XSTACK, 9, STACK
        ARGFRAME IOVERLAY, 0, STATIC
        ARGFRAME DOVERLAY, 0, STATIC
        LOCFRAME ISTACK, 1, STACK
        LOCFRAME XSTACK, 11, STACK
        PUBLIC MT_ZdoInit
        FUNCTION MT_ZdoInit,0203H
        ARGFRAME XSTACK, 0, STACK
        PUBLIC MT_ZdoJoinCnfCB
        FUNCTION MT_ZdoJoinCnfCB,021603H
        ARGFRAME XSTACK, 0, STACK
        LOCFRAME ISTACK, 1, STACK
        LOCFRAME XSTACK, 14, STACK
        PUBLIC MT_ZdoJoinReq
        FUNCTION MT_ZdoJoinReq,0a1203H
        ARGFRAME XSTACK, 9, STACK
        ARGFRAME IOVERLAY, 0, STATIC
        ARGFRAME DOVERLAY, 0, STATIC
        LOCFRAME ISTACK, 1, STACK
        LOCFRAME XSTACK, 17, STACK
        PUBLIC MT_ZdoMatchDescRequest
        FUNCTION MT_ZdoMatchDescRequest,0a1203H
        ARGFRAME XSTACK, 9, STACK
        ARGFRAME IOVERLAY, 0, STATIC
        ARGFRAME DOVERLAY, 0, STATIC
        LOCFRAME ISTACK, 1, STACK
        LOCFRAME XSTACK, 96, STACK
        PUBLIC MT_ZdoNWKAddressRequest
        FUNCTION MT_ZdoNWKAddressRequest,0a1203H
        ARGFRAME XSTACK, 9, STACK
        ARGFRAME IOVERLAY, 0, STATIC
        ARGFRAME DOVERLAY, 0, STATIC
        LOCFRAME ISTACK, 1, STACK
        LOCFRAME XSTACK, 11, STACK
        PUBLIC MT_ZdoNetworkDiscoveryReq
        FUNCTION MT_ZdoNetworkDiscoveryReq,0a1203H
        ARGFRAME XSTACK, 9, STACK
        ARGFRAME IOVERLAY, 0, STATIC
        ARGFRAME DOVERLAY, 0, STATIC
        LOCFRAME ISTACK, 1, STACK
        LOCFRAME XSTACK, 14, STACK
        PUBLIC MT_ZdoNodeDescRequest
        FUNCTION MT_ZdoNodeDescRequest,0a1203H
        ARGFRAME XSTACK, 9, STACK
        ARGFRAME IOVERLAY, 0, STATIC
        ARGFRAME DOVERLAY, 0, STATIC
        LOCFRAME ISTACK, 1, STACK
        LOCFRAME XSTACK, 20, STACK
        PUBLIC MT_ZdoNwkDiscoveryCnfCB
        FUNCTION MT_ZdoNwkDiscoveryCnfCB,021603H
        ARGFRAME XSTACK, 0, STACK
        LOCFRAME XSTACK, 9, STACK
        PUBLIC MT_ZdoPowerDescRequest
        FUNCTION MT_ZdoPowerDescRequest,0a1203H
        ARGFRAME XSTACK, 9, STACK
        ARGFRAME IOVERLAY, 0, STATIC
        ARGFRAME DOVERLAY, 0, STATIC
        LOCFRAME ISTACK, 1, STACK
        LOCFRAME XSTACK, 20, STACK
        PUBLIC MT_ZdoRegisterForZDOMsg
        FUNCTION MT_ZdoRegisterForZDOMsg,021203H
        ARGFRAME XSTACK, 9, STACK
        ARGFRAME IOVERLAY, 0, STATIC
        ARGFRAME DOVERLAY, 0, STATIC
        LOCFRAME ISTACK, 1, STACK
        LOCFRAME XSTACK, 10, STACK
        PUBLIC MT_ZdoRemoveRegisteredCB
        FUNCTION MT_ZdoRemoveRegisteredCB,021203H
        ARGFRAME XSTACK, 9, STACK
        ARGFRAME IOVERLAY, 0, STATIC
        ARGFRAME DOVERLAY, 0, STATIC
        LOCFRAME ISTACK, 1, STACK
        LOCFRAME XSTACK, 10, STACK
        PUBLIC MT_ZdoSendMsgCB
        FUNCTION MT_ZdoSendMsgCB,0a1203H
        ARGFRAME XSTACK, 0, STACK
        LOCFRAME ISTACK, 1, STACK
        LOCFRAME XSTACK, 17, STACK
        PUBLIC MT_ZdoServiceDiscRequest
        FUNCTION MT_ZdoServiceDiscRequest,021203H
        ARGFRAME XSTACK, 9, STACK
        ARGFRAME IOVERLAY, 0, STATIC
        ARGFRAME DOVERLAY, 0, STATIC
        LOCFRAME ISTACK, 1, STACK
        LOCFRAME XSTACK, 10, STACK
        PUBLIC MT_ZdoSimpleDescRequest
        FUNCTION MT_ZdoSimpleDescRequest,0a1203H
        ARGFRAME XSTACK, 9, STACK
        ARGFRAME IOVERLAY, 0, STATIC
        ARGFRAME DOVERLAY, 0, STATIC
        LOCFRAME ISTACK, 1, STACK
        LOCFRAME XSTACK, 20, STACK
        PUBLIC MT_ZdoStartupFromApp
        FUNCTION MT_ZdoStartupFromApp,021203H
        ARGFRAME XSTACK, 9, STACK
        ARGFRAME IOVERLAY, 0, STATIC
        ARGFRAME DOVERLAY, 0, STATIC
        LOCFRAME ISTACK, 1, STACK
        LOCFRAME XSTACK, 10, STACK
        PUBLIC MT_ZdoUnbindRequest
        FUNCTION MT_ZdoUnbindRequest,0a1203H
        ARGFRAME XSTACK, 9, STACK
        ARGFRAME IOVERLAY, 0, STATIC
        ARGFRAME DOVERLAY, 0, STATIC
        LOCFRAME ISTACK, 1, STACK
        LOCFRAME XSTACK, 43, STACK
        PUBLIC MT_ZdoUserDescRequest
        FUNCTION MT_ZdoUserDescRequest,0a1203H
        ARGFRAME XSTACK, 9, STACK
        ARGFRAME IOVERLAY, 0, STATIC
        ARGFRAME DOVERLAY, 0, STATIC
        LOCFRAME ISTACK, 1, STACK
        LOCFRAME XSTACK, 20, STACK
        PUBLIC MT_ZdoUserDescSet
        FUNCTION MT_ZdoUserDescSet,0a1203H
        ARGFRAME XSTACK, 9, STACK
        ARGFRAME IOVERLAY, 0, STATIC
        ARGFRAME DOVERLAY, 0, STATIC
        LOCFRAME ISTACK, 1, STACK
        LOCFRAME XSTACK, 42, STACK
        PUBLIC _zdoCallbackSub
        PUBLIC pBeaconIndBuf
        
          CFI Names cfiNames0
          CFI StackFrame CFA_SP SP IDATA
          CFI StackFrame CFA_PSP16 PSP16 XDATA
          CFI StackFrame CFA_XSP16 XSP16 XDATA
          CFI StaticOverlayFrame CFA_IOVERLAY IOVERLAY
          CFI StaticOverlayFrame CFA_DOVERLAY DOVERLAY
          CFI Resource `PSW.CY`:1, `B.BR0`:1, `B.BR1`:1, `B.BR2`:1, `B.BR3`:1
          CFI Resource `B.BR4`:1, `B.BR5`:1, `B.BR6`:1, `B.BR7`:1, `VB.BR8`:1
          CFI Resource `VB.BR9`:1, `VB.BR10`:1, `VB.BR11`:1, `VB.BR12`:1
          CFI Resource `VB.BR13`:1, `VB.BR14`:1, `VB.BR15`:1, VB:8, B:8, A:8
          CFI Resource PSW:8, DPL0:8, DPH0:8, R0:8, R1:8, R2:8, R3:8, R4:8, R5:8
          CFI Resource R6:8, R7:8, V0:8, V1:8, V2:8, V3:8, V4:8, V5:8, V6:8, V7:8
          CFI Resource SP:8, PSPH:8, PSPL:8, PSP16:16, XSPH:8, XSPL:8, XSP16:16
          CFI VirtualResource ?RET:24
          CFI Resource ?BRET_EXT:8
          CFI VirtualResource ?RET_HIGH:8, ?RET_LOW:8
          CFI ResourceParts PSP16 PSPH, PSPL
          CFI ResourceParts XSP16 XSPH, XSPL
          CFI ResourceParts ?RET ?BRET_EXT, ?RET_HIGH, ?RET_LOW
          CFI EndNames cfiNames0
        
          CFI Common cfiCommon0 Using cfiNames0
          CFI CodeAlign 1
          CFI DataAlign -1
          CFI ReturnAddress ?RET CODE
          CFI CFA_DOVERLAY Used
          CFI CFA_IOVERLAY Used
          CFI CFA_SP SP+-3
          CFI CFA_PSP16 PSP16+0
          CFI CFA_XSP16 XSP16+0
          CFI `PSW.CY` SameValue
          CFI `B.BR0` SameValue
          CFI `B.BR1` SameValue
          CFI `B.BR2` SameValue
          CFI `B.BR3` SameValue
          CFI `B.BR4` SameValue
          CFI `B.BR5` SameValue
          CFI `B.BR6` SameValue
          CFI `B.BR7` SameValue
          CFI `VB.BR8` SameValue
          CFI `VB.BR9` SameValue
          CFI `VB.BR10` SameValue
          CFI `VB.BR11` SameValue
          CFI `VB.BR12` SameValue
          CFI `VB.BR13` SameValue
          CFI `VB.BR14` SameValue
          CFI `VB.BR15` SameValue
          CFI VB SameValue
          CFI B Undefined
          CFI A Undefined
          CFI PSW SameValue
          CFI DPL0 SameValue
          CFI DPH0 SameValue
          CFI R0 Undefined
          CFI R1 Undefined
          CFI R2 Undefined
          CFI R3 Undefined
          CFI R4 Undefined
          CFI R5 Undefined
          CFI R6 SameValue
          CFI R7 SameValue
          CFI V0 SameValue
          CFI V1 SameValue
          CFI V2 SameValue
          CFI V3 SameValue
          CFI V4 SameValue
          CFI V5 SameValue
          CFI V6 SameValue
          CFI V7 SameValue
          CFI PSPH Undefined
          CFI PSPL Undefined
          CFI XSPH Undefined
          CFI XSPL Undefined
          CFI ?RET Concat
          CFI ?BRET_EXT Frame(CFA_SP, 3)
          CFI ?RET_HIGH Frame(CFA_SP, 2)
          CFI ?RET_LOW Frame(CFA_SP, 1)
          CFI EndCommon cfiCommon0
        
        
          CFI Common cfiCommon1 Using cfiNames0
          CFI CodeAlign 1
          CFI DataAlign -1
          CFI ReturnAddress ?RET CODE
          CFI CFA_DOVERLAY Used
          CFI CFA_IOVERLAY Used
          CFI CFA_SP SP+-2
          CFI CFA_PSP16 PSP16+0
          CFI CFA_XSP16 XSP16+0
          CFI `PSW.CY` SameValue
          CFI `B.BR0` SameValue
          CFI `B.BR1` SameValue
          CFI `B.BR2` SameValue
          CFI `B.BR3` SameValue
          CFI `B.BR4` SameValue
          CFI `B.BR5` SameValue
          CFI `B.BR6` SameValue
          CFI `B.BR7` SameValue
          CFI `VB.BR8` SameValue
          CFI `VB.BR9` SameValue
          CFI `VB.BR10` SameValue
          CFI `VB.BR11` SameValue
          CFI `VB.BR12` SameValue
          CFI `VB.BR13` SameValue
          CFI `VB.BR14` SameValue
          CFI `VB.BR15` SameValue
          CFI VB SameValue
          CFI B SameValue
          CFI A SameValue
          CFI PSW SameValue
          CFI DPL0 SameValue
          CFI DPH0 SameValue
          CFI R0 SameValue
          CFI R1 SameValue
          CFI R2 SameValue
          CFI R3 SameValue
          CFI R4 SameValue
          CFI R5 SameValue
          CFI R6 SameValue
          CFI R7 SameValue
          CFI V0 SameValue
          CFI V1 SameValue
          CFI V2 SameValue
          CFI V3 SameValue
          CFI V4 SameValue
          CFI V5 SameValue
          CFI V6 SameValue
          CFI V7 SameValue
          CFI PSPH Undefined
          CFI PSPL Undefined
          CFI XSPH Undefined
          CFI XSPL Undefined
          CFI ?RET Concat
          CFI ?BRET_EXT SameValue
          CFI ?RET_HIGH Frame(CFA_SP, 2)
          CFI ?RET_LOW Frame(CFA_SP, 1)
          CFI EndCommon cfiCommon1
        
MT_BuildAndSendZToolResponse SYMBOL "MT_BuildAndSendZToolResponse"
`??MT_BuildAndSendZToolResponse::?relay` SYMBOL "?relay", MT_BuildAndSendZToolResponse
ZDApp_JoinReq       SYMBOL "ZDApp_JoinReq"
`??ZDApp_JoinReq::?relay` SYMBOL "?relay", ZDApp_JoinReq
ZDApp_NetworkDiscoveryReq SYMBOL "ZDApp_NetworkDiscoveryReq"
`??ZDApp_NetworkDiscoveryReq::?relay` SYMBOL "?relay", ZDApp_NetworkDiscoveryReq
ZDOInitDevice       SYMBOL "ZDOInitDevice"
`??ZDOInitDevice::?relay` SYMBOL "?relay", ZDOInitDevice
ZDO_DeregisterForZdoCB SYMBOL "ZDO_DeregisterForZdoCB"
`??ZDO_DeregisterForZdoCB::?relay` SYMBOL "?relay", ZDO_DeregisterForZdoCB
ZDO_RegisterForZDOMsg SYMBOL "ZDO_RegisterForZDOMsg"
`??ZDO_RegisterForZDOMsg::?relay` SYMBOL "?relay", ZDO_RegisterForZDOMsg
ZDO_RegisterForZdoCB SYMBOL "ZDO_RegisterForZdoCB"
`??ZDO_RegisterForZdoCB::?relay` SYMBOL "?relay", ZDO_RegisterForZdoCB
ZDO_RemoveRegisteredCB SYMBOL "ZDO_RemoveRegisteredCB"
`??ZDO_RemoveRegisteredCB::?relay` SYMBOL "?relay", ZDO_RemoveRegisteredCB
ZDP_BindUnbindReq   SYMBOL "ZDP_BindUnbindReq"
`??ZDP_BindUnbindReq::?relay` SYMBOL "?relay", ZDP_BindUnbindReq
ZDP_DeviceAnnce     SYMBOL "ZDP_DeviceAnnce"
`??ZDP_DeviceAnnce::?relay` SYMBOL "?relay", ZDP_DeviceAnnce
ZDP_EndDeviceBindReq SYMBOL "ZDP_EndDeviceBindReq"
`??ZDP_EndDeviceBindReq::?relay` SYMBOL "?relay", ZDP_EndDeviceBindReq
ZDP_IEEEAddrReq     SYMBOL "ZDP_IEEEAddrReq"
`??ZDP_IEEEAddrReq::?relay` SYMBOL "?relay", ZDP_IEEEAddrReq
ZDP_MatchDescReq    SYMBOL "ZDP_MatchDescReq"
`??ZDP_MatchDescReq::?relay` SYMBOL "?relay", ZDP_MatchDescReq
ZDP_NWKAddrOfInterestReq SYMBOL "ZDP_NWKAddrOfInterestReq"
`??ZDP_NWKAddrOfInterestReq::?relay` SYMBOL "?relay", ZDP_NWKAddrOfInterestReq
ZDP_NwkAddrReq      SYMBOL "ZDP_NwkAddrReq"
`??ZDP_NwkAddrReq::?relay` SYMBOL "?relay", ZDP_NwkAddrReq
ZDP_ServerDiscReq   SYMBOL "ZDP_ServerDiscReq"
`??ZDP_ServerDiscReq::?relay` SYMBOL "?relay", ZDP_ServerDiscReq
ZDP_SimpleDescReq   SYMBOL "ZDP_SimpleDescReq"
`??ZDP_SimpleDescReq::?relay` SYMBOL "?relay", ZDP_SimpleDescReq
ZDP_UserDescSet     SYMBOL "ZDP_UserDescSet"
`??ZDP_UserDescSet::?relay` SYMBOL "?relay", ZDP_UserDescSet
osal_build_uint32   SYMBOL "osal_build_uint32"
`??osal_build_uint32::?relay` SYMBOL "?relay", osal_build_uint32
osal_mem_alloc      SYMBOL "osal_mem_alloc"
`??osal_mem_alloc::?relay` SYMBOL "?relay", osal_mem_alloc
osal_mem_free       SYMBOL "osal_mem_free"
`??osal_mem_free::?relay` SYMBOL "?relay", osal_mem_free
osal_memcpy         SYMBOL "osal_memcpy"
`??osal_memcpy::?relay` SYMBOL "?relay", osal_memcpy
sAddrExtCpy         SYMBOL "sAddrExtCpy"
`??sAddrExtCpy::?relay` SYMBOL "?relay", sAddrExtCpy
MT_ZdoActiveEpRequest SYMBOL "MT_ZdoActiveEpRequest"
`??MT_ZdoActiveEpRequest::?relay` SYMBOL "?relay", MT_ZdoActiveEpRequest
MT_ZdoBeaconIndCB   SYMBOL "MT_ZdoBeaconIndCB"
`??MT_ZdoBeaconIndCB::?relay` SYMBOL "?relay", MT_ZdoBeaconIndCB
MT_ZdoBindRequest   SYMBOL "MT_ZdoBindRequest"
`??MT_ZdoBindRequest::?relay` SYMBOL "?relay", MT_ZdoBindRequest
MT_ZdoCommandProcessing SYMBOL "MT_ZdoCommandProcessing"
`??MT_ZdoCommandProcessing::?relay` SYMBOL "?relay", MT_ZdoCommandProcessing
MT_ZdoComplexDescRequest SYMBOL "MT_ZdoComplexDescRequest"
`??MT_ZdoComplexDescRequest::?relay` SYMBOL "?relay", MT_ZdoComplexDescRequest
MT_ZdoEndDevAnnce   SYMBOL "MT_ZdoEndDevAnnce"
`??MT_ZdoEndDevAnnce::?relay` SYMBOL "?relay", MT_ZdoEndDevAnnce
MT_ZdoEndDevBindRequest SYMBOL "MT_ZdoEndDevBindRequest"
`??MT_ZdoEndDevBindRequest::?relay` SYMBOL "?relay", MT_ZdoEndDevBindRequest
MT_ZdoIEEEAddrRequest SYMBOL "MT_ZdoIEEEAddrRequest"
`??MT_ZdoIEEEAddrRequest::?relay` SYMBOL "?relay", MT_ZdoIEEEAddrRequest
MT_ZdoInit          SYMBOL "MT_ZdoInit"
`??MT_ZdoInit::?relay` SYMBOL "?relay", MT_ZdoInit
MT_ZdoJoinCnfCB     SYMBOL "MT_ZdoJoinCnfCB"
`??MT_ZdoJoinCnfCB::?relay` SYMBOL "?relay", MT_ZdoJoinCnfCB
MT_ZdoJoinReq       SYMBOL "MT_ZdoJoinReq"
`??MT_ZdoJoinReq::?relay` SYMBOL "?relay", MT_ZdoJoinReq
MT_ZdoMatchDescRequest SYMBOL "MT_ZdoMatchDescRequest"
`??MT_ZdoMatchDescRequest::?relay` SYMBOL "?relay", MT_ZdoMatchDescRequest
MT_ZdoNWKAddressRequest SYMBOL "MT_ZdoNWKAddressRequest"
`??MT_ZdoNWKAddressRequest::?relay` SYMBOL "?relay", MT_ZdoNWKAddressRequest
MT_ZdoNetworkDiscoveryReq SYMBOL "MT_ZdoNetworkDiscoveryReq"
`??MT_ZdoNetworkDiscoveryReq::?relay` SYMBOL "?relay", MT_ZdoNetworkDiscoveryReq
MT_ZdoNodeDescRequest SYMBOL "MT_ZdoNodeDescRequest"
`??MT_ZdoNodeDescRequest::?relay` SYMBOL "?relay", MT_ZdoNodeDescRequest
MT_ZdoNwkDiscoveryCnfCB SYMBOL "MT_ZdoNwkDiscoveryCnfCB"
`??MT_ZdoNwkDiscoveryCnfCB::?relay` SYMBOL "?relay", MT_ZdoNwkDiscoveryCnfCB
MT_ZdoPowerDescRequest SYMBOL "MT_ZdoPowerDescRequest"
`??MT_ZdoPowerDescRequest::?relay` SYMBOL "?relay", MT_ZdoPowerDescRequest
MT_ZdoRegisterForZDOMsg SYMBOL "MT_ZdoRegisterForZDOMsg"
`??MT_ZdoRegisterForZDOMsg::?relay` SYMBOL "?relay", MT_ZdoRegisterForZDOMsg
MT_ZdoRemoveRegisteredCB SYMBOL "MT_ZdoRemoveRegisteredCB"
`??MT_ZdoRemoveRegisteredCB::?relay` SYMBOL "?relay", MT_ZdoRemoveRegisteredCB
MT_ZdoSendMsgCB     SYMBOL "MT_ZdoSendMsgCB"
`??MT_ZdoSendMsgCB::?relay` SYMBOL "?relay", MT_ZdoSendMsgCB
MT_ZdoServiceDiscRequest SYMBOL "MT_ZdoServiceDiscRequest"
`??MT_ZdoServiceDiscRequest::?relay` SYMBOL "?relay", MT_ZdoServiceDiscRequest
MT_ZdoSimpleDescRequest SYMBOL "MT_ZdoSimpleDescRequest"
`??MT_ZdoSimpleDescRequest::?relay` SYMBOL "?relay", MT_ZdoSimpleDescRequest
MT_ZdoStartupFromApp SYMBOL "MT_ZdoStartupFromApp"
`??MT_ZdoStartupFromApp::?relay` SYMBOL "?relay", MT_ZdoStartupFromApp
MT_ZdoUnbindRequest SYMBOL "MT_ZdoUnbindRequest"
`??MT_ZdoUnbindRequest::?relay` SYMBOL "?relay", MT_ZdoUnbindRequest
MT_ZdoUserDescRequest SYMBOL "MT_ZdoUserDescRequest"
`??MT_ZdoUserDescRequest::?relay` SYMBOL "?relay", MT_ZdoUserDescRequest
MT_ZdoUserDescSet   SYMBOL "MT_ZdoUserDescSet"
`??MT_ZdoUserDescSet::?relay` SYMBOL "?relay", MT_ZdoUserDescSet

        EXTERN `??MT_BuildAndSendZToolResponse::?relay`
        FUNCTION `??MT_BuildAndSendZToolResponse::?relay`,00H
        EXTERN `??ZDApp_JoinReq::?relay`
        FUNCTION `??ZDApp_JoinReq::?relay`,00H
        EXTERN `??ZDApp_NetworkDiscoveryReq::?relay`
        FUNCTION `??ZDApp_NetworkDiscoveryReq::?relay`,00H
        EXTERN `??ZDOInitDevice::?relay`
        FUNCTION `??ZDOInitDevice::?relay`,00H
        EXTERN `??ZDO_DeregisterForZdoCB::?relay`
        FUNCTION `??ZDO_DeregisterForZdoCB::?relay`,00H
        EXTERN `??ZDO_RegisterForZDOMsg::?relay`
        FUNCTION `??ZDO_RegisterForZDOMsg::?relay`,00H
        EXTERN `??ZDO_RegisterForZdoCB::?relay`
        FUNCTION `??ZDO_RegisterForZdoCB::?relay`,00H
        EXTERN `??ZDO_RemoveRegisteredCB::?relay`
        FUNCTION `??ZDO_RemoveRegisteredCB::?relay`,00H
        EXTERN `??ZDP_BindUnbindReq::?relay`
        FUNCTION `??ZDP_BindUnbindReq::?relay`,00H
        EXTERN `??ZDP_DeviceAnnce::?relay`
        FUNCTION `??ZDP_DeviceAnnce::?relay`,00H
        EXTERN `??ZDP_EndDeviceBindReq::?relay`
        FUNCTION `??ZDP_EndDeviceBindReq::?relay`,00H
        EXTERN `??ZDP_IEEEAddrReq::?relay`
        FUNCTION `??ZDP_IEEEAddrReq::?relay`,00H
        EXTERN `??ZDP_MatchDescReq::?relay`
        FUNCTION `??ZDP_MatchDescReq::?relay`,00H
        EXTERN `??ZDP_NWKAddrOfInterestReq::?relay`
        FUNCTION `??ZDP_NWKAddrOfInterestReq::?relay`,00H
        EXTERN `??ZDP_NwkAddrReq::?relay`
        FUNCTION `??ZDP_NwkAddrReq::?relay`,00H
        EXTERN `??ZDP_ServerDiscReq::?relay`
        FUNCTION `??ZDP_ServerDiscReq::?relay`,00H
        EXTERN `??ZDP_SimpleDescReq::?relay`
        FUNCTION `??ZDP_SimpleDescReq::?relay`,00H
        EXTERN `??ZDP_UserDescSet::?relay`
        FUNCTION `??ZDP_UserDescSet::?relay`,00H
        EXTERN `??osal_build_uint32::?relay`
        FUNCTION `??osal_build_uint32::?relay`,00H
        EXTERN `??osal_mem_alloc::?relay`
        FUNCTION `??osal_mem_alloc::?relay`,00H
        EXTERN `??osal_mem_free::?relay`
        FUNCTION `??osal_mem_free::?relay`,00H
        EXTERN `??osal_memcpy::?relay`
        FUNCTION `??osal_memcpy::?relay`,00H
        EXTERN `??sAddrExtCpy::?relay`
        FUNCTION `??sAddrExtCpy::?relay`,00H
        EXTERN MT_BuildAndSendZToolResponse
        FUNCTION MT_BuildAndSendZToolResponse,0202H
        ARGFRAME ISTACK, 0, STACK
        ARGFRAME PSTACK, 0, STACK
        ARGFRAME XSTACK, 88, STACK
        ARGFRAME IOVERLAY, 0, STATIC
        ARGFRAME DOVERLAY, 0, STATIC
        EXTERN MT_TaskID
        EXTERN ZDApp_JoinReq
        FUNCTION ZDApp_JoinReq,0202H
        ARGFRAME ISTACK, 0, STACK
        ARGFRAME PSTACK, 0, STACK
        ARGFRAME XSTACK, 17, STACK
        ARGFRAME IOVERLAY, 0, STATIC
        ARGFRAME DOVERLAY, 0, STATIC
        EXTERN ZDApp_NetworkDiscoveryReq
        FUNCTION ZDApp_NetworkDiscoveryReq,0202H
        ARGFRAME ISTACK, 0, STACK
        ARGFRAME PSTACK, 0, STACK
        ARGFRAME XSTACK, 14, STACK
        ARGFRAME IOVERLAY, 0, STATIC
        ARGFRAME DOVERLAY, 0, STATIC
        EXTERN ZDOInitDevice
        FUNCTION ZDOInitDevice,0202H
        ARGFRAME ISTACK, 0, STACK
        ARGFRAME PSTACK, 0, STACK
        ARGFRAME XSTACK, 10, STACK
        ARGFRAME IOVERLAY, 0, STATIC
        ARGFRAME DOVERLAY, 0, STATIC
        EXTERN ZDO_DeregisterForZdoCB
        FUNCTION ZDO_DeregisterForZdoCB,0202H
        ARGFRAME ISTACK, 0, STACK
        ARGFRAME PSTACK, 0, STACK
        ARGFRAME XSTACK, 14, STACK
        ARGFRAME IOVERLAY, 0, STATIC
        ARGFRAME DOVERLAY, 0, STATIC
        EXTERN ZDO_RegisterForZDOMsg
        FUNCTION ZDO_RegisterForZDOMsg,0202H
        ARGFRAME ISTACK, 0, STACK
        ARGFRAME PSTACK, 0, STACK
        ARGFRAME XSTACK, 10, STACK
        ARGFRAME IOVERLAY, 0, STATIC
        ARGFRAME DOVERLAY, 0, STATIC
        EXTERN ZDO_RegisterForZdoCB
        FUNCTION ZDO_RegisterForZdoCB,0202H
        ARGFRAME ISTACK, 0, STACK
        ARGFRAME PSTACK, 0, STACK
        ARGFRAME XSTACK, 14, STACK
        ARGFRAME IOVERLAY, 0, STATIC
        ARGFRAME DOVERLAY, 0, STATIC
        EXTERN ZDO_RemoveRegisteredCB
        FUNCTION ZDO_RemoveRegisteredCB,0202H
        ARGFRAME ISTACK, 0, STACK
        ARGFRAME PSTACK, 0, STACK
        ARGFRAME XSTACK, 10, STACK
        ARGFRAME IOVERLAY, 0, STATIC
        ARGFRAME DOVERLAY, 0, STATIC
        EXTERN ZDP_BindUnbindReq
        FUNCTION ZDP_BindUnbindReq,0202H
        ARGFRAME ISTACK, 0, STACK
        ARGFRAME PSTACK, 0, STACK
        ARGFRAME XSTACK, 43, STACK
        ARGFRAME IOVERLAY, 0, STATIC
        ARGFRAME DOVERLAY, 0, STATIC
        EXTERN ZDP_DeviceAnnce
        FUNCTION ZDP_DeviceAnnce,0202H
        ARGFRAME ISTACK, 0, STACK
        ARGFRAME PSTACK, 0, STACK
        ARGFRAME XSTACK, 11, STACK
        ARGFRAME IOVERLAY, 0, STATIC
        ARGFRAME DOVERLAY, 0, STATIC
        EXTERN ZDP_EndDeviceBindReq
        FUNCTION ZDP_EndDeviceBindReq,0202H
        ARGFRAME ISTACK, 0, STACK
        ARGFRAME PSTACK, 0, STACK
        ARGFRAME XSTACK, 94, STACK
        ARGFRAME IOVERLAY, 0, STATIC
        ARGFRAME DOVERLAY, 0, STATIC
        EXTERN ZDP_IEEEAddrReq
        FUNCTION ZDP_IEEEAddrReq,0202H
        ARGFRAME ISTACK, 0, STACK
        ARGFRAME PSTACK, 0, STACK
        ARGFRAME XSTACK, 11, STACK
        ARGFRAME IOVERLAY, 0, STATIC
        ARGFRAME DOVERLAY, 0, STATIC
        EXTERN ZDP_MatchDescReq
        FUNCTION ZDP_MatchDescReq,0202H
        ARGFRAME ISTACK, 0, STACK
        ARGFRAME PSTACK, 0, STACK
        ARGFRAME XSTACK, 96, STACK
        ARGFRAME IOVERLAY, 0, STATIC
        ARGFRAME DOVERLAY, 0, STATIC
        EXTERN ZDP_NWKAddrOfInterestReq
        FUNCTION ZDP_NWKAddrOfInterestReq,0202H
        ARGFRAME ISTACK, 0, STACK
        ARGFRAME PSTACK, 0, STACK
        ARGFRAME XSTACK, 20, STACK
        ARGFRAME IOVERLAY, 0, STATIC
        ARGFRAME DOVERLAY, 0, STATIC
        EXTERN ZDP_NwkAddrReq
        FUNCTION ZDP_NwkAddrReq,0202H
        ARGFRAME ISTACK, 0, STACK
        ARGFRAME PSTACK, 0, STACK
        ARGFRAME XSTACK, 11, STACK
        ARGFRAME IOVERLAY, 0, STATIC
        ARGFRAME DOVERLAY, 0, STATIC
        EXTERN ZDP_ServerDiscReq
        FUNCTION ZDP_ServerDiscReq,0202H
        ARGFRAME ISTACK, 0, STACK
        ARGFRAME PSTACK, 0, STACK
        ARGFRAME XSTACK, 10, STACK
        ARGFRAME IOVERLAY, 0, STATIC
        ARGFRAME DOVERLAY, 0, STATIC
        EXTERN ZDP_SimpleDescReq
        FUNCTION ZDP_SimpleDescReq,0202H
        ARGFRAME ISTACK, 0, STACK
        ARGFRAME PSTACK, 0, STACK
        ARGFRAME XSTACK, 20, STACK
        ARGFRAME IOVERLAY, 0, STATIC
        ARGFRAME DOVERLAY, 0, STATIC
        EXTERN ZDP_UserDescSet
        FUNCTION ZDP_UserDescSet,0202H
        ARGFRAME ISTACK, 0, STACK
        ARGFRAME PSTACK, 0, STACK
        ARGFRAME XSTACK, 41, STACK
        ARGFRAME IOVERLAY, 0, STATIC
        ARGFRAME DOVERLAY, 0, STATIC
        EXTERN osal_build_uint32
        FUNCTION osal_build_uint32,0202H
        ARGFRAME ISTACK, 0, STACK
        ARGFRAME PSTACK, 0, STACK
        ARGFRAME XSTACK, 14, STACK
        ARGFRAME IOVERLAY, 0, STATIC
        ARGFRAME DOVERLAY, 0, STATIC
        EXTERN osal_mem_alloc
        FUNCTION osal_mem_alloc,0202H
        ARGFRAME ISTACK, 0, STACK
        ARGFRAME PSTACK, 0, STACK
        ARGFRAME XSTACK, 14, STACK
        ARGFRAME IOVERLAY, 0, STATIC
        ARGFRAME DOVERLAY, 0, STATIC
        EXTERN osal_mem_free
        FUNCTION osal_mem_free,0202H
        ARGFRAME ISTACK, 0, STACK
        ARGFRAME PSTACK, 0, STACK
        ARGFRAME XSTACK, 14, STACK
        ARGFRAME IOVERLAY, 0, STATIC
        ARGFRAME DOVERLAY, 0, STATIC
        EXTERN osal_memcpy
        FUNCTION osal_memcpy,0202H
        ARGFRAME ISTACK, 0, STACK
        ARGFRAME PSTACK, 0, STACK
        ARGFRAME XSTACK, 42, STACK
        ARGFRAME IOVERLAY, 0, STATIC
        ARGFRAME DOVERLAY, 0, STATIC
        EXTERN sAddrExtCpy
        FUNCTION sAddrExtCpy,0202H
        ARGFRAME ISTACK, 0, STACK
        ARGFRAME PSTACK, 0, STACK
        ARGFRAME XSTACK, 35, STACK
        ARGFRAME IOVERLAY, 0, STATIC
        ARGFRAME DOVERLAY, 0, STATIC

// C:\Texas Instruments\ZStack-CC2530-2.5.1a\Components\mt\MT_ZDO.c
//    1 /**************************************************************************************************
//    2   Filename:       MT_ZDO.c
//    3   Revised:        $Date: 2012-02-16 16:04:32 -0800 (Thu, 16 Feb 2012) $
//    4   Revision:       $Revision: 29348 $
//    5 
//    6   Description:    MonitorTest functions for the ZDO layer.
//    7 
//    8 
//    9   Copyright 2004-2012 Texas Instruments Incorporated. All rights reserved.
//   10 
//   11   IMPORTANT: Your use of this Software is limited to those specific rights
//   12   granted under the terms of a software license agreement between the user
//   13   who downloaded the software, his/her employer (which must be your employer)
//   14   and Texas Instruments Incorporated (the "License"). You may not use this
//   15   Software unless you agree to abide by the terms of the License. The License
//   16   limits your use, and you acknowledge, that the Software may not be modified,
//   17   copied or distributed unless embedded on a Texas Instruments microcontroller
//   18   or used solely and exclusively in conjunction with a Texas Instruments radio
//   19   frequency transceiver, which is integrated into your product. Other than for
//   20   the foregoing purpose, you may not use, reproduce, copy, prepare derivative
//   21   works of, modify, distribute, perform, display or sell this Software and/or
//   22   its documentation for any purpose.
//   23 
//   24   YOU FURTHER ACKNOWLEDGE AND AGREE THAT THE SOFTWARE AND DOCUMENTATION ARE
//   25   PROVIDED “AS IS” WITHOUT WARRANTY OF ANY KIND, EITHER EXPRESS OR IMPLIED,
//   26   INCLUDING WITHOUT LIMITATION, ANY WARRANTY OF MERCHANTABILITY, TITLE,
//   27   NON-INFRINGEMENT AND FITNESS FOR A PARTICULAR PURPOSE. IN NO EVENT SHALL
//   28   TEXAS INSTRUMENTS OR ITS LICENSORS BE LIABLE OR OBLIGATED UNDER CONTRACT,
//   29   NEGLIGENCE, STRICT LIABILITY, CONTRIBUTION, BREACH OF WARRANTY, OR OTHER
//   30   LEGAL EQUITABLE THEORY ANY DIRECT OR INDIRECT DAMAGES OR EXPENSES
//   31   INCLUDING BUT NOT LIMITED TO ANY INCIDENTAL, SPECIAL, INDIRECT, PUNITIVE
//   32   OR CONSEQUENTIAL DAMAGES, LOST PROFITS OR LOST DATA, COST OF PROCUREMENT
//   33   OF SUBSTITUTE GOODS, TECHNOLOGY, SERVICES, OR ANY CLAIMS BY THIRD PARTIES
//   34   (INCLUDING BUT NOT LIMITED TO ANY DEFENSE THEREOF), OR OTHER SIMILAR COSTS.
//   35 
//   36   Should you have any questions regarding your right to use this Software,
//   37   contact Texas Instruments Incorporated at www.TI.com.
//   38 **************************************************************************************************/
//   39 
//   40 #ifdef MT_ZDO_FUNC
//   41 
//   42 /**************************************************************************************************
//   43  * INCLUDES
//   44  **************************************************************************************************/
//   45 #include "ZComDef.h"
//   46 #include "OSAL.h"
//   47 #include "OSAL_Nv.h"
//   48 #include "MT.h"
//   49 #include "MT_ZDO.h"
//   50 #include "APSMEDE.h"
//   51 #include "ZDConfig.h"
//   52 #include "ZDProfile.h"
//   53 #include "ZDObject.h"
//   54 #include "ZDApp.h"
//   55 
//   56 #if !defined( WIN32 )
//   57   #include "OnBoard.h"
//   58 #endif
//   59 
//   60 #if defined ( MT_SYS_KEY_MANAGEMENT )
//   61   #include "ZDSecMgr.h"
//   62 #endif
//   63 
//   64 #include "nwk_util.h"
//   65 
//   66 /**************************************************************************************************
//   67  * CONSTANTS
//   68  **************************************************************************************************/
//   69 #define MT_ZDO_END_DEVICE_ANNCE_IND_LEN   0x0D
//   70 #define MT_ZDO_ADDR_RSP_LEN               0x0D
//   71 #define MT_ZDO_BIND_UNBIND_RSP_LEN        0x03
//   72 #define MT_ZDO_BEACON_IND_LEN             21
//   73 #define MT_ZDO_BEACON_IND_PACK_LEN        (MT_UART_TX_BUFF_MAX - SPI_0DATA_MSG_LEN)
//   74 #define MT_ZDO_JOIN_CNF_LEN               5
//   75 
//   76 // Message must pack nwk addr, entire (not just pointer to) ieee addr, and packet cost, so the
//   77 // sizeof(zdoConcentratorInd_t) is not usable.
//   78 #define MT_ZDO_CONCENTRATOR_IND_LEN      (2 + Z_EXTADDR_LEN + 1)
//   79 
//   80 #define MTZDO_RESPONSE_BUFFER_LEN   100
//   81 
//   82 #define MTZDO_MAX_MATCH_CLUSTERS    16
//   83 #define MTZDO_MAX_ED_BIND_CLUSTERS  15
//   84 
//   85 // Conversion from ZDO Cluster Id to the RPC AREQ Id is direct as follows:
//   86 #define MT_ZDO_CID_TO_AREQ_ID(CId)  ((uint8)(CId) | 0x80)
//   87 
//   88 #define MT_ZDO_STATUS_LEN   1
//   89 
//   90 /**************************************************************************************************
//   91  * GLOBAL VARIABLES
//   92  **************************************************************************************************/

        RSEG XDATA_Z:XDATA:NOROOT(0)
        DATA32
//   93 uint32 _zdoCallbackSub;
_zdoCallbackSub:
        DS 4
        REQUIRE __INIT_XDATA_Z

        RSEG XDATA_Z:XDATA:NOROOT(0)
        DATA16
//   94 uint8 *pBeaconIndBuf = NULL;
pBeaconIndBuf:
        DS 2
        REQUIRE __INIT_XDATA_Z
//   95 
//   96 /**************************************************************************************************
//   97  * LOCAL VARIABLES
//   98  **************************************************************************************************/
//   99 
//  100 /**************************************************************************************************
//  101  * LOCAL FUNCTIONS
//  102  **************************************************************************************************/
//  103 #if defined (MT_ZDO_FUNC)
//  104 void MT_ZdoNWKAddressRequest(uint8 *pBuf);
//  105 void MT_ZdoIEEEAddrRequest(uint8 *pBuf);
//  106 void MT_ZdoNodeDescRequest(uint8 *pBuf);
//  107 void MT_ZdoPowerDescRequest(uint8 *pBuf);
//  108 void MT_ZdoSimpleDescRequest(uint8 *pBuf);
//  109 void MT_ZdoActiveEpRequest(uint8 *pBuf);
//  110 void MT_ZdoMatchDescRequest(uint8 *pBuf);
//  111 void MT_ZdoComplexDescRequest(uint8 *pBuf);
//  112 void MT_ZdoUserDescRequest(uint8 *pBuf);
//  113 void MT_ZdoEndDevAnnce(uint8 *pBuf);
//  114 void MT_ZdoUserDescSet(uint8 *pBuf);
//  115 void MT_ZdoServiceDiscRequest(uint8 *pBuf);
//  116 void MT_ZdoEndDevBindRequest(uint8 *pBuf);
//  117 void MT_ZdoBindRequest(uint8 *pBuf);
//  118 void MT_ZdoUnbindRequest(uint8 *pBuf);
//  119 void MT_ZdoMgmtNwkDiscRequest(uint8 *pBuf);
//  120 #if defined ( MT_SYS_KEY_MANAGEMENT )
//  121 void MT_ZdoSetLinkKey(uint8 *pBuf);
//  122 void MT_ZdoRemoveLinkKey(uint8 *pBuf);
//  123 void MT_ZdoGetLinkKey(uint8 *pBuf);
//  124 #endif /* MT_SYS_KEY_MANAGEMENT */
//  125 void MT_ZdoNetworkDiscoveryReq(uint8 *pBuf);
//  126 void MT_ZdoJoinReq(uint8 *pBuf);
//  127 /* Call back function */
//  128 void *MT_ZdoNwkDiscoveryCnfCB ( void *pStr );
//  129 void *MT_ZdoBeaconIndCB ( void *pStr );
//  130 void *MT_ZdoJoinCnfCB ( void *pStr );
//  131 #if defined (MT_ZDO_MGMT)
//  132 void MT_ZdoMgmtLqiRequest(uint8 *pBuf);
//  133 void MT_ZdoMgmtRtgRequest(uint8 *pBuf);
//  134 void MT_ZdoMgmtBindRequest(uint8 *pBuf);
//  135 void MT_ZdoMgmtLeaveRequest(uint8 *pBuf);
//  136 void MT_ZdoMgmtDirectJoinRequest(uint8 *pBuf);
//  137 void MT_ZdoMgmtPermitJoinRequest(uint8 *pBuf);
//  138 void MT_ZdoMgmtNwkUpdateRequest(uint8 *pBuf);
//  139 #endif /* MT_ZDO_MGMT */
//  140 void MT_ZdoStartupFromApp(uint8 *pBuf);
//  141 void MT_ZdoRegisterForZDOMsg(uint8 *pBuf);
//  142 void MT_ZdoRemoveRegisteredCB(uint8 *pBuf);
//  143 #endif /* MT_ZDO_FUNC */
//  144 
//  145 #if defined (MT_ZDO_CB_FUNC)
//  146 uint8 MT_ZdoHandleExceptions( afIncomingMSGPacket_t *pData, zdoIncomingMsg_t *inMsg );
//  147 void MT_ZdoAddrRspCB( ZDO_NwkIEEEAddrResp_t *pMsg, uint16 clusterID );
//  148 void MT_ZdoEndDevAnnceCB( ZDO_DeviceAnnce_t *pMsg, uint16 srcAddr );
//  149 void MT_ZdoBindUnbindRspCB( uint16 clusterID, uint16 srcAddr, uint8 status );
//  150 void* MT_ZdoSrcRtgCB( void *pStr );
//  151 static void *MT_ZdoConcentratorIndCB(void *pStr);
//  152 static void *MT_ZdoLeaveInd(void *vPtr);
//  153 #endif /* MT_ZDO_CB_FUNC */
//  154 
//  155 #if defined (MT_ZDO_FUNC)
//  156 /***************************************************************************************************
//  157  * @fn      MT_ZdoInit
//  158  *
//  159  * @brief   MT ZDO initialization
//  160  *
//  161  * @param   none
//  162  *
//  163  * @return  none
//  164  ***************************************************************************************************/

        RSEG BANKED_CODE:HUGECODE:NOROOT(0)
//  165 void MT_ZdoInit(void)
MT_ZdoInit:
          CFI Block cfiBlock0 Using cfiCommon0
          CFI Function MT_ZdoInit
        CODE
//  166 {
        ; Saved register size: 0
        ; Auto size: 0
//  167 #ifdef MT_ZDO_CB_FUNC
//  168   /* Register with ZDO for indication callbacks */
//  169   ZDO_RegisterForZdoCB(ZDO_SRC_RTG_IND_CBID, &MT_ZdoSrcRtgCB);
//  170   ZDO_RegisterForZdoCB(ZDO_CONCENTRATOR_IND_CBID, &MT_ZdoConcentratorIndCB);
//  171   ZDO_RegisterForZdoCB(ZDO_LEAVE_IND_CBID, &MT_ZdoLeaveInd);
//  172 #endif
//  173 }
        LJMP      ?BRET
          CFI EndBlock cfiBlock0
//  174 
//  175 /***************************************************************************************************
//  176  * @fn      MT_ZdoCommandProcessing
//  177  *
//  178  * @brief
//  179  *
//  180  *   Process all the ZDO commands that are issued by test tool
//  181  *
//  182  * @param   pBuf - pointer to the msg buffer
//  183  *
//  184  *          | LEN  | CMD0  | CMD1  |  DATA  |
//  185  *          |  1   |   1   |   1   |  0-255 |
//  186  *
//  187  * @return  status
//  188  ***************************************************************************************************/

        RSEG BANKED_CODE:HUGECODE:NOROOT(0)
//  189 uint8 MT_ZdoCommandProcessing(uint8* pBuf)
MT_ZdoCommandProcessing:
          CFI Block cfiBlock1 Using cfiCommon0
          CFI Function MT_ZdoCommandProcessing
        CODE
//  190 {
        FUNCALL MT_ZdoCommandProcessing, MT_ZdoNWKAddressRequest
        LOCFRAME ISTACK, 0, STACK
        LOCFRAME PSTACK, 0, STACK
        LOCFRAME XSTACK, 9, STACK
        LOCFRAME IOVERLAY, 0, STATIC
        LOCFRAME DOVERLAY, 0, STATIC
        ARGFRAME ISTACK, 0, STACK
        ARGFRAME PSTACK, 0, STACK
        ARGFRAME XSTACK, 9, STACK
        ARGFRAME IOVERLAY, 0, STATIC
        ARGFRAME DOVERLAY, 0, STATIC
        FUNCALL MT_ZdoCommandProcessing, MT_ZdoIEEEAddrRequest
        LOCFRAME ISTACK, 0, STACK
        LOCFRAME PSTACK, 0, STACK
        LOCFRAME XSTACK, 9, STACK
        LOCFRAME IOVERLAY, 0, STATIC
        LOCFRAME DOVERLAY, 0, STATIC
        ARGFRAME ISTACK, 0, STACK
        ARGFRAME PSTACK, 0, STACK
        ARGFRAME XSTACK, 9, STACK
        ARGFRAME IOVERLAY, 0, STATIC
        ARGFRAME DOVERLAY, 0, STATIC
        FUNCALL MT_ZdoCommandProcessing, MT_ZdoNodeDescRequest
        LOCFRAME ISTACK, 0, STACK
        LOCFRAME PSTACK, 0, STACK
        LOCFRAME XSTACK, 9, STACK
        LOCFRAME IOVERLAY, 0, STATIC
        LOCFRAME DOVERLAY, 0, STATIC
        ARGFRAME ISTACK, 0, STACK
        ARGFRAME PSTACK, 0, STACK
        ARGFRAME XSTACK, 9, STACK
        ARGFRAME IOVERLAY, 0, STATIC
        ARGFRAME DOVERLAY, 0, STATIC
        FUNCALL MT_ZdoCommandProcessing, MT_ZdoPowerDescRequest
        LOCFRAME ISTACK, 0, STACK
        LOCFRAME PSTACK, 0, STACK
        LOCFRAME XSTACK, 9, STACK
        LOCFRAME IOVERLAY, 0, STATIC
        LOCFRAME DOVERLAY, 0, STATIC
        ARGFRAME ISTACK, 0, STACK
        ARGFRAME PSTACK, 0, STACK
        ARGFRAME XSTACK, 9, STACK
        ARGFRAME IOVERLAY, 0, STATIC
        ARGFRAME DOVERLAY, 0, STATIC
        FUNCALL MT_ZdoCommandProcessing, MT_ZdoSimpleDescRequest
        LOCFRAME ISTACK, 0, STACK
        LOCFRAME PSTACK, 0, STACK
        LOCFRAME XSTACK, 9, STACK
        LOCFRAME IOVERLAY, 0, STATIC
        LOCFRAME DOVERLAY, 0, STATIC
        ARGFRAME ISTACK, 0, STACK
        ARGFRAME PSTACK, 0, STACK
        ARGFRAME XSTACK, 9, STACK
        ARGFRAME IOVERLAY, 0, STATIC
        ARGFRAME DOVERLAY, 0, STATIC
        FUNCALL MT_ZdoCommandProcessing, MT_ZdoActiveEpRequest
        LOCFRAME ISTACK, 0, STACK
        LOCFRAME PSTACK, 0, STACK
        LOCFRAME XSTACK, 9, STACK
        LOCFRAME IOVERLAY, 0, STATIC
        LOCFRAME DOVERLAY, 0, STATIC
        ARGFRAME ISTACK, 0, STACK
        ARGFRAME PSTACK, 0, STACK
        ARGFRAME XSTACK, 9, STACK
        ARGFRAME IOVERLAY, 0, STATIC
        ARGFRAME DOVERLAY, 0, STATIC
        FUNCALL MT_ZdoCommandProcessing, MT_ZdoMatchDescRequest
        LOCFRAME ISTACK, 0, STACK
        LOCFRAME PSTACK, 0, STACK
        LOCFRAME XSTACK, 9, STACK
        LOCFRAME IOVERLAY, 0, STATIC
        LOCFRAME DOVERLAY, 0, STATIC
        ARGFRAME ISTACK, 0, STACK
        ARGFRAME PSTACK, 0, STACK
        ARGFRAME XSTACK, 9, STACK
        ARGFRAME IOVERLAY, 0, STATIC
        ARGFRAME DOVERLAY, 0, STATIC
        FUNCALL MT_ZdoCommandProcessing, MT_ZdoComplexDescRequest
        LOCFRAME ISTACK, 0, STACK
        LOCFRAME PSTACK, 0, STACK
        LOCFRAME XSTACK, 9, STACK
        LOCFRAME IOVERLAY, 0, STATIC
        LOCFRAME DOVERLAY, 0, STATIC
        ARGFRAME ISTACK, 0, STACK
        ARGFRAME PSTACK, 0, STACK
        ARGFRAME XSTACK, 9, STACK
        ARGFRAME IOVERLAY, 0, STATIC
        ARGFRAME DOVERLAY, 0, STATIC
        FUNCALL MT_ZdoCommandProcessing, MT_ZdoUserDescRequest
        LOCFRAME ISTACK, 0, STACK
        LOCFRAME PSTACK, 0, STACK
        LOCFRAME XSTACK, 9, STACK
        LOCFRAME IOVERLAY, 0, STATIC
        LOCFRAME DOVERLAY, 0, STATIC
        ARGFRAME ISTACK, 0, STACK
        ARGFRAME PSTACK, 0, STACK
        ARGFRAME XSTACK, 9, STACK
        ARGFRAME IOVERLAY, 0, STATIC
        ARGFRAME DOVERLAY, 0, STATIC
        FUNCALL MT_ZdoCommandProcessing, MT_ZdoEndDevAnnce
        LOCFRAME ISTACK, 0, STACK
        LOCFRAME PSTACK, 0, STACK
        LOCFRAME XSTACK, 9, STACK
        LOCFRAME IOVERLAY, 0, STATIC
        LOCFRAME DOVERLAY, 0, STATIC
        ARGFRAME ISTACK, 0, STACK
        ARGFRAME PSTACK, 0, STACK
        ARGFRAME XSTACK, 9, STACK
        ARGFRAME IOVERLAY, 0, STATIC
        ARGFRAME DOVERLAY, 0, STATIC
        FUNCALL MT_ZdoCommandProcessing, MT_ZdoUserDescSet
        LOCFRAME ISTACK, 0, STACK
        LOCFRAME PSTACK, 0, STACK
        LOCFRAME XSTACK, 9, STACK
        LOCFRAME IOVERLAY, 0, STATIC
        LOCFRAME DOVERLAY, 0, STATIC
        ARGFRAME ISTACK, 0, STACK
        ARGFRAME PSTACK, 0, STACK
        ARGFRAME XSTACK, 9, STACK
        ARGFRAME IOVERLAY, 0, STATIC
        ARGFRAME DOVERLAY, 0, STATIC
        FUNCALL MT_ZdoCommandProcessing, MT_ZdoServiceDiscRequest
        LOCFRAME ISTACK, 0, STACK
        LOCFRAME PSTACK, 0, STACK
        LOCFRAME XSTACK, 9, STACK
        LOCFRAME IOVERLAY, 0, STATIC
        LOCFRAME DOVERLAY, 0, STATIC
        ARGFRAME ISTACK, 0, STACK
        ARGFRAME PSTACK, 0, STACK
        ARGFRAME XSTACK, 9, STACK
        ARGFRAME IOVERLAY, 0, STATIC
        ARGFRAME DOVERLAY, 0, STATIC
        FUNCALL MT_ZdoCommandProcessing, MT_ZdoEndDevBindRequest
        LOCFRAME ISTACK, 0, STACK
        LOCFRAME PSTACK, 0, STACK
        LOCFRAME XSTACK, 9, STACK
        LOCFRAME IOVERLAY, 0, STATIC
        LOCFRAME DOVERLAY, 0, STATIC
        ARGFRAME ISTACK, 0, STACK
        ARGFRAME PSTACK, 0, STACK
        ARGFRAME XSTACK, 9, STACK
        ARGFRAME IOVERLAY, 0, STATIC
        ARGFRAME DOVERLAY, 0, STATIC
        FUNCALL MT_ZdoCommandProcessing, MT_ZdoBindRequest
        LOCFRAME ISTACK, 0, STACK
        LOCFRAME PSTACK, 0, STACK
        LOCFRAME XSTACK, 9, STACK
        LOCFRAME IOVERLAY, 0, STATIC
        LOCFRAME DOVERLAY, 0, STATIC
        ARGFRAME ISTACK, 0, STACK
        ARGFRAME PSTACK, 0, STACK
        ARGFRAME XSTACK, 9, STACK
        ARGFRAME IOVERLAY, 0, STATIC
        ARGFRAME DOVERLAY, 0, STATIC
        FUNCALL MT_ZdoCommandProcessing, MT_ZdoUnbindRequest
        LOCFRAME ISTACK, 0, STACK
        LOCFRAME PSTACK, 0, STACK
        LOCFRAME XSTACK, 9, STACK
        LOCFRAME IOVERLAY, 0, STATIC
        LOCFRAME DOVERLAY, 0, STATIC
        ARGFRAME ISTACK, 0, STACK
        ARGFRAME PSTACK, 0, STACK
        ARGFRAME XSTACK, 9, STACK
        ARGFRAME IOVERLAY, 0, STATIC
        ARGFRAME DOVERLAY, 0, STATIC
        FUNCALL MT_ZdoCommandProcessing, MT_ZdoNetworkDiscoveryReq
        LOCFRAME ISTACK, 0, STACK
        LOCFRAME PSTACK, 0, STACK
        LOCFRAME XSTACK, 9, STACK
        LOCFRAME IOVERLAY, 0, STATIC
        LOCFRAME DOVERLAY, 0, STATIC
        ARGFRAME ISTACK, 0, STACK
        ARGFRAME PSTACK, 0, STACK
        ARGFRAME XSTACK, 9, STACK
        ARGFRAME IOVERLAY, 0, STATIC
        ARGFRAME DOVERLAY, 0, STATIC
        FUNCALL MT_ZdoCommandProcessing, MT_ZdoJoinReq
        LOCFRAME ISTACK, 0, STACK
        LOCFRAME PSTACK, 0, STACK
        LOCFRAME XSTACK, 9, STACK
        LOCFRAME IOVERLAY, 0, STATIC
        LOCFRAME DOVERLAY, 0, STATIC
        ARGFRAME ISTACK, 0, STACK
        ARGFRAME PSTACK, 0, STACK
        ARGFRAME XSTACK, 9, STACK
        ARGFRAME IOVERLAY, 0, STATIC
        ARGFRAME DOVERLAY, 0, STATIC
        FUNCALL MT_ZdoCommandProcessing, MT_ZdoStartupFromApp
        LOCFRAME ISTACK, 0, STACK
        LOCFRAME PSTACK, 0, STACK
        LOCFRAME XSTACK, 9, STACK
        LOCFRAME IOVERLAY, 0, STATIC
        LOCFRAME DOVERLAY, 0, STATIC
        ARGFRAME ISTACK, 0, STACK
        ARGFRAME PSTACK, 0, STACK
        ARGFRAME XSTACK, 9, STACK
        ARGFRAME IOVERLAY, 0, STATIC
        ARGFRAME DOVERLAY, 0, STATIC
        FUNCALL MT_ZdoCommandProcessing, MT_ZdoRegisterForZDOMsg
        LOCFRAME ISTACK, 0, STACK
        LOCFRAME PSTACK, 0, STACK
        LOCFRAME XSTACK, 9, STACK
        LOCFRAME IOVERLAY, 0, STATIC
        LOCFRAME DOVERLAY, 0, STATIC
        ARGFRAME ISTACK, 0, STACK
        ARGFRAME PSTACK, 0, STACK
        ARGFRAME XSTACK, 9, STACK
        ARGFRAME IOVERLAY, 0, STATIC
        ARGFRAME DOVERLAY, 0, STATIC
        FUNCALL MT_ZdoCommandProcessing, MT_ZdoRemoveRegisteredCB
        LOCFRAME ISTACK, 0, STACK
        LOCFRAME PSTACK, 0, STACK
        LOCFRAME XSTACK, 9, STACK
        LOCFRAME IOVERLAY, 0, STATIC
        LOCFRAME DOVERLAY, 0, STATIC
        ARGFRAME ISTACK, 0, STACK
        ARGFRAME PSTACK, 0, STACK
        ARGFRAME XSTACK, 9, STACK
        ARGFRAME IOVERLAY, 0, STATIC
        ARGFRAME DOVERLAY, 0, STATIC
        MOV       A,#-0x9
        LCALL     ?BANKED_ENTER_XDATA
          CFI DPH0 load(1, XDATA, add(CFA_XSP16, literal(-1)))
          CFI DPL0 load(1, XDATA, add(CFA_XSP16, literal(-2)))
          CFI ?BRET_EXT load(1, XDATA, add(CFA_XSP16, literal(-3)))
          CFI ?RET_HIGH load(1, XDATA, add(CFA_XSP16, literal(-4)))
          CFI ?RET_LOW load(1, XDATA, add(CFA_XSP16, literal(-5)))
          CFI R7 load(1, XDATA, add(CFA_XSP16, literal(-6)))
          CFI V0 load(1, XDATA, add(CFA_XSP16, literal(-7)))
          CFI VB load(1, XDATA, add(CFA_XSP16, literal(-8)))
          CFI R6 load(1, XDATA, add(CFA_XSP16, literal(-9)))
          CFI CFA_SP SP+0
          CFI CFA_XSP16 add(XSP16, 9)
        ; Saved register size: 9
        ; Auto size: 0
//  191   uint8 status = MT_RPC_SUCCESS;
        MOV       R6,#0x0
//  192 
//  193   switch (pBuf[MT_RPC_POS_CMD1])
        MOV       DPL,R2
        MOV       DPH,R3
        INC       DPTR
        INC       DPTR
        MOVX      A,@DPTR
        JZ        ??MT_ZdoCommandProcessing_0
        DEC       A
        JZ        ??MT_ZdoCommandProcessing_1
        DEC       A
        JZ        ??MT_ZdoCommandProcessing_2
        DEC       A
        JZ        ??MT_ZdoCommandProcessing_3
        DEC       A
        JZ        ??MT_ZdoCommandProcessing_4
        DEC       A
        JZ        ??MT_ZdoCommandProcessing_5
        DEC       A
        JZ        ??MT_ZdoCommandProcessing_6
        DEC       A
        JZ        ??MT_ZdoCommandProcessing_7
        DEC       A
        JZ        ??MT_ZdoCommandProcessing_8
        ADD       A,#-0x2
        JZ        ??MT_ZdoCommandProcessing_9
        DEC       A
        JZ        ??MT_ZdoCommandProcessing_10
        DEC       A
        JZ        ??MT_ZdoCommandProcessing_11
        ADD       A,#-0x14
        JZ        ??MT_ZdoCommandProcessing_12
        DEC       A
        JZ        ??MT_ZdoCommandProcessing_13
        DEC       A
        JZ        ??MT_ZdoCommandProcessing_14
        ADD       A,#-0x4
        JZ        ??MT_ZdoCommandProcessing_15
        DEC       A
        JZ        ??MT_ZdoCommandProcessing_16
        ADD       A,#-0x17
        JZ        ??MT_ZdoCommandProcessing_17
        DEC       A
        JZ        ??MT_ZdoCommandProcessing_18
        DEC       A
        JZ        ??MT_ZdoCommandProcessing_19
        SJMP      ??MT_ZdoCommandProcessing_20
//  194   {
//  195 #if defined ( ZDO_NWKADDR_REQUEST )
//  196     case MT_ZDO_NWK_ADDR_REQ:
//  197       MT_ZdoNWKAddressRequest(pBuf);
??MT_ZdoCommandProcessing_0:
        ; Setup parameters for call to function MT_ZdoNWKAddressRequest
        LCALL     `??MT_ZdoNWKAddressRequest::?relay`; Banked call to: MT_ZdoNWKAddressRequest
//  198       break;
        SJMP      ??MT_ZdoCommandProcessing_21
//  199 #endif
//  200 
//  201 #if defined ( ZDO_IEEEADDR_REQUEST )
//  202     case MT_ZDO_IEEE_ADDR_REQ:
//  203       MT_ZdoIEEEAddrRequest(pBuf);
??MT_ZdoCommandProcessing_1:
        ; Setup parameters for call to function MT_ZdoIEEEAddrRequest
        LCALL     `??MT_ZdoIEEEAddrRequest::?relay`; Banked call to: MT_ZdoIEEEAddrRequest
//  204       break;
        SJMP      ??MT_ZdoCommandProcessing_21
//  205 #endif
//  206 
//  207 #if defined ( ZDO_NODEDESC_REQUEST )
//  208     case MT_ZDO_NODE_DESC_REQ:
//  209       MT_ZdoNodeDescRequest(pBuf);
??MT_ZdoCommandProcessing_2:
        ; Setup parameters for call to function MT_ZdoNodeDescRequest
        LCALL     `??MT_ZdoNodeDescRequest::?relay`; Banked call to: MT_ZdoNodeDescRequest
//  210       break;
        SJMP      ??MT_ZdoCommandProcessing_21
//  211 #endif
//  212 
//  213 #if defined ( ZDO_POWERDESC_REQUEST )
//  214     case MT_ZDO_POWER_DESC_REQ:
//  215       MT_ZdoPowerDescRequest(pBuf);
??MT_ZdoCommandProcessing_3:
        ; Setup parameters for call to function MT_ZdoPowerDescRequest
        LCALL     `??MT_ZdoPowerDescRequest::?relay`; Banked call to: MT_ZdoPowerDescRequest
//  216       break;
        SJMP      ??MT_ZdoCommandProcessing_21
//  217 #endif
//  218 
//  219 #if defined ( ZDO_SIMPLEDESC_REQUEST )
//  220     case MT_ZDO_SIMPLE_DESC_REQ:
//  221       MT_ZdoSimpleDescRequest(pBuf);
??MT_ZdoCommandProcessing_4:
        ; Setup parameters for call to function MT_ZdoSimpleDescRequest
        LCALL     `??MT_ZdoSimpleDescRequest::?relay`; Banked call to: MT_ZdoSimpleDescRequest
//  222       break;
        SJMP      ??MT_ZdoCommandProcessing_21
//  223 #endif
//  224 
//  225 #if defined ( ZDO_ACTIVEEP_REQUEST )
//  226     case MT_ZDO_ACTIVE_EP_REQ:
//  227       MT_ZdoActiveEpRequest(pBuf);
??MT_ZdoCommandProcessing_5:
        ; Setup parameters for call to function MT_ZdoActiveEpRequest
        LCALL     `??MT_ZdoActiveEpRequest::?relay`; Banked call to: MT_ZdoActiveEpRequest
//  228       break;
        SJMP      ??MT_ZdoCommandProcessing_21
//  229 #endif
//  230 
//  231 #if defined ( ZDO_MATCH_REQUEST )
//  232     case MT_ZDO_MATCH_DESC_REQ:
//  233       MT_ZdoMatchDescRequest(pBuf);
??MT_ZdoCommandProcessing_6:
        ; Setup parameters for call to function MT_ZdoMatchDescRequest
        LCALL     `??MT_ZdoMatchDescRequest::?relay`; Banked call to: MT_ZdoMatchDescRequest
//  234       break;
        SJMP      ??MT_ZdoCommandProcessing_21
//  235 #endif
//  236 
//  237 #if defined ( ZDO_COMPLEXDESC_REQUEST )
//  238     case MT_ZDO_COMPLEX_DESC_REQ:
//  239       MT_ZdoComplexDescRequest(pBuf);
??MT_ZdoCommandProcessing_7:
        ; Setup parameters for call to function MT_ZdoComplexDescRequest
        LCALL     `??MT_ZdoComplexDescRequest::?relay`; Banked call to: MT_ZdoComplexDescRequest
//  240       break;
        SJMP      ??MT_ZdoCommandProcessing_21
//  241 #endif
//  242 
//  243 #if defined ( ZDO_USERDESC_REQUEST )
//  244     case MT_ZDO_USER_DESC_REQ:
//  245       MT_ZdoUserDescRequest(pBuf);
??MT_ZdoCommandProcessing_8:
        ; Setup parameters for call to function MT_ZdoUserDescRequest
        LCALL     `??MT_ZdoUserDescRequest::?relay`; Banked call to: MT_ZdoUserDescRequest
//  246       break;
        SJMP      ??MT_ZdoCommandProcessing_21
//  247 #endif
//  248 
//  249 #if defined ( ZDO_ENDDEVICE_ANNCE )
//  250     case MT_ZDO_END_DEV_ANNCE:
//  251       MT_ZdoEndDevAnnce(pBuf);
??MT_ZdoCommandProcessing_9:
        ; Setup parameters for call to function MT_ZdoEndDevAnnce
        LCALL     `??MT_ZdoEndDevAnnce::?relay`; Banked call to: MT_ZdoEndDevAnnce
//  252       break;
        SJMP      ??MT_ZdoCommandProcessing_21
//  253 #endif
//  254 
//  255 #if defined ( ZDO_USERDESCSET_REQUEST )
//  256     case MT_ZDO_USER_DESC_SET:
//  257       MT_ZdoUserDescSet(pBuf);
??MT_ZdoCommandProcessing_10:
        ; Setup parameters for call to function MT_ZdoUserDescSet
        LCALL     `??MT_ZdoUserDescSet::?relay`; Banked call to: MT_ZdoUserDescSet
//  258       break;
        SJMP      ??MT_ZdoCommandProcessing_21
//  259 #endif
//  260 
//  261 #if defined ( ZDO_SERVERDISC_REQUEST )
//  262     case MT_ZDO_SERVICE_DISC_REQ:
//  263       MT_ZdoServiceDiscRequest(pBuf);
??MT_ZdoCommandProcessing_11:
        ; Setup parameters for call to function MT_ZdoServiceDiscRequest
        LCALL     `??MT_ZdoServiceDiscRequest::?relay`; Banked call to: MT_ZdoServiceDiscRequest
//  264       break;
        SJMP      ??MT_ZdoCommandProcessing_21
//  265 #endif
//  266 
//  267 #if defined ( ZDO_ENDDEVICEBIND_REQUEST )
//  268     case MT_ZDO_END_DEV_BIND_REQ:
//  269       MT_ZdoEndDevBindRequest(pBuf);
??MT_ZdoCommandProcessing_12:
        ; Setup parameters for call to function MT_ZdoEndDevBindRequest
        LCALL     `??MT_ZdoEndDevBindRequest::?relay`; Banked call to: MT_ZdoEndDevBindRequest
//  270       break;
        SJMP      ??MT_ZdoCommandProcessing_21
//  271 #endif
//  272 
//  273 #if defined ( ZDO_BIND_UNBIND_REQUEST )
//  274     case MT_ZDO_BIND_REQ:
//  275       MT_ZdoBindRequest(pBuf);
??MT_ZdoCommandProcessing_13:
        ; Setup parameters for call to function MT_ZdoBindRequest
        LCALL     `??MT_ZdoBindRequest::?relay`; Banked call to: MT_ZdoBindRequest
//  276       break;
        SJMP      ??MT_ZdoCommandProcessing_21
//  277 #endif
//  278 
//  279 #if defined ( ZDO_BIND_UNBIND_REQUEST )
//  280     case MT_ZDO_UNBIND_REQ:
//  281       MT_ZdoUnbindRequest(pBuf);
??MT_ZdoCommandProcessing_14:
        ; Setup parameters for call to function MT_ZdoUnbindRequest
        LCALL     `??MT_ZdoUnbindRequest::?relay`; Banked call to: MT_ZdoUnbindRequest
//  282       break;
        SJMP      ??MT_ZdoCommandProcessing_21
//  283 #endif
//  284 
//  285 #if defined ( MT_SYS_KEY_MANAGEMENT )
//  286     case MT_ZDO_SET_LINK_KEY:
//  287       MT_ZdoSetLinkKey(pBuf);
//  288       break;
//  289 
//  290     case MT_ZDO_REMOVE_LINK_KEY:
//  291       MT_ZdoRemoveLinkKey(pBuf);
//  292       break;
//  293 
//  294     case MT_ZDO_GET_LINK_KEY:
//  295       MT_ZdoGetLinkKey(pBuf);
//  296       break;
//  297 #endif // MT_SYS_KEY_MANAGEMENT
//  298 
//  299 #if defined ( ZDO_MANUAL_JOIN )
//  300     case MT_ZDO_NWK_DISCOVERY_REQ:
//  301       MT_ZdoNetworkDiscoveryReq(pBuf);
??MT_ZdoCommandProcessing_15:
        ; Setup parameters for call to function MT_ZdoNetworkDiscoveryReq
        LCALL     `??MT_ZdoNetworkDiscoveryReq::?relay`; Banked call to: MT_ZdoNetworkDiscoveryReq
//  302       break;
        SJMP      ??MT_ZdoCommandProcessing_21
//  303 
//  304     case MT_ZDO_JOIN_REQ:
//  305       MT_ZdoJoinReq(pBuf);
??MT_ZdoCommandProcessing_16:
        ; Setup parameters for call to function MT_ZdoJoinReq
        LCALL     `??MT_ZdoJoinReq::?relay`; Banked call to: MT_ZdoJoinReq
//  306       break;
        SJMP      ??MT_ZdoCommandProcessing_21
//  307 #endif
//  308 
//  309 #if defined ( ZDO_MGMT_NWKDISC_REQUEST )
//  310     case MT_ZDO_MGMT_NWKDISC_REQ:
//  311       MT_ZdoMgmtNwkDiscRequest(pBuf);
//  312       break;
//  313 #endif
//  314 
//  315 #if defined ( ZDO_MGMT_LQI_REQUEST )
//  316     case MT_ZDO_MGMT_LQI_REQ:
//  317       MT_ZdoMgmtLqiRequest(pBuf);
//  318       break;
//  319 #endif
//  320 
//  321 #if defined ( ZDO_MGMT_RTG_REQUEST )
//  322     case MT_ZDO_MGMT_RTG_REQ:
//  323       MT_ZdoMgmtRtgRequest(pBuf);
//  324       break;
//  325 #endif
//  326 
//  327 #if defined ( ZDO_MGMT_BIND_REQUEST )
//  328     case MT_ZDO_MGMT_BIND_REQ:
//  329       MT_ZdoMgmtBindRequest(pBuf);
//  330       break;
//  331 #endif
//  332 
//  333 #if defined ( ZDO_MGMT_LEAVE_REQUEST )
//  334     case MT_ZDO_MGMT_LEAVE_REQ:
//  335       MT_ZdoMgmtLeaveRequest(pBuf);
//  336       break;
//  337 #endif
//  338 
//  339 #if defined ( ZDO_MGMT_JOINDIRECT_REQUEST )
//  340     case MT_ZDO_MGMT_DIRECT_JOIN_REQ:
//  341       MT_ZdoMgmtDirectJoinRequest(pBuf);
//  342       break;
//  343 #endif
//  344 
//  345 #if defined ( ZDO_MGMT_PERMIT_JOIN_REQUEST )
//  346     case MT_ZDO_MGMT_PERMIT_JOIN_REQ:
//  347       MT_ZdoMgmtPermitJoinRequest(pBuf);
//  348       break;
//  349 #endif
//  350 
//  351 #if defined ( ZDO_MGMT_NWKUPDATE_REQUEST )
//  352     case MT_ZDO_MGMT_NWK_UPDATE_REQ:
//  353       MT_ZdoMgmtNwkUpdateRequest(pBuf);
//  354       break;
//  355 #endif
//  356 
//  357 #if defined ( ZDO_NETWORKSTART_REQUEST )
//  358     case MT_ZDO_STARTUP_FROM_APP:
//  359       MT_ZdoStartupFromApp(pBuf);
??MT_ZdoCommandProcessing_19:
        ; Setup parameters for call to function MT_ZdoStartupFromApp
        LCALL     `??MT_ZdoStartupFromApp::?relay`; Banked call to: MT_ZdoStartupFromApp
//  360       break;
        SJMP      ??MT_ZdoCommandProcessing_21
//  361 #endif
//  362 
//  363     case MT_ZDO_MSG_CB_REGISTER:
//  364       MT_ZdoRegisterForZDOMsg(pBuf);
??MT_ZdoCommandProcessing_17:
        ; Setup parameters for call to function MT_ZdoRegisterForZDOMsg
        LCALL     `??MT_ZdoRegisterForZDOMsg::?relay`; Banked call to: MT_ZdoRegisterForZDOMsg
//  365       break;
        SJMP      ??MT_ZdoCommandProcessing_21
//  366 
//  367     case MT_ZDO_MSG_CB_REMOVE:
//  368       MT_ZdoRemoveRegisteredCB(pBuf);
??MT_ZdoCommandProcessing_18:
        ; Setup parameters for call to function MT_ZdoRemoveRegisteredCB
        LCALL     `??MT_ZdoRemoveRegisteredCB::?relay`; Banked call to: MT_ZdoRemoveRegisteredCB
//  369       break;
        SJMP      ??MT_ZdoCommandProcessing_21
//  370 
//  371     default:
//  372       status = MT_RPC_ERR_COMMAND_ID;
??MT_ZdoCommandProcessing_20:
        MOV       R6,#0x2
//  373       break;
//  374   }
//  375 
//  376   return status;
??MT_ZdoCommandProcessing_21:
        MOV       A,R6
        MOV       R1,A
        LJMP      ??Subroutine65_0 & 0xFFFF
//  377 }
          CFI EndBlock cfiBlock1
//  378 
//  379 /***************************************************************************************************
//  380  * @fn      MT_ZdoNwkAddrReq
//  381  *
//  382  * @brief   Handle a nwk address request.
//  383  *
//  384  * @param   pData  - MT message data
//  385  *
//  386  * @return  void
//  387  ***************************************************************************************************/

        RSEG BANKED_CODE:HUGECODE:NOROOT(0)
//  388 void MT_ZdoNWKAddressRequest(uint8 *pBuf)
MT_ZdoNWKAddressRequest:
          CFI Block cfiBlock2 Using cfiCommon0
          CFI Function MT_ZdoNWKAddressRequest
        CODE
//  389 {
        FUNCALL MT_ZdoNWKAddressRequest, ZDP_NwkAddrReq
        LOCFRAME ISTACK, 0, STACK
        LOCFRAME PSTACK, 0, STACK
        LOCFRAME XSTACK, 11, STACK
        LOCFRAME IOVERLAY, 0, STATIC
        LOCFRAME DOVERLAY, 0, STATIC
        ARGFRAME ISTACK, 0, STACK
        ARGFRAME PSTACK, 0, STACK
        ARGFRAME XSTACK, 11, STACK
        ARGFRAME IOVERLAY, 0, STATIC
        ARGFRAME DOVERLAY, 0, STATIC
        FUNCALL MT_ZdoNWKAddressRequest, MT_BuildAndSendZToolResponse
        LOCFRAME ISTACK, 0, STACK
        LOCFRAME PSTACK, 0, STACK
        LOCFRAME XSTACK, 11, STACK
        LOCFRAME IOVERLAY, 0, STATIC
        LOCFRAME DOVERLAY, 0, STATIC
        ARGFRAME ISTACK, 0, STACK
        ARGFRAME PSTACK, 0, STACK
        ARGFRAME XSTACK, 11, STACK
        ARGFRAME IOVERLAY, 0, STATIC
        ARGFRAME DOVERLAY, 0, STATIC
        REQUIRE ?V0
        REQUIRE ?V1
        MOV       A,#-0xa
        LCALL     ?BANKED_ENTER_XDATA
          CFI DPH0 load(1, XDATA, add(CFA_XSP16, literal(-1)))
          CFI DPL0 load(1, XDATA, add(CFA_XSP16, literal(-2)))
          CFI ?BRET_EXT load(1, XDATA, add(CFA_XSP16, literal(-3)))
          CFI ?RET_HIGH load(1, XDATA, add(CFA_XSP16, literal(-4)))
          CFI ?RET_LOW load(1, XDATA, add(CFA_XSP16, literal(-5)))
          CFI R7 load(1, XDATA, add(CFA_XSP16, literal(-6)))
          CFI V1 load(1, XDATA, add(CFA_XSP16, literal(-7)))
          CFI V0 load(1, XDATA, add(CFA_XSP16, literal(-8)))
          CFI VB load(1, XDATA, add(CFA_XSP16, literal(-9)))
          CFI R6 load(1, XDATA, add(CFA_XSP16, literal(-10)))
          CFI CFA_SP SP+0
          CFI CFA_XSP16 add(XSP16, 10)
        ; Saved register size: 10
        ; Auto size: 1
        MOV       A,#-0x1
        LCALL     ?ALLOC_XSTACK8
          CFI CFA_XSP16 add(XSP16, 11)
//  390   uint8 cmdId;
//  391   uint8 retValue;
//  392   uint8 reqType;
//  393   uint8 startIndex;
//  394   uint8 *pExtAddr;
//  395 
//  396   /* parse header */
//  397   cmdId = pBuf[MT_RPC_POS_CMD1];
        MOV       DPL,R2
        MOV       DPH,R3
        INC       DPTR
        INC       DPTR
        MOVX      A,@DPTR
        MOV       R6,A
//  398   pBuf += MT_RPC_FRAME_HDR_SZ;
//  399 
//  400   /* parse parameters */
//  401   pExtAddr = pBuf;
        MOV       A,R2
        ADD       A,#0x3
        MOV       ?V0,A
        CLR       A
        ADDC      A,R3
        MOV       ?V1,A
//  402   pBuf += Z_EXTADDR_LEN;
        MOV       A,?V0
        ADD       A,#0x8
        MOV       R2,A
        CLR       A
        ADDC      A,?V1
        MOV       R3,A
//  403 
//  404   /* Request type */
//  405   reqType = *pBuf++;
//  406 
//  407   /* Start index */
//  408   startIndex = *pBuf;
//  409 
//  410   retValue = (uint8)ZDP_NwkAddrReq(pExtAddr, reqType, startIndex, 0);
        ; Setup parameters for call to function ZDP_NwkAddrReq
        MOV       R5,#0x0
        MOV       DPL,R2
        MOV       DPH,R3
        INC       DPTR
        MOVX      A,@DPTR
        MOV       R4,A
        MOV       DPL,R2
        MOV       DPH,R3
        MOVX      A,@DPTR
        MOV       R1,A
        MOV       R2,?V0
        MOV       R3,?V1
        LCALL     `??ZDP_NwkAddrReq::?relay`; Banked call to: ZDP_NwkAddrReq
          CFI EndBlock cfiBlock2
        REQUIRE ?Subroutine1
        ; // Fall through to label ?Subroutine1
//  411 
//  412   /* Build and send back the response */
//  413   MT_BuildAndSendZToolResponse(((uint8)MT_RPC_CMD_SRSP | (uint8)MT_RPC_SYS_ZDO), cmdId, 1, &retValue);
//  414 }

        RSEG BANKED_CODE:HUGECODE:NOROOT(0)
?Subroutine1:
          CFI Block cfiBlock3 Using cfiCommon0
          CFI NoFunction
          CFI CFA_SP SP+0
          CFI CFA_XSP16 add(XSP16, 11)
          CFI VB load(1, XDATA, add(CFA_XSP16, literal(-9)))
          CFI DPL0 load(1, XDATA, add(CFA_XSP16, literal(-2)))
          CFI DPH0 load(1, XDATA, add(CFA_XSP16, literal(-1)))
          CFI R6 load(1, XDATA, add(CFA_XSP16, literal(-10)))
          CFI R7 load(1, XDATA, add(CFA_XSP16, literal(-6)))
          CFI V0 load(1, XDATA, add(CFA_XSP16, literal(-8)))
          CFI V1 load(1, XDATA, add(CFA_XSP16, literal(-7)))
          CFI ?BRET_EXT load(1, XDATA, add(CFA_XSP16, literal(-3)))
          CFI ?RET_HIGH load(1, XDATA, add(CFA_XSP16, literal(-4)))
          CFI ?RET_LOW load(1, XDATA, add(CFA_XSP16, literal(-5)))
        LCALL     ?Subroutine32 & 0xFFFF
??CrossCallReturnLabel_128:
        LCALL     `??MT_BuildAndSendZToolResponse::?relay`; Banked call to: MT_BuildAndSendZToolResponse
        MOV       A,#0x1
        LCALL     ?DEALLOC_XSTACK8
          CFI CFA_XSP16 add(XSP16, 10)
        MOV       R7,#0x2
        LJMP      ?BANKED_LEAVE_XDATA
          CFI EndBlock cfiBlock3
//  415 
//  416 /***************************************************************************************************
//  417  * @fn      MT_ZdoIEEEAddrRequest
//  418  *
//  419  * @brief   Handle a IEEE address request.
//  420  *
//  421  * @param   pData  - MT message data
//  422  *
//  423  * @return  void
//  424  ***************************************************************************************************/

        RSEG BANKED_CODE:HUGECODE:NOROOT(0)
//  425 void MT_ZdoIEEEAddrRequest (uint8 *pBuf)
MT_ZdoIEEEAddrRequest:
          CFI Block cfiBlock4 Using cfiCommon0
          CFI Function MT_ZdoIEEEAddrRequest
        CODE
//  426 {
        FUNCALL MT_ZdoIEEEAddrRequest, ZDP_IEEEAddrReq
        LOCFRAME ISTACK, 0, STACK
        LOCFRAME PSTACK, 0, STACK
        LOCFRAME XSTACK, 11, STACK
        LOCFRAME IOVERLAY, 0, STATIC
        LOCFRAME DOVERLAY, 0, STATIC
        ARGFRAME ISTACK, 0, STACK
        ARGFRAME PSTACK, 0, STACK
        ARGFRAME XSTACK, 11, STACK
        ARGFRAME IOVERLAY, 0, STATIC
        ARGFRAME DOVERLAY, 0, STATIC
        FUNCALL MT_ZdoIEEEAddrRequest, MT_BuildAndSendZToolResponse
        LOCFRAME ISTACK, 0, STACK
        LOCFRAME PSTACK, 0, STACK
        LOCFRAME XSTACK, 11, STACK
        LOCFRAME IOVERLAY, 0, STATIC
        LOCFRAME DOVERLAY, 0, STATIC
        ARGFRAME ISTACK, 0, STACK
        ARGFRAME PSTACK, 0, STACK
        ARGFRAME XSTACK, 11, STACK
        ARGFRAME IOVERLAY, 0, STATIC
        ARGFRAME DOVERLAY, 0, STATIC
        REQUIRE ?V0
        REQUIRE ?V1
        MOV       A,#-0xa
        LCALL     ?BANKED_ENTER_XDATA
          CFI DPH0 load(1, XDATA, add(CFA_XSP16, literal(-1)))
          CFI DPL0 load(1, XDATA, add(CFA_XSP16, literal(-2)))
          CFI ?BRET_EXT load(1, XDATA, add(CFA_XSP16, literal(-3)))
          CFI ?RET_HIGH load(1, XDATA, add(CFA_XSP16, literal(-4)))
          CFI ?RET_LOW load(1, XDATA, add(CFA_XSP16, literal(-5)))
          CFI R7 load(1, XDATA, add(CFA_XSP16, literal(-6)))
          CFI V1 load(1, XDATA, add(CFA_XSP16, literal(-7)))
          CFI V0 load(1, XDATA, add(CFA_XSP16, literal(-8)))
          CFI VB load(1, XDATA, add(CFA_XSP16, literal(-9)))
          CFI R6 load(1, XDATA, add(CFA_XSP16, literal(-10)))
          CFI CFA_SP SP+0
          CFI CFA_XSP16 add(XSP16, 10)
        ; Saved register size: 10
        ; Auto size: 1
        MOV       A,#-0x1
        LCALL     ?ALLOC_XSTACK8
          CFI CFA_XSP16 add(XSP16, 11)
//  427   uint8 cmdId;
//  428   uint8 retValue;
//  429   uint16 shortAddr;
//  430   uint8 reqType;
//  431   uint8 startIndex;
//  432 
//  433   /* parse header */
//  434   cmdId = pBuf[MT_RPC_POS_CMD1];
        LCALL     ??Subroutine61_0 & 0xFFFF
//  435   pBuf += MT_RPC_FRAME_HDR_SZ;
??CrossCallReturnLabel_120:
        JNC       ??MT_ZdoIEEEAddrRequest_0
        INC       R3
//  436 
//  437   /* Dev address */
//  438   shortAddr = BUILD_UINT16(pBuf[0], pBuf[1]);
//  439   pBuf += 2;
//  440 
//  441   /* request type */
//  442   reqType = *pBuf++;
//  443 
//  444   /* start index */
//  445   startIndex = *pBuf;
//  446 
//  447   retValue = (uint8)ZDP_IEEEAddrReq(shortAddr, reqType, startIndex, 0);
??MT_ZdoIEEEAddrRequest_0:
        ; Setup parameters for call to function ZDP_IEEEAddrReq
        MOV       R5,#0x0
        MOV       DPL,R2
        MOV       DPH,R3
        INC       DPTR
        INC       DPTR
        INC       DPTR
        MOVX      A,@DPTR
        MOV       R4,A
        MOV       DPL,R2
        MOV       DPH,R3
        INC       DPTR
        INC       DPTR
        MOVX      A,@DPTR
        MOV       R1,A
        MOV       DPL,R2
        MOV       DPH,R3
        LCALL     ?Subroutine17 & 0xFFFF
??CrossCallReturnLabel_21:
        LCALL     `??ZDP_IEEEAddrReq::?relay`; Banked call to: ZDP_IEEEAddrReq
        SJMP      ?Subroutine1
//  448 
//  449   MT_BuildAndSendZToolResponse(((uint8)MT_RPC_CMD_SRSP | (uint8)MT_RPC_SYS_ZDO), cmdId, 1, &retValue);
//  450 }
          CFI EndBlock cfiBlock4
//  451 
//  452 /***************************************************************************************************
//  453  * @fn      MT_ZdoNodeDescRequest
//  454  *
//  455  * @brief   Handle a Node Descriptor request.
//  456  *
//  457  * @param   pData  - MT message data
//  458  *
//  459  * @return  void
//  460  ***************************************************************************************************/

        RSEG BANKED_CODE:HUGECODE:NOROOT(0)
//  461 void MT_ZdoNodeDescRequest (uint8 *pBuf)
MT_ZdoNodeDescRequest:
          CFI Block cfiBlock5 Using cfiCommon0
          CFI Function MT_ZdoNodeDescRequest
        CODE
//  462 {
        FUNCALL MT_ZdoNodeDescRequest, ZDP_NWKAddrOfInterestReq
        LOCFRAME ISTACK, 0, STACK
        LOCFRAME PSTACK, 0, STACK
        LOCFRAME XSTACK, 20, STACK
        LOCFRAME IOVERLAY, 0, STATIC
        LOCFRAME DOVERLAY, 0, STATIC
        ARGFRAME ISTACK, 0, STACK
        ARGFRAME PSTACK, 0, STACK
        ARGFRAME XSTACK, 20, STACK
        ARGFRAME IOVERLAY, 0, STATIC
        ARGFRAME DOVERLAY, 0, STATIC
        FUNCALL MT_ZdoNodeDescRequest, MT_BuildAndSendZToolResponse
        LOCFRAME ISTACK, 0, STACK
        LOCFRAME PSTACK, 0, STACK
        LOCFRAME XSTACK, 19, STACK
        LOCFRAME IOVERLAY, 0, STATIC
        LOCFRAME DOVERLAY, 0, STATIC
        ARGFRAME ISTACK, 0, STACK
        ARGFRAME PSTACK, 0, STACK
        ARGFRAME XSTACK, 19, STACK
        ARGFRAME IOVERLAY, 0, STATIC
        ARGFRAME DOVERLAY, 0, STATIC
        REQUIRE ?V0
        MOV       A,#-0x9
        LCALL     ?BANKED_ENTER_XDATA
          CFI DPH0 load(1, XDATA, add(CFA_XSP16, literal(-1)))
          CFI DPL0 load(1, XDATA, add(CFA_XSP16, literal(-2)))
          CFI ?BRET_EXT load(1, XDATA, add(CFA_XSP16, literal(-3)))
          CFI ?RET_HIGH load(1, XDATA, add(CFA_XSP16, literal(-4)))
          CFI ?RET_LOW load(1, XDATA, add(CFA_XSP16, literal(-5)))
          CFI R7 load(1, XDATA, add(CFA_XSP16, literal(-6)))
          CFI V0 load(1, XDATA, add(CFA_XSP16, literal(-7)))
          CFI VB load(1, XDATA, add(CFA_XSP16, literal(-8)))
          CFI R6 load(1, XDATA, add(CFA_XSP16, literal(-9)))
          CFI CFA_SP SP+0
          CFI CFA_XSP16 add(XSP16, 9)
        ; Saved register size: 9
        ; Auto size: 10
        MOV       A,#-0xa
        LCALL     ?ALLOC_XSTACK8
          CFI CFA_XSP16 add(XSP16, 19)
//  463   uint8 cmdId;
//  464   uint8 retValue;
//  465   zAddrType_t destAddr;
//  466   uint16 shortAddr;
//  467 
//  468   /* parse header */
//  469   cmdId = pBuf[MT_RPC_POS_CMD1];
        LCALL     ??Subroutine61_0 & 0xFFFF
//  470   pBuf += MT_RPC_FRAME_HDR_SZ;
??CrossCallReturnLabel_121:
        JNC       ??MT_ZdoNodeDescRequest_0
        INC       R3
//  471 
//  472   /* Destination address */
//  473   destAddr.addrMode = Addr16Bit;
??MT_ZdoNodeDescRequest_0:
        MOV       A,#0x9
        LCALL     ?XSTACK_DISP0_8
        LCALL     ?Subroutine6 & 0xFFFF
//  474   destAddr.addr.shortAddr = BUILD_UINT16( pBuf[0], pBuf[1] );
??CrossCallReturnLabel_0:
        LCALL     ?XSTACK_DISP0_8
        LCALL     ?Subroutine31 & 0xFFFF
//  475   pBuf += 2;
??CrossCallReturnLabel_48:
        JNC       ??MT_ZdoNodeDescRequest_1
        INC       R3
//  476 
//  477   /* Network address of interest */
//  478   shortAddr = BUILD_UINT16( pBuf[0], pBuf[1] );
//  479   pBuf += 2;
//  480 
//  481   retValue = (uint8)ZDP_NodeDescReq( &destAddr, shortAddr, 0);
??MT_ZdoNodeDescRequest_1:
        ; Setup parameters for call to function ZDP_NWKAddrOfInterestReq
        MOV       ?V0,#0x0
        MOV       R0,#?V0
        LCALL     ?PUSH_XSTACK_I_ONE
          CFI CFA_XSP16 add(XSP16, 20)
        MOV       R1,#0x2
        MOV       DPL,R2
        MOV       DPH,R3
        LCALL     ?Subroutine16 & 0xFFFF
??CrossCallReturnLabel_19:
        MOV       A,R1
        LJMP      ??Subroutine62_0 & 0xFFFF
//  482 
//  483   MT_BuildAndSendZToolResponse(((uint8)MT_RPC_CMD_SRSP | (uint8)MT_RPC_SYS_ZDO), cmdId, 1, &retValue);
//  484 }
          CFI EndBlock cfiBlock5
//  485 
//  486 /***************************************************************************************************
//  487  * @fn      MT_ZdoPowerDescRequest
//  488  *
//  489  * @brief   Handle a Power Descriptor request.
//  490  *
//  491  * @param   pData  - MT message data
//  492  *
//  493  * @return  void
//  494  ***************************************************************************************************/

        RSEG BANKED_CODE:HUGECODE:NOROOT(0)
//  495 void MT_ZdoPowerDescRequest(uint8 *pBuf)
MT_ZdoPowerDescRequest:
          CFI Block cfiBlock6 Using cfiCommon0
          CFI Function MT_ZdoPowerDescRequest
        CODE
//  496 {
        FUNCALL MT_ZdoPowerDescRequest, ZDP_NWKAddrOfInterestReq
        LOCFRAME ISTACK, 0, STACK
        LOCFRAME PSTACK, 0, STACK
        LOCFRAME XSTACK, 20, STACK
        LOCFRAME IOVERLAY, 0, STATIC
        LOCFRAME DOVERLAY, 0, STATIC
        ARGFRAME ISTACK, 0, STACK
        ARGFRAME PSTACK, 0, STACK
        ARGFRAME XSTACK, 20, STACK
        ARGFRAME IOVERLAY, 0, STATIC
        ARGFRAME DOVERLAY, 0, STATIC
        FUNCALL MT_ZdoPowerDescRequest, MT_BuildAndSendZToolResponse
        LOCFRAME ISTACK, 0, STACK
        LOCFRAME PSTACK, 0, STACK
        LOCFRAME XSTACK, 19, STACK
        LOCFRAME IOVERLAY, 0, STATIC
        LOCFRAME DOVERLAY, 0, STATIC
        ARGFRAME ISTACK, 0, STACK
        ARGFRAME PSTACK, 0, STACK
        ARGFRAME XSTACK, 19, STACK
        ARGFRAME IOVERLAY, 0, STATIC
        ARGFRAME DOVERLAY, 0, STATIC
        REQUIRE ?V0
        MOV       A,#-0x9
        LCALL     ?BANKED_ENTER_XDATA
          CFI DPH0 load(1, XDATA, add(CFA_XSP16, literal(-1)))
          CFI DPL0 load(1, XDATA, add(CFA_XSP16, literal(-2)))
          CFI ?BRET_EXT load(1, XDATA, add(CFA_XSP16, literal(-3)))
          CFI ?RET_HIGH load(1, XDATA, add(CFA_XSP16, literal(-4)))
          CFI ?RET_LOW load(1, XDATA, add(CFA_XSP16, literal(-5)))
          CFI R7 load(1, XDATA, add(CFA_XSP16, literal(-6)))
          CFI V0 load(1, XDATA, add(CFA_XSP16, literal(-7)))
          CFI VB load(1, XDATA, add(CFA_XSP16, literal(-8)))
          CFI R6 load(1, XDATA, add(CFA_XSP16, literal(-9)))
          CFI CFA_SP SP+0
          CFI CFA_XSP16 add(XSP16, 9)
        ; Saved register size: 9
        ; Auto size: 10
        MOV       A,#-0xa
        LCALL     ?ALLOC_XSTACK8
          CFI CFA_XSP16 add(XSP16, 19)
//  497   uint8 cmdId;
//  498   uint8 retValue;
//  499   zAddrType_t destAddr;
//  500   uint16 shortAddr;
//  501 
//  502   /* parse header */
//  503   cmdId = pBuf[MT_RPC_POS_CMD1];
        LCALL     ??Subroutine61_0 & 0xFFFF
//  504   pBuf += MT_RPC_FRAME_HDR_SZ;
??CrossCallReturnLabel_122:
        JNC       ??MT_ZdoPowerDescRequest_0
        INC       R3
//  505 
//  506   /* Dev address */
//  507   destAddr.addrMode = Addr16Bit;
??MT_ZdoPowerDescRequest_0:
        MOV       A,#0x9
        LCALL     ?XSTACK_DISP0_8
        LCALL     ?Subroutine6 & 0xFFFF
//  508   destAddr.addr.shortAddr = BUILD_UINT16( pBuf[0], pBuf[1] );
??CrossCallReturnLabel_1:
        LCALL     ?XSTACK_DISP0_8
        LCALL     ?Subroutine31 & 0xFFFF
//  509   pBuf += 2;
??CrossCallReturnLabel_49:
        JNC       ??MT_ZdoPowerDescRequest_1
        INC       R3
//  510 
//  511   /* Network address of interest */
//  512   shortAddr = BUILD_UINT16( pBuf[0], pBuf[1] );
//  513   pBuf += 2;
//  514 
//  515   retValue = (uint8)ZDP_PowerDescReq( &destAddr, shortAddr, 0);
??MT_ZdoPowerDescRequest_1:
        ; Setup parameters for call to function ZDP_NWKAddrOfInterestReq
        MOV       ?V0,#0x0
        MOV       R0,#?V0
        LCALL     ?PUSH_XSTACK_I_ONE
          CFI CFA_XSP16 add(XSP16, 20)
        MOV       R1,#0x3
        LJMP      ?Subroutine0 & 0xFFFF
//  516 
//  517   MT_BuildAndSendZToolResponse(((uint8)MT_RPC_CMD_SRSP | (uint8)MT_RPC_SYS_ZDO), cmdId, 1, &retValue);
//  518 }
          CFI EndBlock cfiBlock6
//  519 
//  520 /***************************************************************************************************
//  521  * @fn      MT_ZdoSimpleDescRequest
//  522  *
//  523  * @brief   Handle a Simple Descriptor request.
//  524  *
//  525  * @param   pBuf  - MT message data
//  526  *
//  527  * @return  void
//  528  ***************************************************************************************************/

        RSEG BANKED_CODE:HUGECODE:NOROOT(0)
//  529 void MT_ZdoSimpleDescRequest(uint8 *pBuf)
MT_ZdoSimpleDescRequest:
          CFI Block cfiBlock7 Using cfiCommon0
          CFI Function MT_ZdoSimpleDescRequest
        CODE
//  530 {
        FUNCALL MT_ZdoSimpleDescRequest, ZDP_SimpleDescReq
        LOCFRAME ISTACK, 0, STACK
        LOCFRAME PSTACK, 0, STACK
        LOCFRAME XSTACK, 20, STACK
        LOCFRAME IOVERLAY, 0, STATIC
        LOCFRAME DOVERLAY, 0, STATIC
        ARGFRAME ISTACK, 0, STACK
        ARGFRAME PSTACK, 0, STACK
        ARGFRAME XSTACK, 20, STACK
        ARGFRAME IOVERLAY, 0, STATIC
        ARGFRAME DOVERLAY, 0, STATIC
        FUNCALL MT_ZdoSimpleDescRequest, MT_BuildAndSendZToolResponse
        LOCFRAME ISTACK, 0, STACK
        LOCFRAME PSTACK, 0, STACK
        LOCFRAME XSTACK, 19, STACK
        LOCFRAME IOVERLAY, 0, STATIC
        LOCFRAME DOVERLAY, 0, STATIC
        ARGFRAME ISTACK, 0, STACK
        ARGFRAME PSTACK, 0, STACK
        ARGFRAME XSTACK, 19, STACK
        ARGFRAME IOVERLAY, 0, STATIC
        ARGFRAME DOVERLAY, 0, STATIC
        REQUIRE ?V0
        MOV       A,#-0x9
        LCALL     ?BANKED_ENTER_XDATA
          CFI DPH0 load(1, XDATA, add(CFA_XSP16, literal(-1)))
          CFI DPL0 load(1, XDATA, add(CFA_XSP16, literal(-2)))
          CFI ?BRET_EXT load(1, XDATA, add(CFA_XSP16, literal(-3)))
          CFI ?RET_HIGH load(1, XDATA, add(CFA_XSP16, literal(-4)))
          CFI ?RET_LOW load(1, XDATA, add(CFA_XSP16, literal(-5)))
          CFI R7 load(1, XDATA, add(CFA_XSP16, literal(-6)))
          CFI V0 load(1, XDATA, add(CFA_XSP16, literal(-7)))
          CFI VB load(1, XDATA, add(CFA_XSP16, literal(-8)))
          CFI R6 load(1, XDATA, add(CFA_XSP16, literal(-9)))
          CFI CFA_SP SP+0
          CFI CFA_XSP16 add(XSP16, 9)
        ; Saved register size: 9
        ; Auto size: 10
        MOV       A,#-0xa
        LCALL     ?ALLOC_XSTACK8
          CFI CFA_XSP16 add(XSP16, 19)
//  531   uint8 cmdId;
//  532   uint8 retValue;
//  533   uint8 epInt;
//  534   zAddrType_t destAddr;
//  535   uint16 shortAddr;
//  536 
//  537   /* parse header */
//  538   cmdId = pBuf[MT_RPC_POS_CMD1];
        LCALL     ??Subroutine61_0 & 0xFFFF
//  539   pBuf += MT_RPC_FRAME_HDR_SZ;
??CrossCallReturnLabel_123:
        JNC       ??MT_ZdoSimpleDescRequest_0
        INC       R3
//  540 
//  541   /* Dev address */
//  542   destAddr.addrMode = Addr16Bit;
??MT_ZdoSimpleDescRequest_0:
        MOV       A,#0x9
        LCALL     ?XSTACK_DISP0_8
        LCALL     ?Subroutine6 & 0xFFFF
//  543   destAddr.addr.shortAddr = BUILD_UINT16( pBuf[0], pBuf[1] );
??CrossCallReturnLabel_2:
        LCALL     ?XSTACK_DISP0_8
        LCALL     ?Subroutine31 & 0xFFFF
//  544   pBuf += 2;
??CrossCallReturnLabel_50:
        JNC       ??MT_ZdoSimpleDescRequest_1
        INC       R3
//  545 
//  546   /* Network address of interest */
//  547   shortAddr = BUILD_UINT16( pBuf[0], pBuf[1] );
//  548   pBuf += 2;
//  549 
//  550   /* endpoint/interface */
//  551   epInt = *pBuf++;
//  552 
//  553   retValue = (uint8)ZDP_SimpleDescReq( &destAddr, shortAddr, epInt, 0);
??MT_ZdoSimpleDescRequest_1:
        ; Setup parameters for call to function ZDP_SimpleDescReq
        MOV       ?V0,#0x0
        MOV       R0,#?V0
        LCALL     ?PUSH_XSTACK_I_ONE
          CFI CFA_XSP16 add(XSP16, 20)
        MOV       DPL,R2
        MOV       DPH,R3
        INC       DPTR
        INC       DPTR
        MOVX      A,@DPTR
        MOV       R1,A
        LCALL     ?Subroutine12 & 0xFFFF
??CrossCallReturnLabel_15:
        LCALL     ?XSTACK_DISP101_8
        LCALL     `??ZDP_SimpleDescReq::?relay`; Banked call to: ZDP_SimpleDescReq
        LJMP      ??Subroutine63_0 & 0xFFFF
//  554 
//  555   MT_BuildAndSendZToolResponse(((uint8)MT_RPC_CMD_SRSP | (uint8)MT_RPC_SYS_ZDO), cmdId, 1, &retValue);
//  556 }
          CFI EndBlock cfiBlock7
//  557 
//  558 /***************************************************************************************************
//  559  * @fn      MT_ZdoActiveEpRequest
//  560  *
//  561  * @brief   Handle a Active EP request.
//  562  *
//  563  * @param   pBuf  - MT message data
//  564  *
//  565  * @return  void
//  566  ***************************************************************************************************/

        RSEG BANKED_CODE:HUGECODE:NOROOT(0)
//  567 void MT_ZdoActiveEpRequest(uint8 *pBuf)
MT_ZdoActiveEpRequest:
          CFI Block cfiBlock8 Using cfiCommon0
          CFI Function MT_ZdoActiveEpRequest
        CODE
//  568 {
        FUNCALL MT_ZdoActiveEpRequest, ZDP_NWKAddrOfInterestReq
        LOCFRAME ISTACK, 0, STACK
        LOCFRAME PSTACK, 0, STACK
        LOCFRAME XSTACK, 20, STACK
        LOCFRAME IOVERLAY, 0, STATIC
        LOCFRAME DOVERLAY, 0, STATIC
        ARGFRAME ISTACK, 0, STACK
        ARGFRAME PSTACK, 0, STACK
        ARGFRAME XSTACK, 20, STACK
        ARGFRAME IOVERLAY, 0, STATIC
        ARGFRAME DOVERLAY, 0, STATIC
        FUNCALL MT_ZdoActiveEpRequest, MT_BuildAndSendZToolResponse
        LOCFRAME ISTACK, 0, STACK
        LOCFRAME PSTACK, 0, STACK
        LOCFRAME XSTACK, 19, STACK
        LOCFRAME IOVERLAY, 0, STATIC
        LOCFRAME DOVERLAY, 0, STATIC
        ARGFRAME ISTACK, 0, STACK
        ARGFRAME PSTACK, 0, STACK
        ARGFRAME XSTACK, 19, STACK
        ARGFRAME IOVERLAY, 0, STATIC
        ARGFRAME DOVERLAY, 0, STATIC
        REQUIRE ?V0
        MOV       A,#-0x9
        LCALL     ?BANKED_ENTER_XDATA
          CFI DPH0 load(1, XDATA, add(CFA_XSP16, literal(-1)))
          CFI DPL0 load(1, XDATA, add(CFA_XSP16, literal(-2)))
          CFI ?BRET_EXT load(1, XDATA, add(CFA_XSP16, literal(-3)))
          CFI ?RET_HIGH load(1, XDATA, add(CFA_XSP16, literal(-4)))
          CFI ?RET_LOW load(1, XDATA, add(CFA_XSP16, literal(-5)))
          CFI R7 load(1, XDATA, add(CFA_XSP16, literal(-6)))
          CFI V0 load(1, XDATA, add(CFA_XSP16, literal(-7)))
          CFI VB load(1, XDATA, add(CFA_XSP16, literal(-8)))
          CFI R6 load(1, XDATA, add(CFA_XSP16, literal(-9)))
          CFI CFA_SP SP+0
          CFI CFA_XSP16 add(XSP16, 9)
        ; Saved register size: 9
        ; Auto size: 10
        MOV       A,#-0xa
        LCALL     ?ALLOC_XSTACK8
          CFI CFA_XSP16 add(XSP16, 19)
//  569   uint8 cmdId;
//  570   uint8 retValue;
//  571   zAddrType_t destAddr;
//  572   uint16 shortAddr;
//  573 
//  574   /* parse header */
//  575   cmdId = pBuf[MT_RPC_POS_CMD1];
        LCALL     ??Subroutine61_0 & 0xFFFF
//  576   pBuf += MT_RPC_FRAME_HDR_SZ;
??CrossCallReturnLabel_124:
        JNC       ??MT_ZdoActiveEpRequest_0
        INC       R3
//  577 
//  578   /* Dev address */
//  579   destAddr.addrMode = Addr16Bit;
??MT_ZdoActiveEpRequest_0:
        MOV       A,#0x9
        LCALL     ?XSTACK_DISP0_8
        LCALL     ?Subroutine6 & 0xFFFF
//  580   destAddr.addr.shortAddr = BUILD_UINT16( pBuf[0], pBuf[1] );
??CrossCallReturnLabel_3:
        LCALL     ?XSTACK_DISP0_8
        LCALL     ?Subroutine31 & 0xFFFF
//  581   pBuf += 2;
??CrossCallReturnLabel_51:
        JNC       ??MT_ZdoActiveEpRequest_1
        INC       R3
//  582 
//  583   /* Network address of interest */
//  584   shortAddr = BUILD_UINT16( pBuf[0], pBuf[1] );
//  585   pBuf += 2;
//  586 
//  587   retValue = (uint8)ZDP_ActiveEPReq( &destAddr, shortAddr, 0);
??MT_ZdoActiveEpRequest_1:
        ; Setup parameters for call to function ZDP_NWKAddrOfInterestReq
        MOV       ?V0,#0x0
        MOV       R0,#?V0
        LCALL     ?PUSH_XSTACK_I_ONE
          CFI CFA_XSP16 add(XSP16, 20)
        MOV       R1,#0x5
        LJMP      ?Subroutine0 & 0xFFFF
//  588 
//  589   MT_BuildAndSendZToolResponse(((uint8)MT_RPC_CMD_SRSP | (uint8)MT_RPC_SYS_ZDO), cmdId, 1, &retValue);
//  590 }
          CFI EndBlock cfiBlock8

        RSEG BANKED_CODE:HUGECODE:NOROOT(0)
?Subroutine31:
          CFI Block cfiCond9 Using cfiCommon0
          CFI Function MT_ZdoNodeDescRequest
          CFI Conditional ??CrossCallReturnLabel_48
          CFI R6 load(1, XDATA, add(CFA_XSP16, literal(-9)))
          CFI VB load(1, XDATA, add(CFA_XSP16, literal(-8)))
          CFI V0 load(1, XDATA, add(CFA_XSP16, literal(-7)))
          CFI R7 load(1, XDATA, add(CFA_XSP16, literal(-6)))
          CFI ?RET_LOW load(1, XDATA, add(CFA_XSP16, literal(-5)))
          CFI ?RET_HIGH load(1, XDATA, add(CFA_XSP16, literal(-4)))
          CFI ?BRET_EXT load(1, XDATA, add(CFA_XSP16, literal(-3)))
          CFI DPL0 load(1, XDATA, add(CFA_XSP16, literal(-2)))
          CFI DPH0 load(1, XDATA, add(CFA_XSP16, literal(-1)))
          CFI CFA_SP SP+-2
          CFI CFA_XSP16 add(XSP16, 19)
          CFI Block cfiCond10 Using cfiCommon0
          CFI (cfiCond10) Function MT_ZdoPowerDescRequest
          CFI (cfiCond10) Conditional ??CrossCallReturnLabel_49
          CFI (cfiCond10) R6 load(1, XDATA, add(CFA_XSP16, literal(-9)))
          CFI (cfiCond10) VB load(1, XDATA, add(CFA_XSP16, literal(-8)))
          CFI (cfiCond10) V0 load(1, XDATA, add(CFA_XSP16, literal(-7)))
          CFI (cfiCond10) R7 load(1, XDATA, add(CFA_XSP16, literal(-6)))
          CFI (cfiCond10) ?RET_LOW load(1, XDATA, add(CFA_XSP16, literal(-5)))
          CFI (cfiCond10) ?RET_HIGH load(1, XDATA, add(CFA_XSP16, literal(-4)))
          CFI (cfiCond10) ?BRET_EXT load(1, XDATA, add(CFA_XSP16, literal(-3)))
          CFI (cfiCond10) DPL0 load(1, XDATA, add(CFA_XSP16, literal(-2)))
          CFI (cfiCond10) DPH0 load(1, XDATA, add(CFA_XSP16, literal(-1)))
          CFI (cfiCond10) CFA_SP SP+-2
          CFI (cfiCond10) CFA_XSP16 add(XSP16, 19)
          CFI Block cfiCond11 Using cfiCommon0
          CFI (cfiCond11) Function MT_ZdoSimpleDescRequest
          CFI (cfiCond11) Conditional ??CrossCallReturnLabel_50
          CFI (cfiCond11) R6 load(1, XDATA, add(CFA_XSP16, literal(-9)))
          CFI (cfiCond11) VB load(1, XDATA, add(CFA_XSP16, literal(-8)))
          CFI (cfiCond11) V0 load(1, XDATA, add(CFA_XSP16, literal(-7)))
          CFI (cfiCond11) R7 load(1, XDATA, add(CFA_XSP16, literal(-6)))
          CFI (cfiCond11) ?RET_LOW load(1, XDATA, add(CFA_XSP16, literal(-5)))
          CFI (cfiCond11) ?RET_HIGH load(1, XDATA, add(CFA_XSP16, literal(-4)))
          CFI (cfiCond11) ?BRET_EXT load(1, XDATA, add(CFA_XSP16, literal(-3)))
          CFI (cfiCond11) DPL0 load(1, XDATA, add(CFA_XSP16, literal(-2)))
          CFI (cfiCond11) DPH0 load(1, XDATA, add(CFA_XSP16, literal(-1)))
          CFI (cfiCond11) CFA_SP SP+-2
          CFI (cfiCond11) CFA_XSP16 add(XSP16, 19)
          CFI Block cfiCond12 Using cfiCommon0
          CFI (cfiCond12) Function MT_ZdoActiveEpRequest
          CFI (cfiCond12) Conditional ??CrossCallReturnLabel_51
          CFI (cfiCond12) R6 load(1, XDATA, add(CFA_XSP16, literal(-9)))
          CFI (cfiCond12) VB load(1, XDATA, add(CFA_XSP16, literal(-8)))
          CFI (cfiCond12) V0 load(1, XDATA, add(CFA_XSP16, literal(-7)))
          CFI (cfiCond12) R7 load(1, XDATA, add(CFA_XSP16, literal(-6)))
          CFI (cfiCond12) ?RET_LOW load(1, XDATA, add(CFA_XSP16, literal(-5)))
          CFI (cfiCond12) ?RET_HIGH load(1, XDATA, add(CFA_XSP16, literal(-4)))
          CFI (cfiCond12) ?BRET_EXT load(1, XDATA, add(CFA_XSP16, literal(-3)))
          CFI (cfiCond12) DPL0 load(1, XDATA, add(CFA_XSP16, literal(-2)))
          CFI (cfiCond12) DPH0 load(1, XDATA, add(CFA_XSP16, literal(-1)))
          CFI (cfiCond12) CFA_SP SP+-2
          CFI (cfiCond12) CFA_XSP16 add(XSP16, 19)
          CFI Block cfiCond13 Using cfiCommon0
          CFI (cfiCond13) Function MT_ZdoComplexDescRequest
          CFI (cfiCond13) Conditional ??CrossCallReturnLabel_52
          CFI (cfiCond13) R6 load(1, XDATA, add(CFA_XSP16, literal(-9)))
          CFI (cfiCond13) VB load(1, XDATA, add(CFA_XSP16, literal(-8)))
          CFI (cfiCond13) V0 load(1, XDATA, add(CFA_XSP16, literal(-7)))
          CFI (cfiCond13) R7 load(1, XDATA, add(CFA_XSP16, literal(-6)))
          CFI (cfiCond13) ?RET_LOW load(1, XDATA, add(CFA_XSP16, literal(-5)))
          CFI (cfiCond13) ?RET_HIGH load(1, XDATA, add(CFA_XSP16, literal(-4)))
          CFI (cfiCond13) ?BRET_EXT load(1, XDATA, add(CFA_XSP16, literal(-3)))
          CFI (cfiCond13) DPL0 load(1, XDATA, add(CFA_XSP16, literal(-2)))
          CFI (cfiCond13) DPH0 load(1, XDATA, add(CFA_XSP16, literal(-1)))
          CFI (cfiCond13) CFA_SP SP+-2
          CFI (cfiCond13) CFA_XSP16 add(XSP16, 19)
          CFI Block cfiCond14 Using cfiCommon0
          CFI (cfiCond14) Function MT_ZdoUserDescRequest
          CFI (cfiCond14) Conditional ??CrossCallReturnLabel_53
          CFI (cfiCond14) R6 load(1, XDATA, add(CFA_XSP16, literal(-9)))
          CFI (cfiCond14) VB load(1, XDATA, add(CFA_XSP16, literal(-8)))
          CFI (cfiCond14) V0 load(1, XDATA, add(CFA_XSP16, literal(-7)))
          CFI (cfiCond14) R7 load(1, XDATA, add(CFA_XSP16, literal(-6)))
          CFI (cfiCond14) ?RET_LOW load(1, XDATA, add(CFA_XSP16, literal(-5)))
          CFI (cfiCond14) ?RET_HIGH load(1, XDATA, add(CFA_XSP16, literal(-4)))
          CFI (cfiCond14) ?BRET_EXT load(1, XDATA, add(CFA_XSP16, literal(-3)))
          CFI (cfiCond14) DPL0 load(1, XDATA, add(CFA_XSP16, literal(-2)))
          CFI (cfiCond14) DPH0 load(1, XDATA, add(CFA_XSP16, literal(-1)))
          CFI (cfiCond14) CFA_SP SP+-2
          CFI (cfiCond14) CFA_XSP16 add(XSP16, 19)
          CFI Block cfiCond15 Using cfiCommon0
          CFI (cfiCond15) Function MT_ZdoUserDescSet
          CFI (cfiCond15) Conditional ??CrossCallReturnLabel_54
          CFI (cfiCond15) R6 load(1, XDATA, add(CFA_XSP16, literal(-12)))
          CFI (cfiCond15) VB load(1, XDATA, add(CFA_XSP16, literal(-11)))
          CFI (cfiCond15) V0 load(1, XDATA, add(CFA_XSP16, literal(-10)))
          CFI (cfiCond15) V1 load(1, XDATA, add(CFA_XSP16, literal(-9)))
          CFI (cfiCond15) V2 load(1, XDATA, add(CFA_XSP16, literal(-8)))
          CFI (cfiCond15) V3 load(1, XDATA, add(CFA_XSP16, literal(-7)))
          CFI (cfiCond15) R7 load(1, XDATA, add(CFA_XSP16, literal(-6)))
          CFI (cfiCond15) ?RET_LOW load(1, XDATA, add(CFA_XSP16, literal(-5)))
          CFI (cfiCond15) ?RET_HIGH load(1, XDATA, add(CFA_XSP16, literal(-4)))
          CFI (cfiCond15) ?BRET_EXT load(1, XDATA, add(CFA_XSP16, literal(-3)))
          CFI (cfiCond15) DPL0 load(1, XDATA, add(CFA_XSP16, literal(-2)))
          CFI (cfiCond15) DPH0 load(1, XDATA, add(CFA_XSP16, literal(-1)))
          CFI (cfiCond15) CFA_SP SP+-2
          CFI (cfiCond15) CFA_XSP16 add(XSP16, 39)
          CFI Block cfiPicker16 Using cfiCommon1
          CFI (cfiPicker16) NoFunction
          CFI (cfiPicker16) Picker
        MOV       A,R0
        MOVX      @DPTR,A
        INC       DPTR
        MOV       A,R1
        MOVX      @DPTR,A
        MOV       A,R2
        ADD       A,#0x2
        MOV       R2,A
        RET
          CFI EndBlock cfiCond9
          CFI EndBlock cfiCond10
          CFI EndBlock cfiCond11
          CFI EndBlock cfiCond12
          CFI EndBlock cfiCond13
          CFI EndBlock cfiCond14
          CFI EndBlock cfiCond15
          CFI EndBlock cfiPicker16

        RSEG BANKED_CODE:HUGECODE:NOROOT(0)
?Subroutine6:
          CFI Block cfiCond17 Using cfiCommon0
          CFI Function MT_ZdoNodeDescRequest
          CFI Conditional ??CrossCallReturnLabel_0
          CFI R6 load(1, XDATA, add(CFA_XSP16, literal(-9)))
          CFI VB load(1, XDATA, add(CFA_XSP16, literal(-8)))
          CFI V0 load(1, XDATA, add(CFA_XSP16, literal(-7)))
          CFI R7 load(1, XDATA, add(CFA_XSP16, literal(-6)))
          CFI ?RET_LOW load(1, XDATA, add(CFA_XSP16, literal(-5)))
          CFI ?RET_HIGH load(1, XDATA, add(CFA_XSP16, literal(-4)))
          CFI ?BRET_EXT load(1, XDATA, add(CFA_XSP16, literal(-3)))
          CFI DPL0 load(1, XDATA, add(CFA_XSP16, literal(-2)))
          CFI DPH0 load(1, XDATA, add(CFA_XSP16, literal(-1)))
          CFI CFA_SP SP+-2
          CFI CFA_XSP16 add(XSP16, 19)
          CFI Block cfiCond18 Using cfiCommon0
          CFI (cfiCond18) Function MT_ZdoPowerDescRequest
          CFI (cfiCond18) Conditional ??CrossCallReturnLabel_1
          CFI (cfiCond18) R6 load(1, XDATA, add(CFA_XSP16, literal(-9)))
          CFI (cfiCond18) VB load(1, XDATA, add(CFA_XSP16, literal(-8)))
          CFI (cfiCond18) V0 load(1, XDATA, add(CFA_XSP16, literal(-7)))
          CFI (cfiCond18) R7 load(1, XDATA, add(CFA_XSP16, literal(-6)))
          CFI (cfiCond18) ?RET_LOW load(1, XDATA, add(CFA_XSP16, literal(-5)))
          CFI (cfiCond18) ?RET_HIGH load(1, XDATA, add(CFA_XSP16, literal(-4)))
          CFI (cfiCond18) ?BRET_EXT load(1, XDATA, add(CFA_XSP16, literal(-3)))
          CFI (cfiCond18) DPL0 load(1, XDATA, add(CFA_XSP16, literal(-2)))
          CFI (cfiCond18) DPH0 load(1, XDATA, add(CFA_XSP16, literal(-1)))
          CFI (cfiCond18) CFA_SP SP+-2
          CFI (cfiCond18) CFA_XSP16 add(XSP16, 19)
          CFI Block cfiCond19 Using cfiCommon0
          CFI (cfiCond19) Function MT_ZdoSimpleDescRequest
          CFI (cfiCond19) Conditional ??CrossCallReturnLabel_2
          CFI (cfiCond19) R6 load(1, XDATA, add(CFA_XSP16, literal(-9)))
          CFI (cfiCond19) VB load(1, XDATA, add(CFA_XSP16, literal(-8)))
          CFI (cfiCond19) V0 load(1, XDATA, add(CFA_XSP16, literal(-7)))
          CFI (cfiCond19) R7 load(1, XDATA, add(CFA_XSP16, literal(-6)))
          CFI (cfiCond19) ?RET_LOW load(1, XDATA, add(CFA_XSP16, literal(-5)))
          CFI (cfiCond19) ?RET_HIGH load(1, XDATA, add(CFA_XSP16, literal(-4)))
          CFI (cfiCond19) ?BRET_EXT load(1, XDATA, add(CFA_XSP16, literal(-3)))
          CFI (cfiCond19) DPL0 load(1, XDATA, add(CFA_XSP16, literal(-2)))
          CFI (cfiCond19) DPH0 load(1, XDATA, add(CFA_XSP16, literal(-1)))
          CFI (cfiCond19) CFA_SP SP+-2
          CFI (cfiCond19) CFA_XSP16 add(XSP16, 19)
          CFI Block cfiCond20 Using cfiCommon0
          CFI (cfiCond20) Function MT_ZdoActiveEpRequest
          CFI (cfiCond20) Conditional ??CrossCallReturnLabel_3
          CFI (cfiCond20) R6 load(1, XDATA, add(CFA_XSP16, literal(-9)))
          CFI (cfiCond20) VB load(1, XDATA, add(CFA_XSP16, literal(-8)))
          CFI (cfiCond20) V0 load(1, XDATA, add(CFA_XSP16, literal(-7)))
          CFI (cfiCond20) R7 load(1, XDATA, add(CFA_XSP16, literal(-6)))
          CFI (cfiCond20) ?RET_LOW load(1, XDATA, add(CFA_XSP16, literal(-5)))
          CFI (cfiCond20) ?RET_HIGH load(1, XDATA, add(CFA_XSP16, literal(-4)))
          CFI (cfiCond20) ?BRET_EXT load(1, XDATA, add(CFA_XSP16, literal(-3)))
          CFI (cfiCond20) DPL0 load(1, XDATA, add(CFA_XSP16, literal(-2)))
          CFI (cfiCond20) DPH0 load(1, XDATA, add(CFA_XSP16, literal(-1)))
          CFI (cfiCond20) CFA_SP SP+-2
          CFI (cfiCond20) CFA_XSP16 add(XSP16, 19)
          CFI Block cfiCond21 Using cfiCommon0
          CFI (cfiCond21) Function MT_ZdoComplexDescRequest
          CFI (cfiCond21) Conditional ??CrossCallReturnLabel_4
          CFI (cfiCond21) R6 load(1, XDATA, add(CFA_XSP16, literal(-9)))
          CFI (cfiCond21) VB load(1, XDATA, add(CFA_XSP16, literal(-8)))
          CFI (cfiCond21) V0 load(1, XDATA, add(CFA_XSP16, literal(-7)))
          CFI (cfiCond21) R7 load(1, XDATA, add(CFA_XSP16, literal(-6)))
          CFI (cfiCond21) ?RET_LOW load(1, XDATA, add(CFA_XSP16, literal(-5)))
          CFI (cfiCond21) ?RET_HIGH load(1, XDATA, add(CFA_XSP16, literal(-4)))
          CFI (cfiCond21) ?BRET_EXT load(1, XDATA, add(CFA_XSP16, literal(-3)))
          CFI (cfiCond21) DPL0 load(1, XDATA, add(CFA_XSP16, literal(-2)))
          CFI (cfiCond21) DPH0 load(1, XDATA, add(CFA_XSP16, literal(-1)))
          CFI (cfiCond21) CFA_SP SP+-2
          CFI (cfiCond21) CFA_XSP16 add(XSP16, 19)
          CFI Block cfiCond22 Using cfiCommon0
          CFI (cfiCond22) Function MT_ZdoUserDescRequest
          CFI (cfiCond22) Conditional ??CrossCallReturnLabel_5
          CFI (cfiCond22) R6 load(1, XDATA, add(CFA_XSP16, literal(-9)))
          CFI (cfiCond22) VB load(1, XDATA, add(CFA_XSP16, literal(-8)))
          CFI (cfiCond22) V0 load(1, XDATA, add(CFA_XSP16, literal(-7)))
          CFI (cfiCond22) R7 load(1, XDATA, add(CFA_XSP16, literal(-6)))
          CFI (cfiCond22) ?RET_LOW load(1, XDATA, add(CFA_XSP16, literal(-5)))
          CFI (cfiCond22) ?RET_HIGH load(1, XDATA, add(CFA_XSP16, literal(-4)))
          CFI (cfiCond22) ?BRET_EXT load(1, XDATA, add(CFA_XSP16, literal(-3)))
          CFI (cfiCond22) DPL0 load(1, XDATA, add(CFA_XSP16, literal(-2)))
          CFI (cfiCond22) DPH0 load(1, XDATA, add(CFA_XSP16, literal(-1)))
          CFI (cfiCond22) CFA_SP SP+-2
          CFI (cfiCond22) CFA_XSP16 add(XSP16, 19)
          CFI Block cfiCond23 Using cfiCommon0
          CFI (cfiCond23) Function MT_ZdoUserDescSet
          CFI (cfiCond23) Conditional ??CrossCallReturnLabel_6
          CFI (cfiCond23) R6 load(1, XDATA, add(CFA_XSP16, literal(-12)))
          CFI (cfiCond23) VB load(1, XDATA, add(CFA_XSP16, literal(-11)))
          CFI (cfiCond23) V0 load(1, XDATA, add(CFA_XSP16, literal(-10)))
          CFI (cfiCond23) V1 load(1, XDATA, add(CFA_XSP16, literal(-9)))
          CFI (cfiCond23) V2 load(1, XDATA, add(CFA_XSP16, literal(-8)))
          CFI (cfiCond23) V3 load(1, XDATA, add(CFA_XSP16, literal(-7)))
          CFI (cfiCond23) R7 load(1, XDATA, add(CFA_XSP16, literal(-6)))
          CFI (cfiCond23) ?RET_LOW load(1, XDATA, add(CFA_XSP16, literal(-5)))
          CFI (cfiCond23) ?RET_HIGH load(1, XDATA, add(CFA_XSP16, literal(-4)))
          CFI (cfiCond23) ?BRET_EXT load(1, XDATA, add(CFA_XSP16, literal(-3)))
          CFI (cfiCond23) DPL0 load(1, XDATA, add(CFA_XSP16, literal(-2)))
          CFI (cfiCond23) DPH0 load(1, XDATA, add(CFA_XSP16, literal(-1)))
          CFI (cfiCond23) CFA_SP SP+-2
          CFI (cfiCond23) CFA_XSP16 add(XSP16, 39)
          CFI Block cfiPicker24 Using cfiCommon1
          CFI (cfiPicker24) NoFunction
          CFI (cfiPicker24) Picker
        MOV       A,#0x2
        MOVX      @DPTR,A
        LCALL     ?Subroutine56 & 0xFFFF
??CrossCallReturnLabel_116:
        MOV       R1,A
        MOV       A,R4
        MOV       R0,A
        MOV       A,#0x1
        RET
          CFI EndBlock cfiCond17
          CFI EndBlock cfiCond18
          CFI EndBlock cfiCond19
          CFI EndBlock cfiCond20
          CFI EndBlock cfiCond21
          CFI EndBlock cfiCond22
          CFI EndBlock cfiCond23
          CFI EndBlock cfiPicker24

        RSEG BANKED_CODE:HUGECODE:NOROOT(0)
?Subroutine56:
          CFI Block cfiCond25 Using cfiCommon0
          CFI Function MT_ZdoNodeDescRequest
          CFI Conditional ??CrossCallReturnLabel_116, ??CrossCallReturnLabel_0
          CFI R6 load(1, XDATA, add(CFA_XSP16, literal(-9)))
          CFI VB load(1, XDATA, add(CFA_XSP16, literal(-8)))
          CFI V0 load(1, XDATA, add(CFA_XSP16, literal(-7)))
          CFI R7 load(1, XDATA, add(CFA_XSP16, literal(-6)))
          CFI ?RET_LOW load(1, XDATA, add(CFA_XSP16, literal(-5)))
          CFI ?RET_HIGH load(1, XDATA, add(CFA_XSP16, literal(-4)))
          CFI ?BRET_EXT load(1, XDATA, add(CFA_XSP16, literal(-3)))
          CFI DPL0 load(1, XDATA, add(CFA_XSP16, literal(-2)))
          CFI DPH0 load(1, XDATA, add(CFA_XSP16, literal(-1)))
          CFI CFA_SP SP+-4
          CFI CFA_XSP16 add(XSP16, 19)
          CFI Block cfiCond26 Using cfiCommon0
          CFI (cfiCond26) Function MT_ZdoPowerDescRequest
          CFI (cfiCond26) Conditional ??CrossCallReturnLabel_116, ??CrossCallReturnLabel_1
          CFI (cfiCond26) R6 load(1, XDATA, add(CFA_XSP16, literal(-9)))
          CFI (cfiCond26) VB load(1, XDATA, add(CFA_XSP16, literal(-8)))
          CFI (cfiCond26) V0 load(1, XDATA, add(CFA_XSP16, literal(-7)))
          CFI (cfiCond26) R7 load(1, XDATA, add(CFA_XSP16, literal(-6)))
          CFI (cfiCond26) ?RET_LOW load(1, XDATA, add(CFA_XSP16, literal(-5)))
          CFI (cfiCond26) ?RET_HIGH load(1, XDATA, add(CFA_XSP16, literal(-4)))
          CFI (cfiCond26) ?BRET_EXT load(1, XDATA, add(CFA_XSP16, literal(-3)))
          CFI (cfiCond26) DPL0 load(1, XDATA, add(CFA_XSP16, literal(-2)))
          CFI (cfiCond26) DPH0 load(1, XDATA, add(CFA_XSP16, literal(-1)))
          CFI (cfiCond26) CFA_SP SP+-4
          CFI (cfiCond26) CFA_XSP16 add(XSP16, 19)
          CFI Block cfiCond27 Using cfiCommon0
          CFI (cfiCond27) Function MT_ZdoSimpleDescRequest
          CFI (cfiCond27) Conditional ??CrossCallReturnLabel_116, ??CrossCallReturnLabel_2
          CFI (cfiCond27) R6 load(1, XDATA, add(CFA_XSP16, literal(-9)))
          CFI (cfiCond27) VB load(1, XDATA, add(CFA_XSP16, literal(-8)))
          CFI (cfiCond27) V0 load(1, XDATA, add(CFA_XSP16, literal(-7)))
          CFI (cfiCond27) R7 load(1, XDATA, add(CFA_XSP16, literal(-6)))
          CFI (cfiCond27) ?RET_LOW load(1, XDATA, add(CFA_XSP16, literal(-5)))
          CFI (cfiCond27) ?RET_HIGH load(1, XDATA, add(CFA_XSP16, literal(-4)))
          CFI (cfiCond27) ?BRET_EXT load(1, XDATA, add(CFA_XSP16, literal(-3)))
          CFI (cfiCond27) DPL0 load(1, XDATA, add(CFA_XSP16, literal(-2)))
          CFI (cfiCond27) DPH0 load(1, XDATA, add(CFA_XSP16, literal(-1)))
          CFI (cfiCond27) CFA_SP SP+-4
          CFI (cfiCond27) CFA_XSP16 add(XSP16, 19)
          CFI Block cfiCond28 Using cfiCommon0
          CFI (cfiCond28) Function MT_ZdoActiveEpRequest
          CFI (cfiCond28) Conditional ??CrossCallReturnLabel_116, ??CrossCallReturnLabel_3
          CFI (cfiCond28) R6 load(1, XDATA, add(CFA_XSP16, literal(-9)))
          CFI (cfiCond28) VB load(1, XDATA, add(CFA_XSP16, literal(-8)))
          CFI (cfiCond28) V0 load(1, XDATA, add(CFA_XSP16, literal(-7)))
          CFI (cfiCond28) R7 load(1, XDATA, add(CFA_XSP16, literal(-6)))
          CFI (cfiCond28) ?RET_LOW load(1, XDATA, add(CFA_XSP16, literal(-5)))
          CFI (cfiCond28) ?RET_HIGH load(1, XDATA, add(CFA_XSP16, literal(-4)))
          CFI (cfiCond28) ?BRET_EXT load(1, XDATA, add(CFA_XSP16, literal(-3)))
          CFI (cfiCond28) DPL0 load(1, XDATA, add(CFA_XSP16, literal(-2)))
          CFI (cfiCond28) DPH0 load(1, XDATA, add(CFA_XSP16, literal(-1)))
          CFI (cfiCond28) CFA_SP SP+-4
          CFI (cfiCond28) CFA_XSP16 add(XSP16, 19)
          CFI Block cfiCond29 Using cfiCommon0
          CFI (cfiCond29) Function MT_ZdoComplexDescRequest
          CFI (cfiCond29) Conditional ??CrossCallReturnLabel_116, ??CrossCallReturnLabel_4
          CFI (cfiCond29) R6 load(1, XDATA, add(CFA_XSP16, literal(-9)))
          CFI (cfiCond29) VB load(1, XDATA, add(CFA_XSP16, literal(-8)))
          CFI (cfiCond29) V0 load(1, XDATA, add(CFA_XSP16, literal(-7)))
          CFI (cfiCond29) R7 load(1, XDATA, add(CFA_XSP16, literal(-6)))
          CFI (cfiCond29) ?RET_LOW load(1, XDATA, add(CFA_XSP16, literal(-5)))
          CFI (cfiCond29) ?RET_HIGH load(1, XDATA, add(CFA_XSP16, literal(-4)))
          CFI (cfiCond29) ?BRET_EXT load(1, XDATA, add(CFA_XSP16, literal(-3)))
          CFI (cfiCond29) DPL0 load(1, XDATA, add(CFA_XSP16, literal(-2)))
          CFI (cfiCond29) DPH0 load(1, XDATA, add(CFA_XSP16, literal(-1)))
          CFI (cfiCond29) CFA_SP SP+-4
          CFI (cfiCond29) CFA_XSP16 add(XSP16, 19)
          CFI Block cfiCond30 Using cfiCommon0
          CFI (cfiCond30) Function MT_ZdoUserDescRequest
          CFI (cfiCond30) Conditional ??CrossCallReturnLabel_116, ??CrossCallReturnLabel_5
          CFI (cfiCond30) R6 load(1, XDATA, add(CFA_XSP16, literal(-9)))
          CFI (cfiCond30) VB load(1, XDATA, add(CFA_XSP16, literal(-8)))
          CFI (cfiCond30) V0 load(1, XDATA, add(CFA_XSP16, literal(-7)))
          CFI (cfiCond30) R7 load(1, XDATA, add(CFA_XSP16, literal(-6)))
          CFI (cfiCond30) ?RET_LOW load(1, XDATA, add(CFA_XSP16, literal(-5)))
          CFI (cfiCond30) ?RET_HIGH load(1, XDATA, add(CFA_XSP16, literal(-4)))
          CFI (cfiCond30) ?BRET_EXT load(1, XDATA, add(CFA_XSP16, literal(-3)))
          CFI (cfiCond30) DPL0 load(1, XDATA, add(CFA_XSP16, literal(-2)))
          CFI (cfiCond30) DPH0 load(1, XDATA, add(CFA_XSP16, literal(-1)))
          CFI (cfiCond30) CFA_SP SP+-4
          CFI (cfiCond30) CFA_XSP16 add(XSP16, 19)
          CFI Block cfiCond31 Using cfiCommon0
          CFI (cfiCond31) Function MT_ZdoUserDescSet
          CFI (cfiCond31) Conditional ??CrossCallReturnLabel_116, ??CrossCallReturnLabel_6
          CFI (cfiCond31) R6 load(1, XDATA, add(CFA_XSP16, literal(-12)))
          CFI (cfiCond31) VB load(1, XDATA, add(CFA_XSP16, literal(-11)))
          CFI (cfiCond31) V0 load(1, XDATA, add(CFA_XSP16, literal(-10)))
          CFI (cfiCond31) V1 load(1, XDATA, add(CFA_XSP16, literal(-9)))
          CFI (cfiCond31) V2 load(1, XDATA, add(CFA_XSP16, literal(-8)))
          CFI (cfiCond31) V3 load(1, XDATA, add(CFA_XSP16, literal(-7)))
          CFI (cfiCond31) R7 load(1, XDATA, add(CFA_XSP16, literal(-6)))
          CFI (cfiCond31) ?RET_LOW load(1, XDATA, add(CFA_XSP16, literal(-5)))
          CFI (cfiCond31) ?RET_HIGH load(1, XDATA, add(CFA_XSP16, literal(-4)))
          CFI (cfiCond31) ?BRET_EXT load(1, XDATA, add(CFA_XSP16, literal(-3)))
          CFI (cfiCond31) DPL0 load(1, XDATA, add(CFA_XSP16, literal(-2)))
          CFI (cfiCond31) DPH0 load(1, XDATA, add(CFA_XSP16, literal(-1)))
          CFI (cfiCond31) CFA_SP SP+-4
          CFI (cfiCond31) CFA_XSP16 add(XSP16, 39)
          CFI Block cfiCond32 Using cfiCommon0
          CFI (cfiCond32) Function MT_ZdoServiceDiscRequest
          CFI (cfiCond32) Conditional ??CrossCallReturnLabel_115
          CFI (cfiCond32) R6 load(1, XDATA, add(CFA_XSP16, literal(-9)))
          CFI (cfiCond32) VB load(1, XDATA, add(CFA_XSP16, literal(-8)))
          CFI (cfiCond32) V0 load(1, XDATA, add(CFA_XSP16, literal(-7)))
          CFI (cfiCond32) R7 load(1, XDATA, add(CFA_XSP16, literal(-6)))
          CFI (cfiCond32) ?RET_LOW load(1, XDATA, add(CFA_XSP16, literal(-5)))
          CFI (cfiCond32) ?RET_HIGH load(1, XDATA, add(CFA_XSP16, literal(-4)))
          CFI (cfiCond32) ?BRET_EXT load(1, XDATA, add(CFA_XSP16, literal(-3)))
          CFI (cfiCond32) DPL0 load(1, XDATA, add(CFA_XSP16, literal(-2)))
          CFI (cfiCond32) DPH0 load(1, XDATA, add(CFA_XSP16, literal(-1)))
          CFI (cfiCond32) CFA_SP SP+-2
          CFI (cfiCond32) CFA_XSP16 add(XSP16, 10)
          CFI Block cfiCond33 Using cfiCommon0
          CFI (cfiCond33) Function MT_ZdoUserDescSet
          CFI (cfiCond33) Conditional ??CrossCallReturnLabel_117, ??CrossCallReturnLabel_91
          CFI (cfiCond33) R6 load(1, XDATA, add(CFA_XSP16, literal(-12)))
          CFI (cfiCond33) VB load(1, XDATA, add(CFA_XSP16, literal(-11)))
          CFI (cfiCond33) V0 load(1, XDATA, add(CFA_XSP16, literal(-10)))
          CFI (cfiCond33) V1 load(1, XDATA, add(CFA_XSP16, literal(-9)))
          CFI (cfiCond33) V2 load(1, XDATA, add(CFA_XSP16, literal(-8)))
          CFI (cfiCond33) V3 load(1, XDATA, add(CFA_XSP16, literal(-7)))
          CFI (cfiCond33) R7 load(1, XDATA, add(CFA_XSP16, literal(-6)))
          CFI (cfiCond33) ?RET_LOW load(1, XDATA, add(CFA_XSP16, literal(-5)))
          CFI (cfiCond33) ?RET_HIGH load(1, XDATA, add(CFA_XSP16, literal(-4)))
          CFI (cfiCond33) ?BRET_EXT load(1, XDATA, add(CFA_XSP16, literal(-3)))
          CFI (cfiCond33) DPL0 load(1, XDATA, add(CFA_XSP16, literal(-2)))
          CFI (cfiCond33) DPH0 load(1, XDATA, add(CFA_XSP16, literal(-1)))
          CFI (cfiCond33) CFA_SP SP+-4
          CFI (cfiCond33) CFA_XSP16 add(XSP16, 39)
          CFI Block cfiCond34 Using cfiCommon0
          CFI (cfiCond34) Function MT_ZdoRegisterForZDOMsg
          CFI (cfiCond34) Conditional ??CrossCallReturnLabel_117, ??CrossCallReturnLabel_92, ??CrossCallReturnLabel_13
          CFI (cfiCond34) R6 load(1, XDATA, add(CFA_XSP16, literal(-9)))
          CFI (cfiCond34) VB load(1, XDATA, add(CFA_XSP16, literal(-8)))
          CFI (cfiCond34) V0 load(1, XDATA, add(CFA_XSP16, literal(-7)))
          CFI (cfiCond34) R7 load(1, XDATA, add(CFA_XSP16, literal(-6)))
          CFI (cfiCond34) ?RET_LOW load(1, XDATA, add(CFA_XSP16, literal(-5)))
          CFI (cfiCond34) ?RET_HIGH load(1, XDATA, add(CFA_XSP16, literal(-4)))
          CFI (cfiCond34) ?BRET_EXT load(1, XDATA, add(CFA_XSP16, literal(-3)))
          CFI (cfiCond34) DPL0 load(1, XDATA, add(CFA_XSP16, literal(-2)))
          CFI (cfiCond34) DPH0 load(1, XDATA, add(CFA_XSP16, literal(-1)))
          CFI (cfiCond34) CFA_SP SP+-6
          CFI (cfiCond34) CFA_XSP16 add(XSP16, 10)
          CFI Block cfiCond35 Using cfiCommon0
          CFI (cfiCond35) Function MT_ZdoRemoveRegisteredCB
          CFI (cfiCond35) Conditional ??CrossCallReturnLabel_117, ??CrossCallReturnLabel_92, ??CrossCallReturnLabel_14
          CFI (cfiCond35) R6 load(1, XDATA, add(CFA_XSP16, literal(-9)))
          CFI (cfiCond35) VB load(1, XDATA, add(CFA_XSP16, literal(-8)))
          CFI (cfiCond35) V0 load(1, XDATA, add(CFA_XSP16, literal(-7)))
          CFI (cfiCond35) R7 load(1, XDATA, add(CFA_XSP16, literal(-6)))
          CFI (cfiCond35) ?RET_LOW load(1, XDATA, add(CFA_XSP16, literal(-5)))
          CFI (cfiCond35) ?RET_HIGH load(1, XDATA, add(CFA_XSP16, literal(-4)))
          CFI (cfiCond35) ?BRET_EXT load(1, XDATA, add(CFA_XSP16, literal(-3)))
          CFI (cfiCond35) DPL0 load(1, XDATA, add(CFA_XSP16, literal(-2)))
          CFI (cfiCond35) DPH0 load(1, XDATA, add(CFA_XSP16, literal(-1)))
          CFI (cfiCond35) CFA_SP SP+-6
          CFI (cfiCond35) CFA_XSP16 add(XSP16, 10)
          CFI Block cfiPicker36 Using cfiCommon1
          CFI (cfiPicker36) NoFunction
          CFI (cfiPicker36) Picker
        MOV       DPL,R2
        MOV       DPH,R3
          CFI EndBlock cfiCond25
          CFI EndBlock cfiCond26
          CFI EndBlock cfiCond27
          CFI EndBlock cfiCond28
          CFI EndBlock cfiCond29
          CFI EndBlock cfiCond30
          CFI EndBlock cfiCond31
          CFI EndBlock cfiCond32
          CFI EndBlock cfiCond33
          CFI EndBlock cfiCond34
          CFI EndBlock cfiCond35
          CFI EndBlock cfiPicker36
        REQUIRE ??Subroutine60_0
        ; // Fall through to label ??Subroutine60_0

        RSEG BANKED_CODE:HUGECODE:NOROOT(0)
??Subroutine60_0:
          CFI Block cfiCond37 Using cfiCommon0
          CFI Function MT_ZdoMatchDescRequest
          CFI Conditional ??CrossCallReturnLabel_112
          CFI R6 load(1, XDATA, add(CFA_XSP16, literal(-14)))
          CFI VB load(1, XDATA, add(CFA_XSP16, literal(-13)))
          CFI V0 load(1, XDATA, add(CFA_XSP16, literal(-12)))
          CFI V1 load(1, XDATA, add(CFA_XSP16, literal(-11)))
          CFI V2 load(1, XDATA, add(CFA_XSP16, literal(-10)))
          CFI V3 load(1, XDATA, add(CFA_XSP16, literal(-9)))
          CFI V4 load(1, XDATA, add(CFA_XSP16, literal(-8)))
          CFI V5 load(1, XDATA, add(CFA_XSP16, literal(-7)))
          CFI R7 load(1, XDATA, add(CFA_XSP16, literal(-6)))
          CFI ?RET_LOW load(1, XDATA, add(CFA_XSP16, literal(-5)))
          CFI ?RET_HIGH load(1, XDATA, add(CFA_XSP16, literal(-4)))
          CFI ?BRET_EXT load(1, XDATA, add(CFA_XSP16, literal(-3)))
          CFI DPL0 load(1, XDATA, add(CFA_XSP16, literal(-2)))
          CFI DPH0 load(1, XDATA, add(CFA_XSP16, literal(-1)))
          CFI CFA_SP SP+-2
          CFI CFA_XSP16 add(XSP16, 88)
          CFI Block cfiCond38 Using cfiCommon0
          CFI (cfiCond38) Function MT_ZdoNodeDescRequest
          CFI (cfiCond38) Conditional ??CrossCallReturnLabel_114, ??CrossCallReturnLabel_86, ??CrossCallReturnLabel_19
          CFI (cfiCond38) R6 load(1, XDATA, add(CFA_XSP16, literal(-9)))
          CFI (cfiCond38) VB load(1, XDATA, add(CFA_XSP16, literal(-8)))
          CFI (cfiCond38) V0 load(1, XDATA, add(CFA_XSP16, literal(-7)))
          CFI (cfiCond38) R7 load(1, XDATA, add(CFA_XSP16, literal(-6)))
          CFI (cfiCond38) ?RET_LOW load(1, XDATA, add(CFA_XSP16, literal(-5)))
          CFI (cfiCond38) ?RET_HIGH load(1, XDATA, add(CFA_XSP16, literal(-4)))
          CFI (cfiCond38) ?BRET_EXT load(1, XDATA, add(CFA_XSP16, literal(-3)))
          CFI (cfiCond38) DPL0 load(1, XDATA, add(CFA_XSP16, literal(-2)))
          CFI (cfiCond38) DPH0 load(1, XDATA, add(CFA_XSP16, literal(-1)))
          CFI (cfiCond38) CFA_SP SP+-6
          CFI (cfiCond38) CFA_XSP16 add(XSP16, 20)
          CFI Block cfiCond39 Using cfiCommon0
          CFI (cfiCond39) Function MT_ZdoMatchDescRequest
          CFI (cfiCond39) Conditional ??CrossCallReturnLabel_114, ??CrossCallReturnLabel_86, ??CrossCallReturnLabel_20
          CFI (cfiCond39) R6 load(1, XDATA, add(CFA_XSP16, literal(-14)))
          CFI (cfiCond39) VB load(1, XDATA, add(CFA_XSP16, literal(-13)))
          CFI (cfiCond39) V0 load(1, XDATA, add(CFA_XSP16, literal(-12)))
          CFI (cfiCond39) V1 load(1, XDATA, add(CFA_XSP16, literal(-11)))
          CFI (cfiCond39) V2 load(1, XDATA, add(CFA_XSP16, literal(-10)))
          CFI (cfiCond39) V3 load(1, XDATA, add(CFA_XSP16, literal(-9)))
          CFI (cfiCond39) V4 load(1, XDATA, add(CFA_XSP16, literal(-8)))
          CFI (cfiCond39) V5 load(1, XDATA, add(CFA_XSP16, literal(-7)))
          CFI (cfiCond39) R7 load(1, XDATA, add(CFA_XSP16, literal(-6)))
          CFI (cfiCond39) ?RET_LOW load(1, XDATA, add(CFA_XSP16, literal(-5)))
          CFI (cfiCond39) ?RET_HIGH load(1, XDATA, add(CFA_XSP16, literal(-4)))
          CFI (cfiCond39) ?BRET_EXT load(1, XDATA, add(CFA_XSP16, literal(-3)))
          CFI (cfiCond39) DPL0 load(1, XDATA, add(CFA_XSP16, literal(-2)))
          CFI (cfiCond39) DPH0 load(1, XDATA, add(CFA_XSP16, literal(-1)))
          CFI (cfiCond39) CFA_SP SP+-6
          CFI (cfiCond39) CFA_XSP16 add(XSP16, 88)
          CFI Block cfiCond40 Using cfiCommon0
          CFI (cfiCond40) Function MT_ZdoSimpleDescRequest
          CFI (cfiCond40) Conditional ??CrossCallReturnLabel_114, ??CrossCallReturnLabel_85, ??CrossCallReturnLabel_15
          CFI (cfiCond40) R6 load(1, XDATA, add(CFA_XSP16, literal(-9)))
          CFI (cfiCond40) VB load(1, XDATA, add(CFA_XSP16, literal(-8)))
          CFI (cfiCond40) V0 load(1, XDATA, add(CFA_XSP16, literal(-7)))
          CFI (cfiCond40) R7 load(1, XDATA, add(CFA_XSP16, literal(-6)))
          CFI (cfiCond40) ?RET_LOW load(1, XDATA, add(CFA_XSP16, literal(-5)))
          CFI (cfiCond40) ?RET_HIGH load(1, XDATA, add(CFA_XSP16, literal(-4)))
          CFI (cfiCond40) ?BRET_EXT load(1, XDATA, add(CFA_XSP16, literal(-3)))
          CFI (cfiCond40) DPL0 load(1, XDATA, add(CFA_XSP16, literal(-2)))
          CFI (cfiCond40) DPH0 load(1, XDATA, add(CFA_XSP16, literal(-1)))
          CFI (cfiCond40) CFA_SP SP+-6
          CFI (cfiCond40) CFA_XSP16 add(XSP16, 20)
          CFI Block cfiCond41 Using cfiCommon0
          CFI (cfiCond41) Function MT_ZdoPowerDescRequest
          CFI (cfiCond41) Conditional ??CrossCallReturnLabel_114, ??CrossCallReturnLabel_85, ??CrossCallReturnLabel_16
          CFI (cfiCond41) R6 load(1, XDATA, add(CFA_XSP16, literal(-9)))
          CFI (cfiCond41) VB load(1, XDATA, add(CFA_XSP16, literal(-8)))
          CFI (cfiCond41) V0 load(1, XDATA, add(CFA_XSP16, literal(-7)))
          CFI (cfiCond41) R7 load(1, XDATA, add(CFA_XSP16, literal(-6)))
          CFI (cfiCond41) ?RET_LOW load(1, XDATA, add(CFA_XSP16, literal(-5)))
          CFI (cfiCond41) ?RET_HIGH load(1, XDATA, add(CFA_XSP16, literal(-4)))
          CFI (cfiCond41) ?BRET_EXT load(1, XDATA, add(CFA_XSP16, literal(-3)))
          CFI (cfiCond41) DPL0 load(1, XDATA, add(CFA_XSP16, literal(-2)))
          CFI (cfiCond41) DPH0 load(1, XDATA, add(CFA_XSP16, literal(-1)))
          CFI (cfiCond41) CFA_SP SP+-6
          CFI (cfiCond41) CFA_XSP16 add(XSP16, 20)
          CFI Block cfiCond42 Using cfiCommon0
          CFI (cfiCond42) Function MT_ZdoActiveEpRequest
          CFI (cfiCond42) Conditional ??CrossCallReturnLabel_114, ??CrossCallReturnLabel_85, ??CrossCallReturnLabel_16
          CFI (cfiCond42) R6 load(1, XDATA, add(CFA_XSP16, literal(-9)))
          CFI (cfiCond42) VB load(1, XDATA, add(CFA_XSP16, literal(-8)))
          CFI (cfiCond42) V0 load(1, XDATA, add(CFA_XSP16, literal(-7)))
          CFI (cfiCond42) R7 load(1, XDATA, add(CFA_XSP16, literal(-6)))
          CFI (cfiCond42) ?RET_LOW load(1, XDATA, add(CFA_XSP16, literal(-5)))
          CFI (cfiCond42) ?RET_HIGH load(1, XDATA, add(CFA_XSP16, literal(-4)))
          CFI (cfiCond42) ?BRET_EXT load(1, XDATA, add(CFA_XSP16, literal(-3)))
          CFI (cfiCond42) DPL0 load(1, XDATA, add(CFA_XSP16, literal(-2)))
          CFI (cfiCond42) DPH0 load(1, XDATA, add(CFA_XSP16, literal(-1)))
          CFI (cfiCond42) CFA_SP SP+-6
          CFI (cfiCond42) CFA_XSP16 add(XSP16, 20)
          CFI Block cfiCond43 Using cfiCommon0
          CFI (cfiCond43) Function MT_ZdoComplexDescRequest
          CFI (cfiCond43) Conditional ??CrossCallReturnLabel_114, ??CrossCallReturnLabel_85, ??CrossCallReturnLabel_16
          CFI (cfiCond43) R6 load(1, XDATA, add(CFA_XSP16, literal(-9)))
          CFI (cfiCond43) VB load(1, XDATA, add(CFA_XSP16, literal(-8)))
          CFI (cfiCond43) V0 load(1, XDATA, add(CFA_XSP16, literal(-7)))
          CFI (cfiCond43) R7 load(1, XDATA, add(CFA_XSP16, literal(-6)))
          CFI (cfiCond43) ?RET_LOW load(1, XDATA, add(CFA_XSP16, literal(-5)))
          CFI (cfiCond43) ?RET_HIGH load(1, XDATA, add(CFA_XSP16, literal(-4)))
          CFI (cfiCond43) ?BRET_EXT load(1, XDATA, add(CFA_XSP16, literal(-3)))
          CFI (cfiCond43) DPL0 load(1, XDATA, add(CFA_XSP16, literal(-2)))
          CFI (cfiCond43) DPH0 load(1, XDATA, add(CFA_XSP16, literal(-1)))
          CFI (cfiCond43) CFA_SP SP+-6
          CFI (cfiCond43) CFA_XSP16 add(XSP16, 20)
          CFI Block cfiCond44 Using cfiCommon0
          CFI (cfiCond44) Function MT_ZdoUserDescRequest
          CFI (cfiCond44) Conditional ??CrossCallReturnLabel_114, ??CrossCallReturnLabel_85, ??CrossCallReturnLabel_16
          CFI (cfiCond44) R6 load(1, XDATA, add(CFA_XSP16, literal(-9)))
          CFI (cfiCond44) VB load(1, XDATA, add(CFA_XSP16, literal(-8)))
          CFI (cfiCond44) V0 load(1, XDATA, add(CFA_XSP16, literal(-7)))
          CFI (cfiCond44) R7 load(1, XDATA, add(CFA_XSP16, literal(-6)))
          CFI (cfiCond44) ?RET_LOW load(1, XDATA, add(CFA_XSP16, literal(-5)))
          CFI (cfiCond44) ?RET_HIGH load(1, XDATA, add(CFA_XSP16, literal(-4)))
          CFI (cfiCond44) ?BRET_EXT load(1, XDATA, add(CFA_XSP16, literal(-3)))
          CFI (cfiCond44) DPL0 load(1, XDATA, add(CFA_XSP16, literal(-2)))
          CFI (cfiCond44) DPH0 load(1, XDATA, add(CFA_XSP16, literal(-1)))
          CFI (cfiCond44) CFA_SP SP+-6
          CFI (cfiCond44) CFA_XSP16 add(XSP16, 20)
          CFI Block cfiCond45 Using cfiCommon0
          CFI (cfiCond45) Function MT_ZdoBeaconIndCB
          CFI (cfiCond45) Conditional ??CrossCallReturnLabel_113, ??CrossCallReturnLabel_9
          CFI (cfiCond45) R6 load(1, XDATA, add(CFA_XSP16, literal(-11)))
          CFI (cfiCond45) VB load(1, XDATA, add(CFA_XSP16, literal(-10)))
          CFI (cfiCond45) V0 load(1, XDATA, add(CFA_XSP16, literal(-9)))
          CFI (cfiCond45) V1 load(1, XDATA, add(CFA_XSP16, literal(-8)))
          CFI (cfiCond45) V2 load(1, XDATA, add(CFA_XSP16, literal(-7)))
          CFI (cfiCond45) R7 load(1, XDATA, add(CFA_XSP16, literal(-6)))
          CFI (cfiCond45) ?RET_LOW load(1, XDATA, add(CFA_XSP16, literal(-5)))
          CFI (cfiCond45) ?RET_HIGH load(1, XDATA, add(CFA_XSP16, literal(-4)))
          CFI (cfiCond45) ?BRET_EXT load(1, XDATA, add(CFA_XSP16, literal(-3)))
          CFI (cfiCond45) DPL0 load(1, XDATA, add(CFA_XSP16, literal(-2)))
          CFI (cfiCond45) DPH0 load(1, XDATA, add(CFA_XSP16, literal(-1)))
          CFI (cfiCond45) CFA_SP SP+-4
          CFI (cfiCond45) CFA_XSP16 add(XSP16, 11)
          CFI Block cfiCond46 Using cfiCommon0
          CFI (cfiCond46) Function MT_ZdoBeaconIndCB
          CFI (cfiCond46) Conditional ??CrossCallReturnLabel_113, ??CrossCallReturnLabel_10
          CFI (cfiCond46) R6 load(1, XDATA, add(CFA_XSP16, literal(-11)))
          CFI (cfiCond46) VB load(1, XDATA, add(CFA_XSP16, literal(-10)))
          CFI (cfiCond46) V0 load(1, XDATA, add(CFA_XSP16, literal(-9)))
          CFI (cfiCond46) V1 load(1, XDATA, add(CFA_XSP16, literal(-8)))
          CFI (cfiCond46) V2 load(1, XDATA, add(CFA_XSP16, literal(-7)))
          CFI (cfiCond46) R7 load(1, XDATA, add(CFA_XSP16, literal(-6)))
          CFI (cfiCond46) ?RET_LOW load(1, XDATA, add(CFA_XSP16, literal(-5)))
          CFI (cfiCond46) ?RET_HIGH load(1, XDATA, add(CFA_XSP16, literal(-4)))
          CFI (cfiCond46) ?BRET_EXT load(1, XDATA, add(CFA_XSP16, literal(-3)))
          CFI (cfiCond46) DPL0 load(1, XDATA, add(CFA_XSP16, literal(-2)))
          CFI (cfiCond46) DPH0 load(1, XDATA, add(CFA_XSP16, literal(-1)))
          CFI (cfiCond46) CFA_SP SP+-4
          CFI (cfiCond46) CFA_XSP16 add(XSP16, 11)
          CFI Block cfiCond47 Using cfiCommon0
          CFI (cfiCond47) Function MT_ZdoNodeDescRequest
          CFI (cfiCond47) Conditional ??CrossCallReturnLabel_116, ??CrossCallReturnLabel_0
          CFI (cfiCond47) R6 load(1, XDATA, add(CFA_XSP16, literal(-9)))
          CFI (cfiCond47) VB load(1, XDATA, add(CFA_XSP16, literal(-8)))
          CFI (cfiCond47) V0 load(1, XDATA, add(CFA_XSP16, literal(-7)))
          CFI (cfiCond47) R7 load(1, XDATA, add(CFA_XSP16, literal(-6)))
          CFI (cfiCond47) ?RET_LOW load(1, XDATA, add(CFA_XSP16, literal(-5)))
          CFI (cfiCond47) ?RET_HIGH load(1, XDATA, add(CFA_XSP16, literal(-4)))
          CFI (cfiCond47) ?BRET_EXT load(1, XDATA, add(CFA_XSP16, literal(-3)))
          CFI (cfiCond47) DPL0 load(1, XDATA, add(CFA_XSP16, literal(-2)))
          CFI (cfiCond47) DPH0 load(1, XDATA, add(CFA_XSP16, literal(-1)))
          CFI (cfiCond47) CFA_SP SP+-4
          CFI (cfiCond47) CFA_XSP16 add(XSP16, 19)
          CFI Block cfiCond48 Using cfiCommon0
          CFI (cfiCond48) Function MT_ZdoPowerDescRequest
          CFI (cfiCond48) Conditional ??CrossCallReturnLabel_116, ??CrossCallReturnLabel_1
          CFI (cfiCond48) R6 load(1, XDATA, add(CFA_XSP16, literal(-9)))
          CFI (cfiCond48) VB load(1, XDATA, add(CFA_XSP16, literal(-8)))
          CFI (cfiCond48) V0 load(1, XDATA, add(CFA_XSP16, literal(-7)))
          CFI (cfiCond48) R7 load(1, XDATA, add(CFA_XSP16, literal(-6)))
          CFI (cfiCond48) ?RET_LOW load(1, XDATA, add(CFA_XSP16, literal(-5)))
          CFI (cfiCond48) ?RET_HIGH load(1, XDATA, add(CFA_XSP16, literal(-4)))
          CFI (cfiCond48) ?BRET_EXT load(1, XDATA, add(CFA_XSP16, literal(-3)))
          CFI (cfiCond48) DPL0 load(1, XDATA, add(CFA_XSP16, literal(-2)))
          CFI (cfiCond48) DPH0 load(1, XDATA, add(CFA_XSP16, literal(-1)))
          CFI (cfiCond48) CFA_SP SP+-4
          CFI (cfiCond48) CFA_XSP16 add(XSP16, 19)
          CFI Block cfiCond49 Using cfiCommon0
          CFI (cfiCond49) Function MT_ZdoSimpleDescRequest
          CFI (cfiCond49) Conditional ??CrossCallReturnLabel_116, ??CrossCallReturnLabel_2
          CFI (cfiCond49) R6 load(1, XDATA, add(CFA_XSP16, literal(-9)))
          CFI (cfiCond49) VB load(1, XDATA, add(CFA_XSP16, literal(-8)))
          CFI (cfiCond49) V0 load(1, XDATA, add(CFA_XSP16, literal(-7)))
          CFI (cfiCond49) R7 load(1, XDATA, add(CFA_XSP16, literal(-6)))
          CFI (cfiCond49) ?RET_LOW load(1, XDATA, add(CFA_XSP16, literal(-5)))
          CFI (cfiCond49) ?RET_HIGH load(1, XDATA, add(CFA_XSP16, literal(-4)))
          CFI (cfiCond49) ?BRET_EXT load(1, XDATA, add(CFA_XSP16, literal(-3)))
          CFI (cfiCond49) DPL0 load(1, XDATA, add(CFA_XSP16, literal(-2)))
          CFI (cfiCond49) DPH0 load(1, XDATA, add(CFA_XSP16, literal(-1)))
          CFI (cfiCond49) CFA_SP SP+-4
          CFI (cfiCond49) CFA_XSP16 add(XSP16, 19)
          CFI Block cfiCond50 Using cfiCommon0
          CFI (cfiCond50) Function MT_ZdoActiveEpRequest
          CFI (cfiCond50) Conditional ??CrossCallReturnLabel_116, ??CrossCallReturnLabel_3
          CFI (cfiCond50) R6 load(1, XDATA, add(CFA_XSP16, literal(-9)))
          CFI (cfiCond50) VB load(1, XDATA, add(CFA_XSP16, literal(-8)))
          CFI (cfiCond50) V0 load(1, XDATA, add(CFA_XSP16, literal(-7)))
          CFI (cfiCond50) R7 load(1, XDATA, add(CFA_XSP16, literal(-6)))
          CFI (cfiCond50) ?RET_LOW load(1, XDATA, add(CFA_XSP16, literal(-5)))
          CFI (cfiCond50) ?RET_HIGH load(1, XDATA, add(CFA_XSP16, literal(-4)))
          CFI (cfiCond50) ?BRET_EXT load(1, XDATA, add(CFA_XSP16, literal(-3)))
          CFI (cfiCond50) DPL0 load(1, XDATA, add(CFA_XSP16, literal(-2)))
          CFI (cfiCond50) DPH0 load(1, XDATA, add(CFA_XSP16, literal(-1)))
          CFI (cfiCond50) CFA_SP SP+-4
          CFI (cfiCond50) CFA_XSP16 add(XSP16, 19)
          CFI Block cfiCond51 Using cfiCommon0
          CFI (cfiCond51) Function MT_ZdoComplexDescRequest
          CFI (cfiCond51) Conditional ??CrossCallReturnLabel_116, ??CrossCallReturnLabel_4
          CFI (cfiCond51) R6 load(1, XDATA, add(CFA_XSP16, literal(-9)))
          CFI (cfiCond51) VB load(1, XDATA, add(CFA_XSP16, literal(-8)))
          CFI (cfiCond51) V0 load(1, XDATA, add(CFA_XSP16, literal(-7)))
          CFI (cfiCond51) R7 load(1, XDATA, add(CFA_XSP16, literal(-6)))
          CFI (cfiCond51) ?RET_LOW load(1, XDATA, add(CFA_XSP16, literal(-5)))
          CFI (cfiCond51) ?RET_HIGH load(1, XDATA, add(CFA_XSP16, literal(-4)))
          CFI (cfiCond51) ?BRET_EXT load(1, XDATA, add(CFA_XSP16, literal(-3)))
          CFI (cfiCond51) DPL0 load(1, XDATA, add(CFA_XSP16, literal(-2)))
          CFI (cfiCond51) DPH0 load(1, XDATA, add(CFA_XSP16, literal(-1)))
          CFI (cfiCond51) CFA_SP SP+-4
          CFI (cfiCond51) CFA_XSP16 add(XSP16, 19)
          CFI Block cfiCond52 Using cfiCommon0
          CFI (cfiCond52) Function MT_ZdoUserDescRequest
          CFI (cfiCond52) Conditional ??CrossCallReturnLabel_116, ??CrossCallReturnLabel_5
          CFI (cfiCond52) R6 load(1, XDATA, add(CFA_XSP16, literal(-9)))
          CFI (cfiCond52) VB load(1, XDATA, add(CFA_XSP16, literal(-8)))
          CFI (cfiCond52) V0 load(1, XDATA, add(CFA_XSP16, literal(-7)))
          CFI (cfiCond52) R7 load(1, XDATA, add(CFA_XSP16, literal(-6)))
          CFI (cfiCond52) ?RET_LOW load(1, XDATA, add(CFA_XSP16, literal(-5)))
          CFI (cfiCond52) ?RET_HIGH load(1, XDATA, add(CFA_XSP16, literal(-4)))
          CFI (cfiCond52) ?BRET_EXT load(1, XDATA, add(CFA_XSP16, literal(-3)))
          CFI (cfiCond52) DPL0 load(1, XDATA, add(CFA_XSP16, literal(-2)))
          CFI (cfiCond52) DPH0 load(1, XDATA, add(CFA_XSP16, literal(-1)))
          CFI (cfiCond52) CFA_SP SP+-4
          CFI (cfiCond52) CFA_XSP16 add(XSP16, 19)
          CFI Block cfiCond53 Using cfiCommon0
          CFI (cfiCond53) Function MT_ZdoUserDescSet
          CFI (cfiCond53) Conditional ??CrossCallReturnLabel_116, ??CrossCallReturnLabel_6
          CFI (cfiCond53) R6 load(1, XDATA, add(CFA_XSP16, literal(-12)))
          CFI (cfiCond53) VB load(1, XDATA, add(CFA_XSP16, literal(-11)))
          CFI (cfiCond53) V0 load(1, XDATA, add(CFA_XSP16, literal(-10)))
          CFI (cfiCond53) V1 load(1, XDATA, add(CFA_XSP16, literal(-9)))
          CFI (cfiCond53) V2 load(1, XDATA, add(CFA_XSP16, literal(-8)))
          CFI (cfiCond53) V3 load(1, XDATA, add(CFA_XSP16, literal(-7)))
          CFI (cfiCond53) R7 load(1, XDATA, add(CFA_XSP16, literal(-6)))
          CFI (cfiCond53) ?RET_LOW load(1, XDATA, add(CFA_XSP16, literal(-5)))
          CFI (cfiCond53) ?RET_HIGH load(1, XDATA, add(CFA_XSP16, literal(-4)))
          CFI (cfiCond53) ?BRET_EXT load(1, XDATA, add(CFA_XSP16, literal(-3)))
          CFI (cfiCond53) DPL0 load(1, XDATA, add(CFA_XSP16, literal(-2)))
          CFI (cfiCond53) DPH0 load(1, XDATA, add(CFA_XSP16, literal(-1)))
          CFI (cfiCond53) CFA_SP SP+-4
          CFI (cfiCond53) CFA_XSP16 add(XSP16, 39)
          CFI Block cfiCond54 Using cfiCommon0
          CFI (cfiCond54) Function MT_ZdoServiceDiscRequest
          CFI (cfiCond54) Conditional ??CrossCallReturnLabel_115
          CFI (cfiCond54) R6 load(1, XDATA, add(CFA_XSP16, literal(-9)))
          CFI (cfiCond54) VB load(1, XDATA, add(CFA_XSP16, literal(-8)))
          CFI (cfiCond54) V0 load(1, XDATA, add(CFA_XSP16, literal(-7)))
          CFI (cfiCond54) R7 load(1, XDATA, add(CFA_XSP16, literal(-6)))
          CFI (cfiCond54) ?RET_LOW load(1, XDATA, add(CFA_XSP16, literal(-5)))
          CFI (cfiCond54) ?RET_HIGH load(1, XDATA, add(CFA_XSP16, literal(-4)))
          CFI (cfiCond54) ?BRET_EXT load(1, XDATA, add(CFA_XSP16, literal(-3)))
          CFI (cfiCond54) DPL0 load(1, XDATA, add(CFA_XSP16, literal(-2)))
          CFI (cfiCond54) DPH0 load(1, XDATA, add(CFA_XSP16, literal(-1)))
          CFI (cfiCond54) CFA_SP SP+-2
          CFI (cfiCond54) CFA_XSP16 add(XSP16, 10)
          CFI Block cfiCond55 Using cfiCommon0
          CFI (cfiCond55) Function MT_ZdoUserDescSet
          CFI (cfiCond55) Conditional ??CrossCallReturnLabel_117, ??CrossCallReturnLabel_91
          CFI (cfiCond55) R6 load(1, XDATA, add(CFA_XSP16, literal(-12)))
          CFI (cfiCond55) VB load(1, XDATA, add(CFA_XSP16, literal(-11)))
          CFI (cfiCond55) V0 load(1, XDATA, add(CFA_XSP16, literal(-10)))
          CFI (cfiCond55) V1 load(1, XDATA, add(CFA_XSP16, literal(-9)))
          CFI (cfiCond55) V2 load(1, XDATA, add(CFA_XSP16, literal(-8)))
          CFI (cfiCond55) V3 load(1, XDATA, add(CFA_XSP16, literal(-7)))
          CFI (cfiCond55) R7 load(1, XDATA, add(CFA_XSP16, literal(-6)))
          CFI (cfiCond55) ?RET_LOW load(1, XDATA, add(CFA_XSP16, literal(-5)))
          CFI (cfiCond55) ?RET_HIGH load(1, XDATA, add(CFA_XSP16, literal(-4)))
          CFI (cfiCond55) ?BRET_EXT load(1, XDATA, add(CFA_XSP16, literal(-3)))
          CFI (cfiCond55) DPL0 load(1, XDATA, add(CFA_XSP16, literal(-2)))
          CFI (cfiCond55) DPH0 load(1, XDATA, add(CFA_XSP16, literal(-1)))
          CFI (cfiCond55) CFA_SP SP+-4
          CFI (cfiCond55) CFA_XSP16 add(XSP16, 39)
          CFI Block cfiCond56 Using cfiCommon0
          CFI (cfiCond56) Function MT_ZdoRegisterForZDOMsg
          CFI (cfiCond56) Conditional ??CrossCallReturnLabel_117, ??CrossCallReturnLabel_92, ??CrossCallReturnLabel_13
          CFI (cfiCond56) R6 load(1, XDATA, add(CFA_XSP16, literal(-9)))
          CFI (cfiCond56) VB load(1, XDATA, add(CFA_XSP16, literal(-8)))
          CFI (cfiCond56) V0 load(1, XDATA, add(CFA_XSP16, literal(-7)))
          CFI (cfiCond56) R7 load(1, XDATA, add(CFA_XSP16, literal(-6)))
          CFI (cfiCond56) ?RET_LOW load(1, XDATA, add(CFA_XSP16, literal(-5)))
          CFI (cfiCond56) ?RET_HIGH load(1, XDATA, add(CFA_XSP16, literal(-4)))
          CFI (cfiCond56) ?BRET_EXT load(1, XDATA, add(CFA_XSP16, literal(-3)))
          CFI (cfiCond56) DPL0 load(1, XDATA, add(CFA_XSP16, literal(-2)))
          CFI (cfiCond56) DPH0 load(1, XDATA, add(CFA_XSP16, literal(-1)))
          CFI (cfiCond56) CFA_SP SP+-6
          CFI (cfiCond56) CFA_XSP16 add(XSP16, 10)
          CFI Block cfiCond57 Using cfiCommon0
          CFI (cfiCond57) Function MT_ZdoRemoveRegisteredCB
          CFI (cfiCond57) Conditional ??CrossCallReturnLabel_117, ??CrossCallReturnLabel_92, ??CrossCallReturnLabel_14
          CFI (cfiCond57) R6 load(1, XDATA, add(CFA_XSP16, literal(-9)))
          CFI (cfiCond57) VB load(1, XDATA, add(CFA_XSP16, literal(-8)))
          CFI (cfiCond57) V0 load(1, XDATA, add(CFA_XSP16, literal(-7)))
          CFI (cfiCond57) R7 load(1, XDATA, add(CFA_XSP16, literal(-6)))
          CFI (cfiCond57) ?RET_LOW load(1, XDATA, add(CFA_XSP16, literal(-5)))
          CFI (cfiCond57) ?RET_HIGH load(1, XDATA, add(CFA_XSP16, literal(-4)))
          CFI (cfiCond57) ?BRET_EXT load(1, XDATA, add(CFA_XSP16, literal(-3)))
          CFI (cfiCond57) DPL0 load(1, XDATA, add(CFA_XSP16, literal(-2)))
          CFI (cfiCond57) DPH0 load(1, XDATA, add(CFA_XSP16, literal(-1)))
          CFI (cfiCond57) CFA_SP SP+-6
          CFI (cfiCond57) CFA_XSP16 add(XSP16, 10)
          CFI Block cfiPicker58 Using cfiCommon1
          CFI (cfiPicker58) NoFunction
          CFI (cfiPicker58) Picker
        MOVX      A,@DPTR
        MOV       R4,A
        INC       DPTR
        MOVX      A,@DPTR
        RET
          CFI EndBlock cfiCond37
          CFI EndBlock cfiCond38
          CFI EndBlock cfiCond39
          CFI EndBlock cfiCond40
          CFI EndBlock cfiCond41
          CFI EndBlock cfiCond42
          CFI EndBlock cfiCond43
          CFI EndBlock cfiCond44
          CFI EndBlock cfiCond45
          CFI EndBlock cfiCond46
          CFI EndBlock cfiCond47
          CFI EndBlock cfiCond48
          CFI EndBlock cfiCond49
          CFI EndBlock cfiCond50
          CFI EndBlock cfiCond51
          CFI EndBlock cfiCond52
          CFI EndBlock cfiCond53
          CFI EndBlock cfiCond54
          CFI EndBlock cfiCond55
          CFI EndBlock cfiCond56
          CFI EndBlock cfiCond57
          CFI EndBlock cfiPicker58
//  591 
//  592 /***************************************************************************************************
//  593  * @fn      MT_ZdoMatchDescRequest
//  594  *
//  595  * @brief   Handle a Match Descriptor request.
//  596  *
//  597  * @param   pBuf  - MT message data
//  598  *
//  599  * @return  void
//  600  ***************************************************************************************************/

        RSEG BANKED_CODE:HUGECODE:NOROOT(0)
//  601 void MT_ZdoMatchDescRequest(uint8 *pBuf)
MT_ZdoMatchDescRequest:
          CFI Block cfiBlock59 Using cfiCommon0
          CFI Function MT_ZdoMatchDescRequest
        CODE
//  602 {
        FUNCALL MT_ZdoMatchDescRequest, ZDP_MatchDescReq
        LOCFRAME ISTACK, 0, STACK
        LOCFRAME PSTACK, 0, STACK
        LOCFRAME XSTACK, 96, STACK
        LOCFRAME IOVERLAY, 0, STATIC
        LOCFRAME DOVERLAY, 0, STATIC
        ARGFRAME ISTACK, 0, STACK
        ARGFRAME PSTACK, 0, STACK
        ARGFRAME XSTACK, 96, STACK
        ARGFRAME IOVERLAY, 0, STATIC
        ARGFRAME DOVERLAY, 0, STATIC
        FUNCALL MT_ZdoMatchDescRequest, MT_BuildAndSendZToolResponse
        LOCFRAME ISTACK, 0, STACK
        LOCFRAME PSTACK, 0, STACK
        LOCFRAME XSTACK, 88, STACK
        LOCFRAME IOVERLAY, 0, STATIC
        LOCFRAME DOVERLAY, 0, STATIC
        ARGFRAME ISTACK, 0, STACK
        ARGFRAME PSTACK, 0, STACK
        ARGFRAME XSTACK, 88, STACK
        ARGFRAME IOVERLAY, 0, STATIC
        ARGFRAME DOVERLAY, 0, STATIC
        REQUIRE ?V0
        REQUIRE ?V1
        REQUIRE ?V2
        REQUIRE ?V3
        REQUIRE ?V4
        REQUIRE ?V5
        MOV       A,#-0xe
        LCALL     ?BANKED_ENTER_XDATA
          CFI DPH0 load(1, XDATA, add(CFA_XSP16, literal(-1)))
          CFI DPL0 load(1, XDATA, add(CFA_XSP16, literal(-2)))
          CFI ?BRET_EXT load(1, XDATA, add(CFA_XSP16, literal(-3)))
          CFI ?RET_HIGH load(1, XDATA, add(CFA_XSP16, literal(-4)))
          CFI ?RET_LOW load(1, XDATA, add(CFA_XSP16, literal(-5)))
          CFI R7 load(1, XDATA, add(CFA_XSP16, literal(-6)))
          CFI V5 load(1, XDATA, add(CFA_XSP16, literal(-7)))
          CFI V4 load(1, XDATA, add(CFA_XSP16, literal(-8)))
          CFI V3 load(1, XDATA, add(CFA_XSP16, literal(-9)))
          CFI V2 load(1, XDATA, add(CFA_XSP16, literal(-10)))
          CFI V1 load(1, XDATA, add(CFA_XSP16, literal(-11)))
          CFI V0 load(1, XDATA, add(CFA_XSP16, literal(-12)))
          CFI VB load(1, XDATA, add(CFA_XSP16, literal(-13)))
          CFI R6 load(1, XDATA, add(CFA_XSP16, literal(-14)))
          CFI CFA_SP SP+0
          CFI CFA_XSP16 add(XSP16, 14)
        ; Saved register size: 14
        ; Auto size: 74
        MOV       A,#-0x4a
        LCALL     ?ALLOC_XSTACK8
          CFI CFA_XSP16 add(XSP16, 88)
        MOV       A,R2
        MOV       R0,A
        MOV       A,R3
        MOV       R1,A
//  603   uint8 cmdId;
//  604   uint8 retValue = 0;
        MOV       DPL,?XSP + 0
        MOV       DPH,?XSP + 1
        CLR       A
        LCALL     ?Subroutine37 & 0xFFFF
//  605   uint8 i, numInClusters, numOutClusters;
//  606   uint16 profileId;
//  607   zAddrType_t destAddr;
//  608   uint16 shortAddr;
//  609   uint16 inClusters[MTZDO_MAX_MATCH_CLUSTERS], outClusters[MTZDO_MAX_MATCH_CLUSTERS];
//  610 
//  611   /* parse header */
//  612   cmdId = pBuf[MT_RPC_POS_CMD1];
??CrossCallReturnLabel_66:
        INC       DPTR
        MOVX      A,@DPTR
        MOV       R6,A
//  613   pBuf += MT_RPC_FRAME_HDR_SZ;
        MOV       A,R0
        ADD       A,#0x3
        MOV       R0,A
        JNC       ??MT_ZdoMatchDescRequest_0
        INC       R1
//  614 
//  615   /* Dev address */
//  616   destAddr.addrMode = Addr16Bit;
??MT_ZdoMatchDescRequest_0:
        MOV       A,#0x9
        LCALL     ?XSTACK_DISP0_8
        MOV       A,#0x2
        LCALL     ?Subroutine54 & 0xFFFF
//  617   destAddr.addr.shortAddr = BUILD_UINT16( pBuf[0], pBuf[1] );
??CrossCallReturnLabel_99:
        LCALL     ??Subroutine60_0 & 0xFFFF
??CrossCallReturnLabel_112:
        MOV       R3,A
        MOV       A,R4
        MOV       R2,A
        MOV       A,#0x1
        LCALL     ?XSTACK_DISP0_8
        MOV       A,R2
        MOVX      @DPTR,A
        INC       DPTR
        MOV       A,R3
        MOVX      @DPTR,A
//  618   pBuf += 2;
        MOV       A,R0
        ADD       A,#0x2
        MOV       R0,A
        JNC       ??MT_ZdoMatchDescRequest_1
        INC       R1
//  619 
//  620   /* Network address of interest */
//  621   shortAddr = BUILD_UINT16( pBuf[0], pBuf[1] );
??MT_ZdoMatchDescRequest_1:
        MOV       DPL,R0
        MOV       DPH,R1
        LCALL     ?Subroutine16 & 0xFFFF
//  622   pBuf += 2;
??CrossCallReturnLabel_20:
        MOV       A,R0
        ADD       A,#0x2
        MOV       R0,A
        JNC       ??MT_ZdoMatchDescRequest_2
        INC       R1
//  623 
//  624   /* Profile ID */
//  625   profileId = BUILD_UINT16( pBuf[0], pBuf[1] );
??MT_ZdoMatchDescRequest_2:
        MOV       DPL,R0
        MOV       DPH,R1
        LCALL     ?Subroutine17 & 0xFFFF
//  626   pBuf += 2;
//  627 
//  628   /* NumInClusters */
//  629   numInClusters = *pBuf++;
??CrossCallReturnLabel_22:
        MOV       DPL,R0
        MOV       DPH,R1
        INC       DPTR
        INC       DPTR
        MOVX      A,@DPTR
        MOV       R7,A
        MOV       A,R0
        ADD       A,#0x3
        MOV       R0,A
        JNC       ??MT_ZdoMatchDescRequest_3
        INC       R1
//  630   if ( numInClusters <= MTZDO_MAX_MATCH_CLUSTERS )
??MT_ZdoMatchDescRequest_3:
        MOV       A,R7
        CLR       C
        SUBB      A,#0x11
        JNC       ??MT_ZdoMatchDescRequest_4
//  631   {
//  632     /* IN clusters */
//  633     for ( i = 0; i < numInClusters; i++ )
        MOV       ?V3,#0x0
??MT_ZdoMatchDescRequest_5:
        MOV       A,?V3
        CLR       C
        SUBB      A,R7
        JNC       ??MT_ZdoMatchDescRequest_6
//  634     {
//  635       inClusters[i] = BUILD_UINT16( pBuf[0], pBuf[1]);
        MOV       DPL,R0
        MOV       DPH,R1
        MOVX      A,@DPTR
        MOV       ?V4,A
        INC       DPTR
        MOVX      A,@DPTR
        MOV       ?V1,A
        MOV       A,?V4
        ADD       A,#0x0
        CLR       A
        ADDC      A,?V1
        MOV       ?V5,A
        LCALL     ?Subroutine42 & 0xFFFF
//  636       pBuf += 2;
//  637     }
??CrossCallReturnLabel_76:
        MOV       A,#0x2a
        LCALL     ?XSTACK_DISP0_8
        LCALL     ?Subroutine29 & 0xFFFF
??CrossCallReturnLabel_44:
        JNC       ??MT_ZdoMatchDescRequest_7
        INC       R1
??MT_ZdoMatchDescRequest_7:
        INC       ?V3
        SJMP      ??MT_ZdoMatchDescRequest_5
//  638   }
//  639   else
//  640   {
//  641     retValue = ZDP_INVALID_REQTYPE;
??MT_ZdoMatchDescRequest_4:
        MOV       DPL,?XSP + 0
        MOV       DPH,?XSP + 1
        MOV       A,#-0x80
        MOVX      @DPTR,A
//  642   }
//  643 
//  644   /* NumOutClusters */
//  645   numOutClusters = *pBuf++;
??MT_ZdoMatchDescRequest_6:
        MOV       DPL,R0
        MOV       DPH,R1
        MOVX      A,@DPTR
        MOV       ?V2,A
        INC       DPTR
        MOV       R0,DPL
        MOV       R1,DPH
//  646   if ( numOutClusters <= MTZDO_MAX_MATCH_CLUSTERS )
        CLR       C
        SUBB      A,#0x11
        JNC       ??MT_ZdoMatchDescRequest_8
//  647   {
//  648     /* OUT Clusters */
//  649     for ( i = 0; i < numOutClusters; i++ )
        MOV       ?V3,#0x0
??MT_ZdoMatchDescRequest_9:
        MOV       A,?V3
        CLR       C
        SUBB      A,?V2
        JNC       ??MT_ZdoMatchDescRequest_10
//  650     {
//  651       outClusters[i] = BUILD_UINT16( pBuf[0], pBuf[1]);
        MOV       DPL,R0
        MOV       DPH,R1
        LCALL     ?Subroutine48 & 0xFFFF
//  652       pBuf += 2;
//  653     }
??CrossCallReturnLabel_89:
        LCALL     ?Subroutine42 & 0xFFFF
??CrossCallReturnLabel_77:
        MOV       A,#0xa
        LCALL     ?XSTACK_DISP0_8
        LCALL     ?Subroutine29 & 0xFFFF
??CrossCallReturnLabel_45:
        JNC       ??MT_ZdoMatchDescRequest_11
        INC       R1
??MT_ZdoMatchDescRequest_11:
        INC       ?V3
        SJMP      ??MT_ZdoMatchDescRequest_9
//  654   }
//  655   else
//  656   {
//  657     retValue = ZDP_INVALID_REQTYPE;
??MT_ZdoMatchDescRequest_8:
        MOV       DPL,?XSP + 0
        MOV       DPH,?XSP + 1
        MOV       A,#-0x80
        SJMP      ??MT_ZdoMatchDescRequest_12
//  658   }
//  659 
//  660   if ( retValue == 0 )
??MT_ZdoMatchDescRequest_10:
        MOV       DPL,?XSP + 0
        MOV       DPH,?XSP + 1
        MOVX      A,@DPTR
        JNZ       ??MT_ZdoMatchDescRequest_13
//  661   {
//  662     retValue = (uint8)ZDP_MatchDescReq( &destAddr, shortAddr, profileId, numInClusters,
//  663                                        inClusters, numOutClusters, outClusters, 0);
        ; Setup parameters for call to function ZDP_MatchDescReq
        MOV       ?V0,#0x0
        MOV       R0,#?V0
        LCALL     ?PUSH_XSTACK_I_ONE
          CFI CFA_XSP16 add(XSP16, 89)
        MOV       A,#0xb
        LCALL     ?XSTACK_DISP100_8
        MOV       ?V0,R0
        MOV       ?V1,R1
        MOV       R0,#?V0
        LCALL     ?PUSH_XSTACK_I_TWO
          CFI CFA_XSP16 add(XSP16, 91)
        MOV       A,?V2
        MOV       ?V0,A
        MOV       R0,#?V0
        LCALL     ?PUSH_XSTACK_I_ONE
          CFI CFA_XSP16 add(XSP16, 92)
        MOV       A,#0x2e
        LCALL     ?XSTACK_DISP100_8
        MOV       ?V0,R0
        MOV       ?V1,R1
        MOV       R0,#?V0
        LCALL     ?PUSH_XSTACK_I_TWO
          CFI CFA_XSP16 add(XSP16, 94)
        MOV       ?V0,R2
        MOV       ?V1,R3
        MOV       R0,#?V0
        LCALL     ?PUSH_XSTACK_I_TWO
          CFI CFA_XSP16 add(XSP16, 96)
        MOV       A,R7
        MOV       R1,A
        MOV       A,#0x9
        LCALL     ?XSTACK_DISP101_8
        LCALL     `??ZDP_MatchDescReq::?relay`; Banked call to: ZDP_MatchDescReq
        MOV       A,#0x8
        LCALL     ?DEALLOC_XSTACK8
          CFI CFA_XSP16 add(XSP16, 88)
        MOV       A,R1
        MOV       DPL,?XSP + 0
        MOV       DPH,?XSP + 1
??MT_ZdoMatchDescRequest_12:
        MOVX      @DPTR,A
//  664   }
//  665 
//  666   MT_BuildAndSendZToolResponse(((uint8)MT_RPC_CMD_SRSP | (uint8)MT_RPC_SYS_ZDO), cmdId, 1, &retValue);
??MT_ZdoMatchDescRequest_13:
        ; Setup parameters for call to function MT_BuildAndSendZToolResponse
        MOV       R4,?XSP + 0
        MOV       R5,?XSP + 1
        MOV       R3,#0x1
        MOV       A,R6
        MOV       R2,A
        MOV       R1,#0x65
        LCALL     `??MT_BuildAndSendZToolResponse::?relay`; Banked call to: MT_BuildAndSendZToolResponse
//  667 }
        MOV       A,#0x4a
        LCALL     ?DEALLOC_XSTACK8
          CFI EndBlock cfiBlock59
        REQUIRE ?Subroutine2
        ; // Fall through to label ?Subroutine2

        RSEG BANKED_CODE:HUGECODE:NOROOT(0)
?Subroutine2:
          CFI Block cfiBlock60 Using cfiCommon0
          CFI NoFunction
          CFI CFA_SP SP+0
          CFI CFA_XSP16 add(XSP16, 14)
          CFI VB load(1, XDATA, add(CFA_XSP16, literal(-13)))
          CFI DPL0 load(1, XDATA, add(CFA_XSP16, literal(-2)))
          CFI DPH0 load(1, XDATA, add(CFA_XSP16, literal(-1)))
          CFI R6 load(1, XDATA, add(CFA_XSP16, literal(-14)))
          CFI R7 load(1, XDATA, add(CFA_XSP16, literal(-6)))
          CFI V0 load(1, XDATA, add(CFA_XSP16, literal(-12)))
          CFI V1 load(1, XDATA, add(CFA_XSP16, literal(-11)))
          CFI V2 load(1, XDATA, add(CFA_XSP16, literal(-10)))
          CFI V3 load(1, XDATA, add(CFA_XSP16, literal(-9)))
          CFI V4 load(1, XDATA, add(CFA_XSP16, literal(-8)))
          CFI V5 load(1, XDATA, add(CFA_XSP16, literal(-7)))
          CFI ?BRET_EXT load(1, XDATA, add(CFA_XSP16, literal(-3)))
          CFI ?RET_HIGH load(1, XDATA, add(CFA_XSP16, literal(-4)))
          CFI ?RET_LOW load(1, XDATA, add(CFA_XSP16, literal(-5)))
        MOV       R7,#0x6
        LJMP      ?BANKED_LEAVE_XDATA
          CFI EndBlock cfiBlock60

        RSEG BANKED_CODE:HUGECODE:NOROOT(0)
?Subroutine42:
          CFI Block cfiCond61 Using cfiCommon0
          CFI Function MT_ZdoMatchDescRequest
          CFI Conditional ??CrossCallReturnLabel_76
          CFI R6 load(1, XDATA, add(CFA_XSP16, literal(-14)))
          CFI VB load(1, XDATA, add(CFA_XSP16, literal(-13)))
          CFI V0 load(1, XDATA, add(CFA_XSP16, literal(-12)))
          CFI V1 load(1, XDATA, add(CFA_XSP16, literal(-11)))
          CFI V2 load(1, XDATA, add(CFA_XSP16, literal(-10)))
          CFI V3 load(1, XDATA, add(CFA_XSP16, literal(-9)))
          CFI V4 load(1, XDATA, add(CFA_XSP16, literal(-8)))
          CFI V5 load(1, XDATA, add(CFA_XSP16, literal(-7)))
          CFI R7 load(1, XDATA, add(CFA_XSP16, literal(-6)))
          CFI ?RET_LOW load(1, XDATA, add(CFA_XSP16, literal(-5)))
          CFI ?RET_HIGH load(1, XDATA, add(CFA_XSP16, literal(-4)))
          CFI ?BRET_EXT load(1, XDATA, add(CFA_XSP16, literal(-3)))
          CFI DPL0 load(1, XDATA, add(CFA_XSP16, literal(-2)))
          CFI DPH0 load(1, XDATA, add(CFA_XSP16, literal(-1)))
          CFI CFA_SP SP+-2
          CFI CFA_XSP16 add(XSP16, 88)
          CFI Block cfiCond62 Using cfiCommon0
          CFI (cfiCond62) Function MT_ZdoMatchDescRequest
          CFI (cfiCond62) Conditional ??CrossCallReturnLabel_77
          CFI (cfiCond62) R6 load(1, XDATA, add(CFA_XSP16, literal(-14)))
          CFI (cfiCond62) VB load(1, XDATA, add(CFA_XSP16, literal(-13)))
          CFI (cfiCond62) V0 load(1, XDATA, add(CFA_XSP16, literal(-12)))
          CFI (cfiCond62) V1 load(1, XDATA, add(CFA_XSP16, literal(-11)))
          CFI (cfiCond62) V2 load(1, XDATA, add(CFA_XSP16, literal(-10)))
          CFI (cfiCond62) V3 load(1, XDATA, add(CFA_XSP16, literal(-9)))
          CFI (cfiCond62) V4 load(1, XDATA, add(CFA_XSP16, literal(-8)))
          CFI (cfiCond62) V5 load(1, XDATA, add(CFA_XSP16, literal(-7)))
          CFI (cfiCond62) R7 load(1, XDATA, add(CFA_XSP16, literal(-6)))
          CFI (cfiCond62) ?RET_LOW load(1, XDATA, add(CFA_XSP16, literal(-5)))
          CFI (cfiCond62) ?RET_HIGH load(1, XDATA, add(CFA_XSP16, literal(-4)))
          CFI (cfiCond62) ?BRET_EXT load(1, XDATA, add(CFA_XSP16, literal(-3)))
          CFI (cfiCond62) DPL0 load(1, XDATA, add(CFA_XSP16, literal(-2)))
          CFI (cfiCond62) DPH0 load(1, XDATA, add(CFA_XSP16, literal(-1)))
          CFI (cfiCond62) CFA_SP SP+-2
          CFI (cfiCond62) CFA_XSP16 add(XSP16, 88)
          CFI Block cfiPicker63 Using cfiCommon1
          CFI (cfiPicker63) NoFunction
          CFI (cfiPicker63) Picker
        MOV       A,?V3
        LCALL     ?Subroutine55 & 0xFFFF
??CrossCallReturnLabel_104:
        RET
          CFI EndBlock cfiCond61
          CFI EndBlock cfiCond62
          CFI EndBlock cfiPicker63

        RSEG BANKED_CODE:HUGECODE:NOROOT(0)
?Subroutine29:
          CFI Block cfiCond64 Using cfiCommon0
          CFI Function MT_ZdoMatchDescRequest
          CFI Conditional ??CrossCallReturnLabel_44
          CFI R6 load(1, XDATA, add(CFA_XSP16, literal(-14)))
          CFI VB load(1, XDATA, add(CFA_XSP16, literal(-13)))
          CFI V0 load(1, XDATA, add(CFA_XSP16, literal(-12)))
          CFI V1 load(1, XDATA, add(CFA_XSP16, literal(-11)))
          CFI V2 load(1, XDATA, add(CFA_XSP16, literal(-10)))
          CFI V3 load(1, XDATA, add(CFA_XSP16, literal(-9)))
          CFI V4 load(1, XDATA, add(CFA_XSP16, literal(-8)))
          CFI V5 load(1, XDATA, add(CFA_XSP16, literal(-7)))
          CFI R7 load(1, XDATA, add(CFA_XSP16, literal(-6)))
          CFI ?RET_LOW load(1, XDATA, add(CFA_XSP16, literal(-5)))
          CFI ?RET_HIGH load(1, XDATA, add(CFA_XSP16, literal(-4)))
          CFI ?BRET_EXT load(1, XDATA, add(CFA_XSP16, literal(-3)))
          CFI DPL0 load(1, XDATA, add(CFA_XSP16, literal(-2)))
          CFI DPH0 load(1, XDATA, add(CFA_XSP16, literal(-1)))
          CFI CFA_SP SP+-2
          CFI CFA_XSP16 add(XSP16, 88)
          CFI Block cfiCond65 Using cfiCommon0
          CFI (cfiCond65) Function MT_ZdoMatchDescRequest
          CFI (cfiCond65) Conditional ??CrossCallReturnLabel_45
          CFI (cfiCond65) R6 load(1, XDATA, add(CFA_XSP16, literal(-14)))
          CFI (cfiCond65) VB load(1, XDATA, add(CFA_XSP16, literal(-13)))
          CFI (cfiCond65) V0 load(1, XDATA, add(CFA_XSP16, literal(-12)))
          CFI (cfiCond65) V1 load(1, XDATA, add(CFA_XSP16, literal(-11)))
          CFI (cfiCond65) V2 load(1, XDATA, add(CFA_XSP16, literal(-10)))
          CFI (cfiCond65) V3 load(1, XDATA, add(CFA_XSP16, literal(-9)))
          CFI (cfiCond65) V4 load(1, XDATA, add(CFA_XSP16, literal(-8)))
          CFI (cfiCond65) V5 load(1, XDATA, add(CFA_XSP16, literal(-7)))
          CFI (cfiCond65) R7 load(1, XDATA, add(CFA_XSP16, literal(-6)))
          CFI (cfiCond65) ?RET_LOW load(1, XDATA, add(CFA_XSP16, literal(-5)))
          CFI (cfiCond65) ?RET_HIGH load(1, XDATA, add(CFA_XSP16, literal(-4)))
          CFI (cfiCond65) ?BRET_EXT load(1, XDATA, add(CFA_XSP16, literal(-3)))
          CFI (cfiCond65) DPL0 load(1, XDATA, add(CFA_XSP16, literal(-2)))
          CFI (cfiCond65) DPH0 load(1, XDATA, add(CFA_XSP16, literal(-1)))
          CFI (cfiCond65) CFA_SP SP+-2
          CFI (cfiCond65) CFA_XSP16 add(XSP16, 88)
          CFI Block cfiPicker66 Using cfiCommon1
          CFI (cfiPicker66) NoFunction
          CFI (cfiPicker66) Picker
        LCALL     ?Subroutine53 & 0xFFFF
??CrossCallReturnLabel_97:
        MOV       A,R0
        ADD       A,#0x2
        MOV       R0,A
        RET
          CFI EndBlock cfiCond64
          CFI EndBlock cfiCond65
          CFI EndBlock cfiPicker66

        RSEG BANKED_CODE:HUGECODE:NOROOT(0)
?Subroutine17:
          CFI Block cfiCond67 Using cfiCommon0
          CFI Function MT_ZdoIEEEAddrRequest
          CFI Conditional ??CrossCallReturnLabel_21
          CFI R6 load(1, XDATA, add(CFA_XSP16, literal(-10)))
          CFI VB load(1, XDATA, add(CFA_XSP16, literal(-9)))
          CFI V0 load(1, XDATA, add(CFA_XSP16, literal(-8)))
          CFI V1 load(1, XDATA, add(CFA_XSP16, literal(-7)))
          CFI R7 load(1, XDATA, add(CFA_XSP16, literal(-6)))
          CFI ?RET_LOW load(1, XDATA, add(CFA_XSP16, literal(-5)))
          CFI ?RET_HIGH load(1, XDATA, add(CFA_XSP16, literal(-4)))
          CFI ?BRET_EXT load(1, XDATA, add(CFA_XSP16, literal(-3)))
          CFI DPL0 load(1, XDATA, add(CFA_XSP16, literal(-2)))
          CFI DPH0 load(1, XDATA, add(CFA_XSP16, literal(-1)))
          CFI CFA_SP SP+-2
          CFI CFA_XSP16 add(XSP16, 11)
          CFI Block cfiCond68 Using cfiCommon0
          CFI (cfiCond68) Function MT_ZdoMatchDescRequest
          CFI (cfiCond68) Conditional ??CrossCallReturnLabel_22
          CFI (cfiCond68) R6 load(1, XDATA, add(CFA_XSP16, literal(-14)))
          CFI (cfiCond68) VB load(1, XDATA, add(CFA_XSP16, literal(-13)))
          CFI (cfiCond68) V0 load(1, XDATA, add(CFA_XSP16, literal(-12)))
          CFI (cfiCond68) V1 load(1, XDATA, add(CFA_XSP16, literal(-11)))
          CFI (cfiCond68) V2 load(1, XDATA, add(CFA_XSP16, literal(-10)))
          CFI (cfiCond68) V3 load(1, XDATA, add(CFA_XSP16, literal(-9)))
          CFI (cfiCond68) V4 load(1, XDATA, add(CFA_XSP16, literal(-8)))
          CFI (cfiCond68) V5 load(1, XDATA, add(CFA_XSP16, literal(-7)))
          CFI (cfiCond68) R7 load(1, XDATA, add(CFA_XSP16, literal(-6)))
          CFI (cfiCond68) ?RET_LOW load(1, XDATA, add(CFA_XSP16, literal(-5)))
          CFI (cfiCond68) ?RET_HIGH load(1, XDATA, add(CFA_XSP16, literal(-4)))
          CFI (cfiCond68) ?BRET_EXT load(1, XDATA, add(CFA_XSP16, literal(-3)))
          CFI (cfiCond68) DPL0 load(1, XDATA, add(CFA_XSP16, literal(-2)))
          CFI (cfiCond68) DPH0 load(1, XDATA, add(CFA_XSP16, literal(-1)))
          CFI (cfiCond68) CFA_SP SP+-2
          CFI (cfiCond68) CFA_XSP16 add(XSP16, 88)
          CFI Block cfiCond69 Using cfiCommon0
          CFI (cfiCond69) Function MT_ZdoEndDevBindRequest
          CFI (cfiCond69) Conditional ??CrossCallReturnLabel_23
          CFI (cfiCond69) R6 load(1, XDATA, add(CFA_XSP16, literal(-15)))
          CFI (cfiCond69) VB load(1, XDATA, add(CFA_XSP16, literal(-14)))
          CFI (cfiCond69) V0 load(1, XDATA, add(CFA_XSP16, literal(-13)))
          CFI (cfiCond69) V1 load(1, XDATA, add(CFA_XSP16, literal(-12)))
          CFI (cfiCond69) V2 load(1, XDATA, add(CFA_XSP16, literal(-11)))
          CFI (cfiCond69) V3 load(1, XDATA, add(CFA_XSP16, literal(-10)))
          CFI (cfiCond69) V4 load(1, XDATA, add(CFA_XSP16, literal(-9)))
          CFI (cfiCond69) V5 load(1, XDATA, add(CFA_XSP16, literal(-8)))
          CFI (cfiCond69) V6 load(1, XDATA, add(CFA_XSP16, literal(-7)))
          CFI (cfiCond69) R7 load(1, XDATA, add(CFA_XSP16, literal(-6)))
          CFI (cfiCond69) ?RET_LOW load(1, XDATA, add(CFA_XSP16, literal(-5)))
          CFI (cfiCond69) ?RET_HIGH load(1, XDATA, add(CFA_XSP16, literal(-4)))
          CFI (cfiCond69) ?BRET_EXT load(1, XDATA, add(CFA_XSP16, literal(-3)))
          CFI (cfiCond69) DPL0 load(1, XDATA, add(CFA_XSP16, literal(-2)))
          CFI (cfiCond69) DPH0 load(1, XDATA, add(CFA_XSP16, literal(-1)))
          CFI (cfiCond69) CFA_SP SP+-2
          CFI (cfiCond69) CFA_XSP16 add(XSP16, 85)
          CFI Block cfiPicker70 Using cfiCommon1
          CFI (cfiPicker70) NoFunction
          CFI (cfiPicker70) Picker
        MOVX      A,@DPTR
        MOV       ?V0,A
        INC       DPTR
        MOVX      A,@DPTR
        MOV       R3,A
        MOV       R2,?V0
        RET
          CFI EndBlock cfiCond67
          CFI EndBlock cfiCond68
          CFI EndBlock cfiCond69
          CFI EndBlock cfiPicker70

        RSEG BANKED_CODE:HUGECODE:NOROOT(0)
?Subroutine16:
          CFI Block cfiCond71 Using cfiCommon0
          CFI Function MT_ZdoNodeDescRequest
          CFI Conditional ??CrossCallReturnLabel_19
          CFI R6 load(1, XDATA, add(CFA_XSP16, literal(-9)))
          CFI VB load(1, XDATA, add(CFA_XSP16, literal(-8)))
          CFI V0 load(1, XDATA, add(CFA_XSP16, literal(-7)))
          CFI R7 load(1, XDATA, add(CFA_XSP16, literal(-6)))
          CFI ?RET_LOW load(1, XDATA, add(CFA_XSP16, literal(-5)))
          CFI ?RET_HIGH load(1, XDATA, add(CFA_XSP16, literal(-4)))
          CFI ?BRET_EXT load(1, XDATA, add(CFA_XSP16, literal(-3)))
          CFI DPL0 load(1, XDATA, add(CFA_XSP16, literal(-2)))
          CFI DPH0 load(1, XDATA, add(CFA_XSP16, literal(-1)))
          CFI CFA_SP SP+-2
          CFI CFA_XSP16 add(XSP16, 20)
          CFI Block cfiCond72 Using cfiCommon0
          CFI (cfiCond72) Function MT_ZdoMatchDescRequest
          CFI (cfiCond72) Conditional ??CrossCallReturnLabel_20
          CFI (cfiCond72) R6 load(1, XDATA, add(CFA_XSP16, literal(-14)))
          CFI (cfiCond72) VB load(1, XDATA, add(CFA_XSP16, literal(-13)))
          CFI (cfiCond72) V0 load(1, XDATA, add(CFA_XSP16, literal(-12)))
          CFI (cfiCond72) V1 load(1, XDATA, add(CFA_XSP16, literal(-11)))
          CFI (cfiCond72) V2 load(1, XDATA, add(CFA_XSP16, literal(-10)))
          CFI (cfiCond72) V3 load(1, XDATA, add(CFA_XSP16, literal(-9)))
          CFI (cfiCond72) V4 load(1, XDATA, add(CFA_XSP16, literal(-8)))
          CFI (cfiCond72) V5 load(1, XDATA, add(CFA_XSP16, literal(-7)))
          CFI (cfiCond72) R7 load(1, XDATA, add(CFA_XSP16, literal(-6)))
          CFI (cfiCond72) ?RET_LOW load(1, XDATA, add(CFA_XSP16, literal(-5)))
          CFI (cfiCond72) ?RET_HIGH load(1, XDATA, add(CFA_XSP16, literal(-4)))
          CFI (cfiCond72) ?BRET_EXT load(1, XDATA, add(CFA_XSP16, literal(-3)))
          CFI (cfiCond72) DPL0 load(1, XDATA, add(CFA_XSP16, literal(-2)))
          CFI (cfiCond72) DPH0 load(1, XDATA, add(CFA_XSP16, literal(-1)))
          CFI (cfiCond72) CFA_SP SP+-2
          CFI (cfiCond72) CFA_XSP16 add(XSP16, 88)
          CFI Block cfiPicker73 Using cfiCommon1
          CFI (cfiPicker73) NoFunction
          CFI (cfiPicker73) Picker
        LCALL     ?Subroutine46 & 0xFFFF
??CrossCallReturnLabel_86:
        RET
          CFI EndBlock cfiCond71
          CFI EndBlock cfiCond72
          CFI EndBlock cfiPicker73

        RSEG BANKED_CODE:HUGECODE:NOROOT(0)
?Subroutine46:
          CFI Block cfiCond74 Using cfiCommon0
          CFI Function MT_ZdoNodeDescRequest
          CFI Conditional ??CrossCallReturnLabel_86, ??CrossCallReturnLabel_19
          CFI R6 load(1, XDATA, add(CFA_XSP16, literal(-9)))
          CFI VB load(1, XDATA, add(CFA_XSP16, literal(-8)))
          CFI V0 load(1, XDATA, add(CFA_XSP16, literal(-7)))
          CFI R7 load(1, XDATA, add(CFA_XSP16, literal(-6)))
          CFI ?RET_LOW load(1, XDATA, add(CFA_XSP16, literal(-5)))
          CFI ?RET_HIGH load(1, XDATA, add(CFA_XSP16, literal(-4)))
          CFI ?BRET_EXT load(1, XDATA, add(CFA_XSP16, literal(-3)))
          CFI DPL0 load(1, XDATA, add(CFA_XSP16, literal(-2)))
          CFI DPH0 load(1, XDATA, add(CFA_XSP16, literal(-1)))
          CFI CFA_SP SP+-4
          CFI CFA_XSP16 add(XSP16, 20)
          CFI Block cfiCond75 Using cfiCommon0
          CFI (cfiCond75) Function MT_ZdoMatchDescRequest
          CFI (cfiCond75) Conditional ??CrossCallReturnLabel_86, ??CrossCallReturnLabel_20
          CFI (cfiCond75) R6 load(1, XDATA, add(CFA_XSP16, literal(-14)))
          CFI (cfiCond75) VB load(1, XDATA, add(CFA_XSP16, literal(-13)))
          CFI (cfiCond75) V0 load(1, XDATA, add(CFA_XSP16, literal(-12)))
          CFI (cfiCond75) V1 load(1, XDATA, add(CFA_XSP16, literal(-11)))
          CFI (cfiCond75) V2 load(1, XDATA, add(CFA_XSP16, literal(-10)))
          CFI (cfiCond75) V3 load(1, XDATA, add(CFA_XSP16, literal(-9)))
          CFI (cfiCond75) V4 load(1, XDATA, add(CFA_XSP16, literal(-8)))
          CFI (cfiCond75) V5 load(1, XDATA, add(CFA_XSP16, literal(-7)))
          CFI (cfiCond75) R7 load(1, XDATA, add(CFA_XSP16, literal(-6)))
          CFI (cfiCond75) ?RET_LOW load(1, XDATA, add(CFA_XSP16, literal(-5)))
          CFI (cfiCond75) ?RET_HIGH load(1, XDATA, add(CFA_XSP16, literal(-4)))
          CFI (cfiCond75) ?BRET_EXT load(1, XDATA, add(CFA_XSP16, literal(-3)))
          CFI (cfiCond75) DPL0 load(1, XDATA, add(CFA_XSP16, literal(-2)))
          CFI (cfiCond75) DPH0 load(1, XDATA, add(CFA_XSP16, literal(-1)))
          CFI (cfiCond75) CFA_SP SP+-4
          CFI (cfiCond75) CFA_XSP16 add(XSP16, 88)
          CFI Block cfiCond76 Using cfiCommon0
          CFI (cfiCond76) Function MT_ZdoSimpleDescRequest
          CFI (cfiCond76) Conditional ??CrossCallReturnLabel_85, ??CrossCallReturnLabel_15
          CFI (cfiCond76) R6 load(1, XDATA, add(CFA_XSP16, literal(-9)))
          CFI (cfiCond76) VB load(1, XDATA, add(CFA_XSP16, literal(-8)))
          CFI (cfiCond76) V0 load(1, XDATA, add(CFA_XSP16, literal(-7)))
          CFI (cfiCond76) R7 load(1, XDATA, add(CFA_XSP16, literal(-6)))
          CFI (cfiCond76) ?RET_LOW load(1, XDATA, add(CFA_XSP16, literal(-5)))
          CFI (cfiCond76) ?RET_HIGH load(1, XDATA, add(CFA_XSP16, literal(-4)))
          CFI (cfiCond76) ?BRET_EXT load(1, XDATA, add(CFA_XSP16, literal(-3)))
          CFI (cfiCond76) DPL0 load(1, XDATA, add(CFA_XSP16, literal(-2)))
          CFI (cfiCond76) DPH0 load(1, XDATA, add(CFA_XSP16, literal(-1)))
          CFI (cfiCond76) CFA_SP SP+-4
          CFI (cfiCond76) CFA_XSP16 add(XSP16, 20)
          CFI Block cfiCond77 Using cfiCommon0
          CFI (cfiCond77) Function MT_ZdoPowerDescRequest
          CFI (cfiCond77) Conditional ??CrossCallReturnLabel_85, ??CrossCallReturnLabel_16
          CFI (cfiCond77) R6 load(1, XDATA, add(CFA_XSP16, literal(-9)))
          CFI (cfiCond77) VB load(1, XDATA, add(CFA_XSP16, literal(-8)))
          CFI (cfiCond77) V0 load(1, XDATA, add(CFA_XSP16, literal(-7)))
          CFI (cfiCond77) R7 load(1, XDATA, add(CFA_XSP16, literal(-6)))
          CFI (cfiCond77) ?RET_LOW load(1, XDATA, add(CFA_XSP16, literal(-5)))
          CFI (cfiCond77) ?RET_HIGH load(1, XDATA, add(CFA_XSP16, literal(-4)))
          CFI (cfiCond77) ?BRET_EXT load(1, XDATA, add(CFA_XSP16, literal(-3)))
          CFI (cfiCond77) DPL0 load(1, XDATA, add(CFA_XSP16, literal(-2)))
          CFI (cfiCond77) DPH0 load(1, XDATA, add(CFA_XSP16, literal(-1)))
          CFI (cfiCond77) CFA_SP SP+-4
          CFI (cfiCond77) CFA_XSP16 add(XSP16, 20)
          CFI Block cfiCond78 Using cfiCommon0
          CFI (cfiCond78) Function MT_ZdoActiveEpRequest
          CFI (cfiCond78) Conditional ??CrossCallReturnLabel_85, ??CrossCallReturnLabel_16
          CFI (cfiCond78) R6 load(1, XDATA, add(CFA_XSP16, literal(-9)))
          CFI (cfiCond78) VB load(1, XDATA, add(CFA_XSP16, literal(-8)))
          CFI (cfiCond78) V0 load(1, XDATA, add(CFA_XSP16, literal(-7)))
          CFI (cfiCond78) R7 load(1, XDATA, add(CFA_XSP16, literal(-6)))
          CFI (cfiCond78) ?RET_LOW load(1, XDATA, add(CFA_XSP16, literal(-5)))
          CFI (cfiCond78) ?RET_HIGH load(1, XDATA, add(CFA_XSP16, literal(-4)))
          CFI (cfiCond78) ?BRET_EXT load(1, XDATA, add(CFA_XSP16, literal(-3)))
          CFI (cfiCond78) DPL0 load(1, XDATA, add(CFA_XSP16, literal(-2)))
          CFI (cfiCond78) DPH0 load(1, XDATA, add(CFA_XSP16, literal(-1)))
          CFI (cfiCond78) CFA_SP SP+-4
          CFI (cfiCond78) CFA_XSP16 add(XSP16, 20)
          CFI Block cfiCond79 Using cfiCommon0
          CFI (cfiCond79) Function MT_ZdoComplexDescRequest
          CFI (cfiCond79) Conditional ??CrossCallReturnLabel_85, ??CrossCallReturnLabel_16
          CFI (cfiCond79) R6 load(1, XDATA, add(CFA_XSP16, literal(-9)))
          CFI (cfiCond79) VB load(1, XDATA, add(CFA_XSP16, literal(-8)))
          CFI (cfiCond79) V0 load(1, XDATA, add(CFA_XSP16, literal(-7)))
          CFI (cfiCond79) R7 load(1, XDATA, add(CFA_XSP16, literal(-6)))
          CFI (cfiCond79) ?RET_LOW load(1, XDATA, add(CFA_XSP16, literal(-5)))
          CFI (cfiCond79) ?RET_HIGH load(1, XDATA, add(CFA_XSP16, literal(-4)))
          CFI (cfiCond79) ?BRET_EXT load(1, XDATA, add(CFA_XSP16, literal(-3)))
          CFI (cfiCond79) DPL0 load(1, XDATA, add(CFA_XSP16, literal(-2)))
          CFI (cfiCond79) DPH0 load(1, XDATA, add(CFA_XSP16, literal(-1)))
          CFI (cfiCond79) CFA_SP SP+-4
          CFI (cfiCond79) CFA_XSP16 add(XSP16, 20)
          CFI Block cfiCond80 Using cfiCommon0
          CFI (cfiCond80) Function MT_ZdoUserDescRequest
          CFI (cfiCond80) Conditional ??CrossCallReturnLabel_85, ??CrossCallReturnLabel_16
          CFI (cfiCond80) R6 load(1, XDATA, add(CFA_XSP16, literal(-9)))
          CFI (cfiCond80) VB load(1, XDATA, add(CFA_XSP16, literal(-8)))
          CFI (cfiCond80) V0 load(1, XDATA, add(CFA_XSP16, literal(-7)))
          CFI (cfiCond80) R7 load(1, XDATA, add(CFA_XSP16, literal(-6)))
          CFI (cfiCond80) ?RET_LOW load(1, XDATA, add(CFA_XSP16, literal(-5)))
          CFI (cfiCond80) ?RET_HIGH load(1, XDATA, add(CFA_XSP16, literal(-4)))
          CFI (cfiCond80) ?BRET_EXT load(1, XDATA, add(CFA_XSP16, literal(-3)))
          CFI (cfiCond80) DPL0 load(1, XDATA, add(CFA_XSP16, literal(-2)))
          CFI (cfiCond80) DPH0 load(1, XDATA, add(CFA_XSP16, literal(-1)))
          CFI (cfiCond80) CFA_SP SP+-4
          CFI (cfiCond80) CFA_XSP16 add(XSP16, 20)
          CFI Block cfiPicker81 Using cfiCommon1
          CFI (cfiPicker81) NoFunction
          CFI (cfiPicker81) Picker
        LCALL     ??Subroutine60_0 & 0xFFFF
??CrossCallReturnLabel_114:
        MOV       R2,A
        CLR       A
        XCH       A,R2
        MOV       R3,A
        MOV       A,R4
        ADD       A,R2
        CLR       A
        ADDC      A,R3
        MOV       R5,A
        RET
          CFI EndBlock cfiCond74
          CFI EndBlock cfiCond75
          CFI EndBlock cfiCond76
          CFI EndBlock cfiCond77
          CFI EndBlock cfiCond78
          CFI EndBlock cfiCond79
          CFI EndBlock cfiCond80
          CFI EndBlock cfiPicker81
//  668 
//  669 /***************************************************************************************************
//  670  * @fn      MT_ZdoComplexDescRequest
//  671  *
//  672  * @brief   Handle a Complex Descriptor request.
//  673  *
//  674  * @param   pBuf  - MT message data
//  675  *
//  676  * @return  void
//  677  ***************************************************************************************************/

        RSEG BANKED_CODE:HUGECODE:NOROOT(0)
//  678 void MT_ZdoComplexDescRequest(uint8 *pBuf)
MT_ZdoComplexDescRequest:
          CFI Block cfiBlock82 Using cfiCommon0
          CFI Function MT_ZdoComplexDescRequest
        CODE
//  679 {
        FUNCALL MT_ZdoComplexDescRequest, ZDP_NWKAddrOfInterestReq
        LOCFRAME ISTACK, 0, STACK
        LOCFRAME PSTACK, 0, STACK
        LOCFRAME XSTACK, 20, STACK
        LOCFRAME IOVERLAY, 0, STATIC
        LOCFRAME DOVERLAY, 0, STATIC
        ARGFRAME ISTACK, 0, STACK
        ARGFRAME PSTACK, 0, STACK
        ARGFRAME XSTACK, 20, STACK
        ARGFRAME IOVERLAY, 0, STATIC
        ARGFRAME DOVERLAY, 0, STATIC
        FUNCALL MT_ZdoComplexDescRequest, MT_BuildAndSendZToolResponse
        LOCFRAME ISTACK, 0, STACK
        LOCFRAME PSTACK, 0, STACK
        LOCFRAME XSTACK, 19, STACK
        LOCFRAME IOVERLAY, 0, STATIC
        LOCFRAME DOVERLAY, 0, STATIC
        ARGFRAME ISTACK, 0, STACK
        ARGFRAME PSTACK, 0, STACK
        ARGFRAME XSTACK, 19, STACK
        ARGFRAME IOVERLAY, 0, STATIC
        ARGFRAME DOVERLAY, 0, STATIC
        REQUIRE ?V0
        MOV       A,#-0x9
        LCALL     ?BANKED_ENTER_XDATA
          CFI DPH0 load(1, XDATA, add(CFA_XSP16, literal(-1)))
          CFI DPL0 load(1, XDATA, add(CFA_XSP16, literal(-2)))
          CFI ?BRET_EXT load(1, XDATA, add(CFA_XSP16, literal(-3)))
          CFI ?RET_HIGH load(1, XDATA, add(CFA_XSP16, literal(-4)))
          CFI ?RET_LOW load(1, XDATA, add(CFA_XSP16, literal(-5)))
          CFI R7 load(1, XDATA, add(CFA_XSP16, literal(-6)))
          CFI V0 load(1, XDATA, add(CFA_XSP16, literal(-7)))
          CFI VB load(1, XDATA, add(CFA_XSP16, literal(-8)))
          CFI R6 load(1, XDATA, add(CFA_XSP16, literal(-9)))
          CFI CFA_SP SP+0
          CFI CFA_XSP16 add(XSP16, 9)
        ; Saved register size: 9
        ; Auto size: 10
        MOV       A,#-0xa
        LCALL     ?ALLOC_XSTACK8
          CFI CFA_XSP16 add(XSP16, 19)
//  680   uint8 cmdId;
//  681   uint8 retValue;
//  682   zAddrType_t destAddr;
//  683   uint16 shortAddr;
//  684 
//  685   /* parse header */
//  686   cmdId = pBuf[MT_RPC_POS_CMD1];
        LCALL     ??Subroutine61_0 & 0xFFFF
//  687   pBuf += MT_RPC_FRAME_HDR_SZ;
??CrossCallReturnLabel_125:
        JNC       ??MT_ZdoComplexDescRequest_0
        INC       R3
//  688 
//  689   /* Dev address */
//  690   destAddr.addrMode = Addr16Bit;
??MT_ZdoComplexDescRequest_0:
        MOV       A,#0x9
        LCALL     ?XSTACK_DISP0_8
        LCALL     ?Subroutine6 & 0xFFFF
//  691   destAddr.addr.shortAddr = BUILD_UINT16( pBuf[0], pBuf[1] );
??CrossCallReturnLabel_4:
        LCALL     ?XSTACK_DISP0_8
        LCALL     ?Subroutine31 & 0xFFFF
//  692   pBuf += 2;
??CrossCallReturnLabel_52:
        JNC       ??MT_ZdoComplexDescRequest_1
        INC       R3
//  693 
//  694   /* Network address of interest */
//  695   shortAddr = BUILD_UINT16( pBuf[0], pBuf[1] );
//  696   pBuf += 2;
//  697 
//  698   retValue = (uint8)ZDP_ComplexDescReq( &destAddr, shortAddr, 0);
??MT_ZdoComplexDescRequest_1:
        ; Setup parameters for call to function ZDP_NWKAddrOfInterestReq
        MOV       ?V0,#0x0
        MOV       R0,#?V0
        LCALL     ?PUSH_XSTACK_I_ONE
          CFI CFA_XSP16 add(XSP16, 20)
        MOV       R1,#0x10
        LJMP      ?Subroutine0 & 0xFFFF
//  699 
//  700   MT_BuildAndSendZToolResponse(((uint8)MT_RPC_CMD_SRSP | (uint8)MT_RPC_SYS_ZDO), cmdId, 1, &retValue);
//  701 }
          CFI EndBlock cfiBlock82

        RSEG BANKED_CODE:HUGECODE:NOROOT(0)
?Subroutine8:
          CFI Block cfiCond83 Using cfiCommon0
          CFI Function MT_ZdoRegisterForZDOMsg
          CFI Conditional ??CrossCallReturnLabel_118
          CFI R6 load(1, XDATA, add(CFA_XSP16, literal(-9)))
          CFI VB load(1, XDATA, add(CFA_XSP16, literal(-8)))
          CFI V0 load(1, XDATA, add(CFA_XSP16, literal(-7)))
          CFI R7 load(1, XDATA, add(CFA_XSP16, literal(-6)))
          CFI ?RET_LOW load(1, XDATA, add(CFA_XSP16, literal(-5)))
          CFI ?RET_HIGH load(1, XDATA, add(CFA_XSP16, literal(-4)))
          CFI ?BRET_EXT load(1, XDATA, add(CFA_XSP16, literal(-3)))
          CFI DPL0 load(1, XDATA, add(CFA_XSP16, literal(-2)))
          CFI DPH0 load(1, XDATA, add(CFA_XSP16, literal(-1)))
          CFI CFA_SP SP+-2
          CFI CFA_XSP16 add(XSP16, 10)
          CFI Block cfiCond84 Using cfiCommon0
          CFI (cfiCond84) Function MT_ZdoRemoveRegisteredCB
          CFI (cfiCond84) Conditional ??CrossCallReturnLabel_119
          CFI (cfiCond84) R6 load(1, XDATA, add(CFA_XSP16, literal(-9)))
          CFI (cfiCond84) VB load(1, XDATA, add(CFA_XSP16, literal(-8)))
          CFI (cfiCond84) V0 load(1, XDATA, add(CFA_XSP16, literal(-7)))
          CFI (cfiCond84) R7 load(1, XDATA, add(CFA_XSP16, literal(-6)))
          CFI (cfiCond84) ?RET_LOW load(1, XDATA, add(CFA_XSP16, literal(-5)))
          CFI (cfiCond84) ?RET_HIGH load(1, XDATA, add(CFA_XSP16, literal(-4)))
          CFI (cfiCond84) ?BRET_EXT load(1, XDATA, add(CFA_XSP16, literal(-3)))
          CFI (cfiCond84) DPL0 load(1, XDATA, add(CFA_XSP16, literal(-2)))
          CFI (cfiCond84) DPH0 load(1, XDATA, add(CFA_XSP16, literal(-1)))
          CFI (cfiCond84) CFA_SP SP+-2
          CFI (cfiCond84) CFA_XSP16 add(XSP16, 10)
          CFI Block cfiPicker85 Using cfiCommon1
          CFI (cfiPicker85) NoFunction
          CFI (cfiPicker85) Picker
        MOV       DPL,R2
        MOV       DPH,R3
        INC       DPTR
        MOVX      A,@DPTR
        MOV       R7,A
          CFI EndBlock cfiCond83
          CFI EndBlock cfiCond84
          CFI EndBlock cfiPicker85
        REQUIRE ??Subroutine61_0
        ; // Fall through to label ??Subroutine61_0

        RSEG BANKED_CODE:HUGECODE:NOROOT(0)
??Subroutine61_0:
          CFI Block cfiCond86 Using cfiCommon0
          CFI Function MT_ZdoIEEEAddrRequest
          CFI Conditional ??CrossCallReturnLabel_120
          CFI R6 load(1, XDATA, add(CFA_XSP16, literal(-10)))
          CFI VB load(1, XDATA, add(CFA_XSP16, literal(-9)))
          CFI V0 load(1, XDATA, add(CFA_XSP16, literal(-8)))
          CFI V1 load(1, XDATA, add(CFA_XSP16, literal(-7)))
          CFI R7 load(1, XDATA, add(CFA_XSP16, literal(-6)))
          CFI ?RET_LOW load(1, XDATA, add(CFA_XSP16, literal(-5)))
          CFI ?RET_HIGH load(1, XDATA, add(CFA_XSP16, literal(-4)))
          CFI ?BRET_EXT load(1, XDATA, add(CFA_XSP16, literal(-3)))
          CFI DPL0 load(1, XDATA, add(CFA_XSP16, literal(-2)))
          CFI DPH0 load(1, XDATA, add(CFA_XSP16, literal(-1)))
          CFI CFA_SP SP+-2
          CFI CFA_XSP16 add(XSP16, 11)
          CFI Block cfiCond87 Using cfiCommon0
          CFI (cfiCond87) Function MT_ZdoNodeDescRequest
          CFI (cfiCond87) Conditional ??CrossCallReturnLabel_121
          CFI (cfiCond87) R6 load(1, XDATA, add(CFA_XSP16, literal(-9)))
          CFI (cfiCond87) VB load(1, XDATA, add(CFA_XSP16, literal(-8)))
          CFI (cfiCond87) V0 load(1, XDATA, add(CFA_XSP16, literal(-7)))
          CFI (cfiCond87) R7 load(1, XDATA, add(CFA_XSP16, literal(-6)))
          CFI (cfiCond87) ?RET_LOW load(1, XDATA, add(CFA_XSP16, literal(-5)))
          CFI (cfiCond87) ?RET_HIGH load(1, XDATA, add(CFA_XSP16, literal(-4)))
          CFI (cfiCond87) ?BRET_EXT load(1, XDATA, add(CFA_XSP16, literal(-3)))
          CFI (cfiCond87) DPL0 load(1, XDATA, add(CFA_XSP16, literal(-2)))
          CFI (cfiCond87) DPH0 load(1, XDATA, add(CFA_XSP16, literal(-1)))
          CFI (cfiCond87) CFA_SP SP+-2
          CFI (cfiCond87) CFA_XSP16 add(XSP16, 19)
          CFI Block cfiCond88 Using cfiCommon0
          CFI (cfiCond88) Function MT_ZdoPowerDescRequest
          CFI (cfiCond88) Conditional ??CrossCallReturnLabel_122
          CFI (cfiCond88) R6 load(1, XDATA, add(CFA_XSP16, literal(-9)))
          CFI (cfiCond88) VB load(1, XDATA, add(CFA_XSP16, literal(-8)))
          CFI (cfiCond88) V0 load(1, XDATA, add(CFA_XSP16, literal(-7)))
          CFI (cfiCond88) R7 load(1, XDATA, add(CFA_XSP16, literal(-6)))
          CFI (cfiCond88) ?RET_LOW load(1, XDATA, add(CFA_XSP16, literal(-5)))
          CFI (cfiCond88) ?RET_HIGH load(1, XDATA, add(CFA_XSP16, literal(-4)))
          CFI (cfiCond88) ?BRET_EXT load(1, XDATA, add(CFA_XSP16, literal(-3)))
          CFI (cfiCond88) DPL0 load(1, XDATA, add(CFA_XSP16, literal(-2)))
          CFI (cfiCond88) DPH0 load(1, XDATA, add(CFA_XSP16, literal(-1)))
          CFI (cfiCond88) CFA_SP SP+-2
          CFI (cfiCond88) CFA_XSP16 add(XSP16, 19)
          CFI Block cfiCond89 Using cfiCommon0
          CFI (cfiCond89) Function MT_ZdoSimpleDescRequest
          CFI (cfiCond89) Conditional ??CrossCallReturnLabel_123
          CFI (cfiCond89) R6 load(1, XDATA, add(CFA_XSP16, literal(-9)))
          CFI (cfiCond89) VB load(1, XDATA, add(CFA_XSP16, literal(-8)))
          CFI (cfiCond89) V0 load(1, XDATA, add(CFA_XSP16, literal(-7)))
          CFI (cfiCond89) R7 load(1, XDATA, add(CFA_XSP16, literal(-6)))
          CFI (cfiCond89) ?RET_LOW load(1, XDATA, add(CFA_XSP16, literal(-5)))
          CFI (cfiCond89) ?RET_HIGH load(1, XDATA, add(CFA_XSP16, literal(-4)))
          CFI (cfiCond89) ?BRET_EXT load(1, XDATA, add(CFA_XSP16, literal(-3)))
          CFI (cfiCond89) DPL0 load(1, XDATA, add(CFA_XSP16, literal(-2)))
          CFI (cfiCond89) DPH0 load(1, XDATA, add(CFA_XSP16, literal(-1)))
          CFI (cfiCond89) CFA_SP SP+-2
          CFI (cfiCond89) CFA_XSP16 add(XSP16, 19)
          CFI Block cfiCond90 Using cfiCommon0
          CFI (cfiCond90) Function MT_ZdoActiveEpRequest
          CFI (cfiCond90) Conditional ??CrossCallReturnLabel_124
          CFI (cfiCond90) R6 load(1, XDATA, add(CFA_XSP16, literal(-9)))
          CFI (cfiCond90) VB load(1, XDATA, add(CFA_XSP16, literal(-8)))
          CFI (cfiCond90) V0 load(1, XDATA, add(CFA_XSP16, literal(-7)))
          CFI (cfiCond90) R7 load(1, XDATA, add(CFA_XSP16, literal(-6)))
          CFI (cfiCond90) ?RET_LOW load(1, XDATA, add(CFA_XSP16, literal(-5)))
          CFI (cfiCond90) ?RET_HIGH load(1, XDATA, add(CFA_XSP16, literal(-4)))
          CFI (cfiCond90) ?BRET_EXT load(1, XDATA, add(CFA_XSP16, literal(-3)))
          CFI (cfiCond90) DPL0 load(1, XDATA, add(CFA_XSP16, literal(-2)))
          CFI (cfiCond90) DPH0 load(1, XDATA, add(CFA_XSP16, literal(-1)))
          CFI (cfiCond90) CFA_SP SP+-2
          CFI (cfiCond90) CFA_XSP16 add(XSP16, 19)
          CFI Block cfiCond91 Using cfiCommon0
          CFI (cfiCond91) Function MT_ZdoComplexDescRequest
          CFI (cfiCond91) Conditional ??CrossCallReturnLabel_125
          CFI (cfiCond91) R6 load(1, XDATA, add(CFA_XSP16, literal(-9)))
          CFI (cfiCond91) VB load(1, XDATA, add(CFA_XSP16, literal(-8)))
          CFI (cfiCond91) V0 load(1, XDATA, add(CFA_XSP16, literal(-7)))
          CFI (cfiCond91) R7 load(1, XDATA, add(CFA_XSP16, literal(-6)))
          CFI (cfiCond91) ?RET_LOW load(1, XDATA, add(CFA_XSP16, literal(-5)))
          CFI (cfiCond91) ?RET_HIGH load(1, XDATA, add(CFA_XSP16, literal(-4)))
          CFI (cfiCond91) ?BRET_EXT load(1, XDATA, add(CFA_XSP16, literal(-3)))
          CFI (cfiCond91) DPL0 load(1, XDATA, add(CFA_XSP16, literal(-2)))
          CFI (cfiCond91) DPH0 load(1, XDATA, add(CFA_XSP16, literal(-1)))
          CFI (cfiCond91) CFA_SP SP+-2
          CFI (cfiCond91) CFA_XSP16 add(XSP16, 19)
          CFI Block cfiCond92 Using cfiCommon0
          CFI (cfiCond92) Function MT_ZdoUserDescRequest
          CFI (cfiCond92) Conditional ??CrossCallReturnLabel_126
          CFI (cfiCond92) R6 load(1, XDATA, add(CFA_XSP16, literal(-9)))
          CFI (cfiCond92) VB load(1, XDATA, add(CFA_XSP16, literal(-8)))
          CFI (cfiCond92) V0 load(1, XDATA, add(CFA_XSP16, literal(-7)))
          CFI (cfiCond92) R7 load(1, XDATA, add(CFA_XSP16, literal(-6)))
          CFI (cfiCond92) ?RET_LOW load(1, XDATA, add(CFA_XSP16, literal(-5)))
          CFI (cfiCond92) ?RET_HIGH load(1, XDATA, add(CFA_XSP16, literal(-4)))
          CFI (cfiCond92) ?BRET_EXT load(1, XDATA, add(CFA_XSP16, literal(-3)))
          CFI (cfiCond92) DPL0 load(1, XDATA, add(CFA_XSP16, literal(-2)))
          CFI (cfiCond92) DPH0 load(1, XDATA, add(CFA_XSP16, literal(-1)))
          CFI (cfiCond92) CFA_SP SP+-2
          CFI (cfiCond92) CFA_XSP16 add(XSP16, 19)
          CFI Block cfiCond93 Using cfiCommon0
          CFI (cfiCond93) Function MT_ZdoServiceDiscRequest
          CFI (cfiCond93) Conditional ??CrossCallReturnLabel_127
          CFI (cfiCond93) R6 load(1, XDATA, add(CFA_XSP16, literal(-9)))
          CFI (cfiCond93) VB load(1, XDATA, add(CFA_XSP16, literal(-8)))
          CFI (cfiCond93) V0 load(1, XDATA, add(CFA_XSP16, literal(-7)))
          CFI (cfiCond93) R7 load(1, XDATA, add(CFA_XSP16, literal(-6)))
          CFI (cfiCond93) ?RET_LOW load(1, XDATA, add(CFA_XSP16, literal(-5)))
          CFI (cfiCond93) ?RET_HIGH load(1, XDATA, add(CFA_XSP16, literal(-4)))
          CFI (cfiCond93) ?BRET_EXT load(1, XDATA, add(CFA_XSP16, literal(-3)))
          CFI (cfiCond93) DPL0 load(1, XDATA, add(CFA_XSP16, literal(-2)))
          CFI (cfiCond93) DPH0 load(1, XDATA, add(CFA_XSP16, literal(-1)))
          CFI (cfiCond93) CFA_SP SP+-2
          CFI (cfiCond93) CFA_XSP16 add(XSP16, 10)
          CFI Block cfiCond94 Using cfiCommon0
          CFI (cfiCond94) Function MT_ZdoRegisterForZDOMsg
          CFI (cfiCond94) Conditional ??CrossCallReturnLabel_118
          CFI (cfiCond94) R6 load(1, XDATA, add(CFA_XSP16, literal(-9)))
          CFI (cfiCond94) VB load(1, XDATA, add(CFA_XSP16, literal(-8)))
          CFI (cfiCond94) V0 load(1, XDATA, add(CFA_XSP16, literal(-7)))
          CFI (cfiCond94) R7 load(1, XDATA, add(CFA_XSP16, literal(-6)))
          CFI (cfiCond94) ?RET_LOW load(1, XDATA, add(CFA_XSP16, literal(-5)))
          CFI (cfiCond94) ?RET_HIGH load(1, XDATA, add(CFA_XSP16, literal(-4)))
          CFI (cfiCond94) ?BRET_EXT load(1, XDATA, add(CFA_XSP16, literal(-3)))
          CFI (cfiCond94) DPL0 load(1, XDATA, add(CFA_XSP16, literal(-2)))
          CFI (cfiCond94) DPH0 load(1, XDATA, add(CFA_XSP16, literal(-1)))
          CFI (cfiCond94) CFA_SP SP+-2
          CFI (cfiCond94) CFA_XSP16 add(XSP16, 10)
          CFI Block cfiCond95 Using cfiCommon0
          CFI (cfiCond95) Function MT_ZdoRemoveRegisteredCB
          CFI (cfiCond95) Conditional ??CrossCallReturnLabel_119
          CFI (cfiCond95) R6 load(1, XDATA, add(CFA_XSP16, literal(-9)))
          CFI (cfiCond95) VB load(1, XDATA, add(CFA_XSP16, literal(-8)))
          CFI (cfiCond95) V0 load(1, XDATA, add(CFA_XSP16, literal(-7)))
          CFI (cfiCond95) R7 load(1, XDATA, add(CFA_XSP16, literal(-6)))
          CFI (cfiCond95) ?RET_LOW load(1, XDATA, add(CFA_XSP16, literal(-5)))
          CFI (cfiCond95) ?RET_HIGH load(1, XDATA, add(CFA_XSP16, literal(-4)))
          CFI (cfiCond95) ?BRET_EXT load(1, XDATA, add(CFA_XSP16, literal(-3)))
          CFI (cfiCond95) DPL0 load(1, XDATA, add(CFA_XSP16, literal(-2)))
          CFI (cfiCond95) DPH0 load(1, XDATA, add(CFA_XSP16, literal(-1)))
          CFI (cfiCond95) CFA_SP SP+-2
          CFI (cfiCond95) CFA_XSP16 add(XSP16, 10)
          CFI Block cfiPicker96 Using cfiCommon1
          CFI (cfiPicker96) NoFunction
          CFI (cfiPicker96) Picker
        MOV       DPL,R2
        MOV       DPH,R3
        INC       DPTR
        INC       DPTR
        MOVX      A,@DPTR
        MOV       R6,A
        MOV       A,R2
        ADD       A,#0x3
        MOV       R2,A
        RET
          CFI EndBlock cfiCond86
          CFI EndBlock cfiCond87
          CFI EndBlock cfiCond88
          CFI EndBlock cfiCond89
          CFI EndBlock cfiCond90
          CFI EndBlock cfiCond91
          CFI EndBlock cfiCond92
          CFI EndBlock cfiCond93
          CFI EndBlock cfiCond94
          CFI EndBlock cfiCond95
          CFI EndBlock cfiPicker96
//  702 
//  703 /***************************************************************************************************
//  704  * @fn      MT_ZdoUserDescRequest
//  705  *
//  706  * @brief   Handle a User Descriptor request.
//  707  *
//  708  * @param   pBuf  - MT message data
//  709  *
//  710  * @return  void
//  711  ***************************************************************************************************/

        RSEG BANKED_CODE:HUGECODE:NOROOT(0)
//  712 void MT_ZdoUserDescRequest(uint8 *pBuf)
MT_ZdoUserDescRequest:
          CFI Block cfiBlock97 Using cfiCommon0
          CFI Function MT_ZdoUserDescRequest
        CODE
//  713 {
        FUNCALL MT_ZdoUserDescRequest, ZDP_NWKAddrOfInterestReq
        LOCFRAME ISTACK, 0, STACK
        LOCFRAME PSTACK, 0, STACK
        LOCFRAME XSTACK, 20, STACK
        LOCFRAME IOVERLAY, 0, STATIC
        LOCFRAME DOVERLAY, 0, STATIC
        ARGFRAME ISTACK, 0, STACK
        ARGFRAME PSTACK, 0, STACK
        ARGFRAME XSTACK, 20, STACK
        ARGFRAME IOVERLAY, 0, STATIC
        ARGFRAME DOVERLAY, 0, STATIC
        FUNCALL MT_ZdoUserDescRequest, MT_BuildAndSendZToolResponse
        LOCFRAME ISTACK, 0, STACK
        LOCFRAME PSTACK, 0, STACK
        LOCFRAME XSTACK, 19, STACK
        LOCFRAME IOVERLAY, 0, STATIC
        LOCFRAME DOVERLAY, 0, STATIC
        ARGFRAME ISTACK, 0, STACK
        ARGFRAME PSTACK, 0, STACK
        ARGFRAME XSTACK, 19, STACK
        ARGFRAME IOVERLAY, 0, STATIC
        ARGFRAME DOVERLAY, 0, STATIC
        REQUIRE ?V0
        MOV       A,#-0x9
        LCALL     ?BANKED_ENTER_XDATA
          CFI DPH0 load(1, XDATA, add(CFA_XSP16, literal(-1)))
          CFI DPL0 load(1, XDATA, add(CFA_XSP16, literal(-2)))
          CFI ?BRET_EXT load(1, XDATA, add(CFA_XSP16, literal(-3)))
          CFI ?RET_HIGH load(1, XDATA, add(CFA_XSP16, literal(-4)))
          CFI ?RET_LOW load(1, XDATA, add(CFA_XSP16, literal(-5)))
          CFI R7 load(1, XDATA, add(CFA_XSP16, literal(-6)))
          CFI V0 load(1, XDATA, add(CFA_XSP16, literal(-7)))
          CFI VB load(1, XDATA, add(CFA_XSP16, literal(-8)))
          CFI R6 load(1, XDATA, add(CFA_XSP16, literal(-9)))
          CFI CFA_SP SP+0
          CFI CFA_XSP16 add(XSP16, 9)
        ; Saved register size: 9
        ; Auto size: 10
        MOV       A,#-0xa
        LCALL     ?ALLOC_XSTACK8
          CFI CFA_XSP16 add(XSP16, 19)
//  714   uint8 cmdId;
//  715   uint8 retValue;
//  716   zAddrType_t destAddr;
//  717   uint16 shortAddr;
//  718 
//  719   /* parse header */
//  720   cmdId = pBuf[MT_RPC_POS_CMD1];
        LCALL     ??Subroutine61_0 & 0xFFFF
//  721   pBuf += MT_RPC_FRAME_HDR_SZ;
??CrossCallReturnLabel_126:
        JNC       ??MT_ZdoUserDescRequest_0
        INC       R3
//  722 
//  723   /* Dev address */
//  724   destAddr.addrMode = Addr16Bit;
??MT_ZdoUserDescRequest_0:
        MOV       A,#0x9
        LCALL     ?XSTACK_DISP0_8
        LCALL     ?Subroutine6 & 0xFFFF
//  725   destAddr.addr.shortAddr = BUILD_UINT16( pBuf[0], pBuf[1]);
??CrossCallReturnLabel_5:
        LCALL     ?XSTACK_DISP0_8
        LCALL     ?Subroutine31 & 0xFFFF
//  726   pBuf += 2;
??CrossCallReturnLabel_53:
        JNC       ??MT_ZdoUserDescRequest_1
        INC       R3
//  727 
//  728   /* Network address of interest */
//  729   shortAddr = BUILD_UINT16( pBuf[0], pBuf[1]);
//  730   pBuf += 2;
//  731 
//  732   retValue = (uint8)ZDP_UserDescReq( &destAddr, shortAddr, 0);
??MT_ZdoUserDescRequest_1:
        ; Setup parameters for call to function ZDP_NWKAddrOfInterestReq
        MOV       ?V0,#0x0
        MOV       R0,#?V0
        LCALL     ?PUSH_XSTACK_I_ONE
          CFI CFA_XSP16 add(XSP16, 20)
        MOV       R1,#0x11
        LJMP      ?Subroutine0 & 0xFFFF
//  733 
//  734   MT_BuildAndSendZToolResponse(((uint8)MT_RPC_CMD_SRSP | (uint8)MT_RPC_SYS_ZDO), cmdId, 1, &retValue);
//  735 }
          CFI EndBlock cfiBlock97
//  736 
//  737 /***************************************************************************************************
//  738  * @fn      MT_ZdoEndDevAnnce
//  739  *
//  740  * @brief   Handle a End Device Announce Descriptor request.
//  741  *
//  742  * @param   pBuf  - MT message data
//  743  *
//  744  * @return  void
//  745  ***************************************************************************************************/

        RSEG BANKED_CODE:HUGECODE:NOROOT(0)
//  746 void MT_ZdoEndDevAnnce(uint8 *pBuf)
MT_ZdoEndDevAnnce:
          CFI Block cfiBlock98 Using cfiCommon0
          CFI Function MT_ZdoEndDevAnnce
        CODE
//  747 {
        FUNCALL MT_ZdoEndDevAnnce, ZDP_DeviceAnnce
        LOCFRAME ISTACK, 0, STACK
        LOCFRAME PSTACK, 0, STACK
        LOCFRAME XSTACK, 11, STACK
        LOCFRAME IOVERLAY, 0, STATIC
        LOCFRAME DOVERLAY, 0, STATIC
        ARGFRAME ISTACK, 0, STACK
        ARGFRAME PSTACK, 0, STACK
        ARGFRAME XSTACK, 11, STACK
        ARGFRAME IOVERLAY, 0, STATIC
        ARGFRAME DOVERLAY, 0, STATIC
        FUNCALL MT_ZdoEndDevAnnce, MT_BuildAndSendZToolResponse
        LOCFRAME ISTACK, 0, STACK
        LOCFRAME PSTACK, 0, STACK
        LOCFRAME XSTACK, 10, STACK
        LOCFRAME IOVERLAY, 0, STATIC
        LOCFRAME DOVERLAY, 0, STATIC
        ARGFRAME ISTACK, 0, STACK
        ARGFRAME PSTACK, 0, STACK
        ARGFRAME XSTACK, 10, STACK
        ARGFRAME IOVERLAY, 0, STATIC
        ARGFRAME DOVERLAY, 0, STATIC
        REQUIRE ?V0
        MOV       A,#-0x9
        LCALL     ?BANKED_ENTER_XDATA
          CFI DPH0 load(1, XDATA, add(CFA_XSP16, literal(-1)))
          CFI DPL0 load(1, XDATA, add(CFA_XSP16, literal(-2)))
          CFI ?BRET_EXT load(1, XDATA, add(CFA_XSP16, literal(-3)))
          CFI ?RET_HIGH load(1, XDATA, add(CFA_XSP16, literal(-4)))
          CFI ?RET_LOW load(1, XDATA, add(CFA_XSP16, literal(-5)))
          CFI R7 load(1, XDATA, add(CFA_XSP16, literal(-6)))
          CFI V0 load(1, XDATA, add(CFA_XSP16, literal(-7)))
          CFI VB load(1, XDATA, add(CFA_XSP16, literal(-8)))
          CFI R6 load(1, XDATA, add(CFA_XSP16, literal(-9)))
          CFI CFA_SP SP+0
          CFI CFA_XSP16 add(XSP16, 9)
        ; Saved register size: 9
        ; Auto size: 1
        MOV       A,#-0x1
        LCALL     ?ALLOC_XSTACK8
          CFI CFA_XSP16 add(XSP16, 10)
        MOV       A,R2
        MOV       R4,A
        MOV       A,R3
        MOV       R5,A
//  748   uint8 cmdId;
//  749   uint8 retValue;
//  750   uint16 shortAddr;
//  751   uint8 *pIEEEAddr;
//  752 
//  753   /* parse header */
//  754   cmdId = pBuf[MT_RPC_POS_CMD1];
        MOV       DPL,R4
        MOV       DPH,R5
        INC       DPTR
        INC       DPTR
        MOVX      A,@DPTR
        MOV       R6,A
//  755   pBuf += MT_RPC_FRAME_HDR_SZ;
        MOV       A,R4
        ADD       A,#0x3
        MOV       R4,A
        JNC       ??MT_ZdoEndDevAnnce_0
        INC       R5
//  756 
//  757   /* network address */
//  758   shortAddr = BUILD_UINT16( pBuf[0], pBuf[1] );
??MT_ZdoEndDevAnnce_0:
        MOV       DPL,R4
        MOV       DPH,R5
        LCALL     ?Subroutine21 & 0xFFFF
??CrossCallReturnLabel_30:
        CLR       A
        ADDC      A,R1
        MOV       R3,A
//  759   pBuf += 2;
        MOV       A,R4
        ADD       A,#0x2
        MOV       R4,A
        JNC       ??MT_ZdoEndDevAnnce_1
        INC       R5
//  760 
//  761   /* extended address */
//  762   pIEEEAddr = pBuf;
//  763   pBuf += Z_EXTADDR_LEN;
//  764 
//  765   retValue = (uint8)ZDP_DeviceAnnce( shortAddr, pIEEEAddr, *pBuf, 0);
??MT_ZdoEndDevAnnce_1:
        ; Setup parameters for call to function ZDP_DeviceAnnce
        MOV       ?V0,R0
        MOV       R0,#?V0
        LCALL     ?PUSH_XSTACK_I_ONE
          CFI CFA_XSP16 add(XSP16, 11)
        MOV       DPL,R4
        MOV       DPH,R5
        INC       DPTR
        INC       DPTR
        INC       DPTR
        INC       DPTR
        INC       DPTR
        INC       DPTR
        INC       DPTR
        INC       DPTR
        MOVX      A,@DPTR
        MOV       R1,A
        LCALL     `??ZDP_DeviceAnnce::?relay`; Banked call to: ZDP_DeviceAnnce
        MOV       A,#0x1
        LCALL     ?DEALLOC_XSTACK8
          CFI CFA_XSP16 add(XSP16, 10)
        LJMP      ?Subroutine5 & 0xFFFF
//  766 
//  767   MT_BuildAndSendZToolResponse(((uint8)MT_RPC_CMD_SRSP | (uint8)MT_RPC_SYS_ZDO), cmdId, 1, &retValue);
//  768 }
          CFI EndBlock cfiBlock98
//  769 
//  770 /***************************************************************************************************
//  771  * @fn      MT_ZdoUserDescSet
//  772  *
//  773  * @brief   Handle a User Descriptor Set.
//  774  *
//  775  * @param   pBuf  - MT message data
//  776  *
//  777  * @return  void
//  778  ***************************************************************************************************/

        RSEG BANKED_CODE:HUGECODE:NOROOT(0)
//  779 void MT_ZdoUserDescSet(uint8 *pBuf)
MT_ZdoUserDescSet:
          CFI Block cfiBlock99 Using cfiCommon0
          CFI Function MT_ZdoUserDescSet
        CODE
//  780 {
        FUNCALL MT_ZdoUserDescSet, osal_memcpy
        LOCFRAME ISTACK, 0, STACK
        LOCFRAME PSTACK, 0, STACK
        LOCFRAME XSTACK, 42, STACK
        LOCFRAME IOVERLAY, 0, STATIC
        LOCFRAME DOVERLAY, 0, STATIC
        ARGFRAME ISTACK, 0, STACK
        ARGFRAME PSTACK, 0, STACK
        ARGFRAME XSTACK, 42, STACK
        ARGFRAME IOVERLAY, 0, STATIC
        ARGFRAME DOVERLAY, 0, STATIC
        FUNCALL MT_ZdoUserDescSet, ZDP_UserDescSet
        LOCFRAME ISTACK, 0, STACK
        LOCFRAME PSTACK, 0, STACK
        LOCFRAME XSTACK, 41, STACK
        LOCFRAME IOVERLAY, 0, STATIC
        LOCFRAME DOVERLAY, 0, STATIC
        ARGFRAME ISTACK, 0, STACK
        ARGFRAME PSTACK, 0, STACK
        ARGFRAME XSTACK, 41, STACK
        ARGFRAME IOVERLAY, 0, STATIC
        ARGFRAME DOVERLAY, 0, STATIC
        FUNCALL MT_ZdoUserDescSet, MT_BuildAndSendZToolResponse
        LOCFRAME ISTACK, 0, STACK
        LOCFRAME PSTACK, 0, STACK
        LOCFRAME XSTACK, 39, STACK
        LOCFRAME IOVERLAY, 0, STATIC
        LOCFRAME DOVERLAY, 0, STATIC
        ARGFRAME ISTACK, 0, STACK
        ARGFRAME PSTACK, 0, STACK
        ARGFRAME XSTACK, 39, STACK
        ARGFRAME IOVERLAY, 0, STATIC
        ARGFRAME DOVERLAY, 0, STATIC
        REQUIRE ?V0
        REQUIRE ?V1
        REQUIRE ?V2
        REQUIRE ?V3
        MOV       A,#-0xc
        LCALL     ?BANKED_ENTER_XDATA
          CFI DPH0 load(1, XDATA, add(CFA_XSP16, literal(-1)))
          CFI DPL0 load(1, XDATA, add(CFA_XSP16, literal(-2)))
          CFI ?BRET_EXT load(1, XDATA, add(CFA_XSP16, literal(-3)))
          CFI ?RET_HIGH load(1, XDATA, add(CFA_XSP16, literal(-4)))
          CFI ?RET_LOW load(1, XDATA, add(CFA_XSP16, literal(-5)))
          CFI R7 load(1, XDATA, add(CFA_XSP16, literal(-6)))
          CFI V3 load(1, XDATA, add(CFA_XSP16, literal(-7)))
          CFI V2 load(1, XDATA, add(CFA_XSP16, literal(-8)))
          CFI V1 load(1, XDATA, add(CFA_XSP16, literal(-9)))
          CFI V0 load(1, XDATA, add(CFA_XSP16, literal(-10)))
          CFI VB load(1, XDATA, add(CFA_XSP16, literal(-11)))
          CFI R6 load(1, XDATA, add(CFA_XSP16, literal(-12)))
          CFI CFA_SP SP+0
          CFI CFA_XSP16 add(XSP16, 12)
        ; Saved register size: 12
        ; Auto size: 27
        MOV       A,#-0x1b
        LCALL     ?ALLOC_XSTACK8
          CFI CFA_XSP16 add(XSP16, 39)
//  781   uint8 cmdId;
//  782   uint8 retValue;
//  783   zAddrType_t destAddr;
//  784   uint16 shortAddr;
//  785   UserDescriptorFormat_t userDesc;
//  786 
//  787   /* parse header */
//  788   cmdId = pBuf[MT_RPC_POS_CMD1];
        MOV       DPL,R2
        MOV       DPH,R3
        INC       DPTR
        INC       DPTR
        MOVX      A,@DPTR
        MOV       ?V3,A
//  789   pBuf += MT_RPC_FRAME_HDR_SZ;
        MOV       A,R2
        ADD       A,#0x3
        MOV       R2,A
        JNC       ??MT_ZdoUserDescSet_0
        INC       R3
//  790 
//  791   /* Dev address */
//  792   destAddr.addrMode = Addr16Bit;
??MT_ZdoUserDescSet_0:
        MOV       A,#0x9
        LCALL     ?XSTACK_DISP0_8
        LCALL     ?Subroutine6 & 0xFFFF
//  793   destAddr.addr.shortAddr = BUILD_UINT16( pBuf[0], pBuf[1] );
??CrossCallReturnLabel_6:
        LCALL     ?XSTACK_DISP0_8
        LCALL     ?Subroutine31 & 0xFFFF
//  794   pBuf += 2;
??CrossCallReturnLabel_54:
        JNC       ??MT_ZdoUserDescSet_1
        INC       R3
//  795 
//  796   /* Network address of interest */
//  797   shortAddr = BUILD_UINT16( pBuf[0], pBuf[1] );
??MT_ZdoUserDescSet_1:
        LCALL     ?Subroutine50 & 0xFFFF
??CrossCallReturnLabel_91:
        MOV       R6,A
        CLR       A
        ADDC      A,R1
        MOV       R7,A
//  798   pBuf += 2;
//  799 
//  800   /* User descriptor */
//  801   userDesc.len = *pBuf++;
        MOV       DPL,R2
        MOV       DPH,R3
        INC       DPTR
        INC       DPTR
        MOVX      A,@DPTR
        PUSH      A
          CFI CFA_SP SP+-1
        MOV       A,#0xa
        LCALL     ?XSTACK_DISP0_8
        POP       A
          CFI CFA_SP SP+0
        MOVX      @DPTR,A
//  802   osal_memcpy( userDesc.desc, pBuf, userDesc.len );
        ; Setup parameters for call to function osal_memcpy
        MOV       DPL,R2
        MOV       DPH,R3
        INC       DPTR
        INC       DPTR
        INC       DPTR
        MOV       R1,DPL
        MOV       R2,DPH
        MOV       ?V0,R1
        MOV       ?V1,R2
        MOV       ?V2,R0
        MOV       R0,#?V0
        LCALL     ?PUSH_XSTACK_I_THREE
          CFI CFA_XSP16 add(XSP16, 42)
        MOV       A,#0xd
        LCALL     ?XSTACK_DISP0_8
        MOVX      A,@DPTR
        MOV       R4,A
        MOV       R5,#0x0
        MOV       A,#0xe
        LCALL     ?XSTACK_DISP0_8
        MOV       R2,DPL
        MOV       R3,DPH
        LCALL     `??osal_memcpy::?relay`; Banked call to: osal_memcpy
        MOV       A,#0x3
        LCALL     ?DEALLOC_XSTACK8
          CFI CFA_XSP16 add(XSP16, 39)
//  803   pBuf += 16;
//  804 
//  805   retValue = (uint8)ZDP_UserDescSet( &destAddr, shortAddr, &userDesc, 0);
        ; Setup parameters for call to function ZDP_UserDescSet
        MOV       A,#0xa
        LCALL     ?XSTACK_DISP100_8
        MOV       ?V0,R0
        MOV       ?V1,R1
        MOV       R0,#?V0
        LCALL     ?PUSH_XSTACK_I_TWO
          CFI CFA_XSP16 add(XSP16, 41)
        MOV       R1,#0x0
        MOV       A,R6
        MOV       R4,A
        MOV       A,R7
        MOV       R5,A
        MOV       A,#0x3
        LCALL     ?XSTACK_DISP101_8
        LCALL     `??ZDP_UserDescSet::?relay`; Banked call to: ZDP_UserDescSet
        MOV       A,#0x2
        LCALL     ?DEALLOC_XSTACK8
          CFI CFA_XSP16 add(XSP16, 39)
        LCALL     ?Subroutine36 & 0xFFFF
//  806 
//  807   MT_BuildAndSendZToolResponse(((uint8)MT_RPC_CMD_SRSP | (uint8)MT_RPC_SYS_ZDO), cmdId, 1, &retValue);
??CrossCallReturnLabel_64:
        LCALL     `??MT_BuildAndSendZToolResponse::?relay`; Banked call to: MT_BuildAndSendZToolResponse
//  808 }
        MOV       A,#0x1b
          CFI EndBlock cfiBlock99
        REQUIRE ?Subroutine3
        ; // Fall through to label ?Subroutine3

        RSEG BANKED_CODE:HUGECODE:NOROOT(0)
?Subroutine3:
          CFI Block cfiBlock100 Using cfiCommon0
          CFI NoFunction
          CFI CFA_SP SP+0
          CFI CFA_XSP16 add(XSP16, 39)
          CFI VB load(1, XDATA, add(CFA_XSP16, literal(-11)))
          CFI DPL0 load(1, XDATA, add(CFA_XSP16, literal(-2)))
          CFI DPH0 load(1, XDATA, add(CFA_XSP16, literal(-1)))
          CFI R6 load(1, XDATA, add(CFA_XSP16, literal(-12)))
          CFI R7 load(1, XDATA, add(CFA_XSP16, literal(-6)))
          CFI V0 load(1, XDATA, add(CFA_XSP16, literal(-10)))
          CFI V1 load(1, XDATA, add(CFA_XSP16, literal(-9)))
          CFI V2 load(1, XDATA, add(CFA_XSP16, literal(-8)))
          CFI V3 load(1, XDATA, add(CFA_XSP16, literal(-7)))
          CFI ?BRET_EXT load(1, XDATA, add(CFA_XSP16, literal(-3)))
          CFI ?RET_HIGH load(1, XDATA, add(CFA_XSP16, literal(-4)))
          CFI ?RET_LOW load(1, XDATA, add(CFA_XSP16, literal(-5)))
          CFI Invalid
        LCALL     ?DEALLOC_XSTACK8
          CFI CFA_XSP16 add(XSP16, 12)
          CFI Valid
        MOV       R7,#0x4
        LJMP      ?BANKED_LEAVE_XDATA
          CFI EndBlock cfiBlock100
//  809 
//  810 /***************************************************************************************************
//  811  * @fn      MT_ZdoServiceDiscRequest
//  812  *
//  813  * @brief   Handle a Server Discovery request.
//  814  *
//  815  * @param   pBuf  - MT message data
//  816  *
//  817  * @return  void
//  818  ***************************************************************************************************/

        RSEG BANKED_CODE:HUGECODE:NOROOT(0)
//  819 void MT_ZdoServiceDiscRequest(uint8 *pBuf)
MT_ZdoServiceDiscRequest:
          CFI Block cfiBlock101 Using cfiCommon0
          CFI Function MT_ZdoServiceDiscRequest
        CODE
//  820 {
        FUNCALL MT_ZdoServiceDiscRequest, ZDP_ServerDiscReq
        LOCFRAME ISTACK, 0, STACK
        LOCFRAME PSTACK, 0, STACK
        LOCFRAME XSTACK, 10, STACK
        LOCFRAME IOVERLAY, 0, STATIC
        LOCFRAME DOVERLAY, 0, STATIC
        ARGFRAME ISTACK, 0, STACK
        ARGFRAME PSTACK, 0, STACK
        ARGFRAME XSTACK, 10, STACK
        ARGFRAME IOVERLAY, 0, STATIC
        ARGFRAME DOVERLAY, 0, STATIC
        FUNCALL MT_ZdoServiceDiscRequest, MT_BuildAndSendZToolResponse
        LOCFRAME ISTACK, 0, STACK
        LOCFRAME PSTACK, 0, STACK
        LOCFRAME XSTACK, 10, STACK
        LOCFRAME IOVERLAY, 0, STATIC
        LOCFRAME DOVERLAY, 0, STATIC
        ARGFRAME ISTACK, 0, STACK
        ARGFRAME PSTACK, 0, STACK
        ARGFRAME XSTACK, 10, STACK
        ARGFRAME IOVERLAY, 0, STATIC
        ARGFRAME DOVERLAY, 0, STATIC
        MOV       A,#-0x9
        LCALL     ?BANKED_ENTER_XDATA
          CFI DPH0 load(1, XDATA, add(CFA_XSP16, literal(-1)))
          CFI DPL0 load(1, XDATA, add(CFA_XSP16, literal(-2)))
          CFI ?BRET_EXT load(1, XDATA, add(CFA_XSP16, literal(-3)))
          CFI ?RET_HIGH load(1, XDATA, add(CFA_XSP16, literal(-4)))
          CFI ?RET_LOW load(1, XDATA, add(CFA_XSP16, literal(-5)))
          CFI R7 load(1, XDATA, add(CFA_XSP16, literal(-6)))
          CFI V0 load(1, XDATA, add(CFA_XSP16, literal(-7)))
          CFI VB load(1, XDATA, add(CFA_XSP16, literal(-8)))
          CFI R6 load(1, XDATA, add(CFA_XSP16, literal(-9)))
          CFI CFA_SP SP+0
          CFI CFA_XSP16 add(XSP16, 9)
        ; Saved register size: 9
        ; Auto size: 1
        MOV       A,#-0x1
        LCALL     ?ALLOC_XSTACK8
          CFI CFA_XSP16 add(XSP16, 10)
//  821   uint8 cmdId;
//  822   uint8 retValue;
//  823   uint16 serviceMask;
//  824 
//  825   /* parse header */
//  826   cmdId = pBuf[MT_RPC_POS_CMD1];
        LCALL     ??Subroutine61_0 & 0xFFFF
//  827   pBuf += MT_RPC_FRAME_HDR_SZ;
??CrossCallReturnLabel_127:
        JNC       ??MT_ZdoServiceDiscRequest_0
        INC       R3
//  828 
//  829   /* Service Mask */
//  830   serviceMask = BUILD_UINT16( pBuf[0], pBuf[1]);
//  831   pBuf += 2;
//  832 
//  833   retValue = (uint8)ZDP_ServerDiscReq( serviceMask, 0);
??MT_ZdoServiceDiscRequest_0:
        ; Setup parameters for call to function ZDP_ServerDiscReq
        MOV       R1,#0x0
        LCALL     ?Subroutine56 & 0xFFFF
??CrossCallReturnLabel_115:
        MOV       R3,A
        MOV       A,R4
        MOV       R2,A
        LCALL     `??ZDP_ServerDiscReq::?relay`; Banked call to: ZDP_ServerDiscReq
        LJMP      ?Subroutine5 & 0xFFFF
//  834 
//  835   MT_BuildAndSendZToolResponse(((uint8)MT_RPC_CMD_SRSP | (uint8)MT_RPC_SYS_ZDO), cmdId, 1, &retValue);
//  836 }
          CFI EndBlock cfiBlock101

        RSEG BANKED_CODE:HUGECODE:NOROOT(0)
?Subroutine0:
          CFI Block cfiBlock102 Using cfiCommon0
          CFI NoFunction
          CFI CFA_SP SP+0
          CFI CFA_XSP16 add(XSP16, 20)
          CFI VB load(1, XDATA, add(CFA_XSP16, literal(-8)))
          CFI DPL0 load(1, XDATA, add(CFA_XSP16, literal(-2)))
          CFI DPH0 load(1, XDATA, add(CFA_XSP16, literal(-1)))
          CFI R6 load(1, XDATA, add(CFA_XSP16, literal(-9)))
          CFI R7 load(1, XDATA, add(CFA_XSP16, literal(-6)))
          CFI V0 load(1, XDATA, add(CFA_XSP16, literal(-7)))
          CFI ?BRET_EXT load(1, XDATA, add(CFA_XSP16, literal(-3)))
          CFI ?RET_HIGH load(1, XDATA, add(CFA_XSP16, literal(-4)))
          CFI ?RET_LOW load(1, XDATA, add(CFA_XSP16, literal(-5)))
        LCALL     ?Subroutine12 & 0xFFFF
??CrossCallReturnLabel_16:
          CFI EndBlock cfiBlock102
        REQUIRE ??Subroutine62_0
        ; // Fall through to label ??Subroutine62_0

        RSEG BANKED_CODE:HUGECODE:NOROOT(0)
??Subroutine62_0:
          CFI Block cfiBlock103 Using cfiCommon0
          CFI NoFunction
          CFI CFA_SP SP+0
          CFI CFA_XSP16 add(XSP16, 20)
          CFI VB load(1, XDATA, add(CFA_XSP16, literal(-8)))
          CFI DPL0 load(1, XDATA, add(CFA_XSP16, literal(-2)))
          CFI DPH0 load(1, XDATA, add(CFA_XSP16, literal(-1)))
          CFI R6 load(1, XDATA, add(CFA_XSP16, literal(-9)))
          CFI R7 load(1, XDATA, add(CFA_XSP16, literal(-6)))
          CFI V0 load(1, XDATA, add(CFA_XSP16, literal(-7)))
          CFI ?BRET_EXT load(1, XDATA, add(CFA_XSP16, literal(-3)))
          CFI ?RET_HIGH load(1, XDATA, add(CFA_XSP16, literal(-4)))
          CFI ?RET_LOW load(1, XDATA, add(CFA_XSP16, literal(-5)))
        LCALL     ?XSTACK_DISP101_8
        LCALL     `??ZDP_NWKAddrOfInterestReq::?relay`; Banked call to: ZDP_NWKAddrOfInterestReq
          CFI EndBlock cfiBlock103
        REQUIRE ??Subroutine63_0
        ; // Fall through to label ??Subroutine63_0

        RSEG BANKED_CODE:HUGECODE:NOROOT(0)
??Subroutine63_0:
          CFI Block cfiBlock104 Using cfiCommon0
          CFI NoFunction
          CFI CFA_SP SP+0
          CFI CFA_XSP16 add(XSP16, 20)
          CFI VB load(1, XDATA, add(CFA_XSP16, literal(-8)))
          CFI DPL0 load(1, XDATA, add(CFA_XSP16, literal(-2)))
          CFI DPH0 load(1, XDATA, add(CFA_XSP16, literal(-1)))
          CFI R6 load(1, XDATA, add(CFA_XSP16, literal(-9)))
          CFI R7 load(1, XDATA, add(CFA_XSP16, literal(-6)))
          CFI V0 load(1, XDATA, add(CFA_XSP16, literal(-7)))
          CFI ?BRET_EXT load(1, XDATA, add(CFA_XSP16, literal(-3)))
          CFI ?RET_HIGH load(1, XDATA, add(CFA_XSP16, literal(-4)))
          CFI ?RET_LOW load(1, XDATA, add(CFA_XSP16, literal(-5)))
        MOV       A,#0x1
        LCALL     ?DEALLOC_XSTACK8
          CFI CFA_XSP16 add(XSP16, 19)
        LCALL     ?Subroutine32 & 0xFFFF
??CrossCallReturnLabel_129:
        LCALL     `??MT_BuildAndSendZToolResponse::?relay`; Banked call to: MT_BuildAndSendZToolResponse
        MOV       A,#0xa
          CFI EndBlock cfiBlock104
        REQUIRE ??Subroutine64_0
        ; // Fall through to label ??Subroutine64_0

        RSEG BANKED_CODE:HUGECODE:NOROOT(0)
??Subroutine64_0:
          CFI Block cfiBlock105 Using cfiCommon0
          CFI NoFunction
          CFI CFA_SP SP+0
          CFI CFA_XSP16 add(XSP16, 10)
          CFI VB load(1, XDATA, add(CFA_XSP16, literal(-8)))
          CFI DPL0 load(1, XDATA, add(CFA_XSP16, literal(-2)))
          CFI DPH0 load(1, XDATA, add(CFA_XSP16, literal(-1)))
          CFI R6 load(1, XDATA, add(CFA_XSP16, literal(-9)))
          CFI R7 load(1, XDATA, add(CFA_XSP16, literal(-6)))
          CFI V0 load(1, XDATA, add(CFA_XSP16, literal(-7)))
          CFI ?BRET_EXT load(1, XDATA, add(CFA_XSP16, literal(-3)))
          CFI ?RET_HIGH load(1, XDATA, add(CFA_XSP16, literal(-4)))
          CFI ?RET_LOW load(1, XDATA, add(CFA_XSP16, literal(-5)))
          CFI Invalid
        LCALL     ?DEALLOC_XSTACK8
          CFI EndBlock cfiBlock105
        REQUIRE ??Subroutine65_0
        ; // Fall through to label ??Subroutine65_0

        RSEG BANKED_CODE:HUGECODE:NOROOT(0)
??Subroutine65_0:
          CFI Block cfiBlock106 Using cfiCommon0
          CFI NoFunction
          CFI CFA_SP SP+0
          CFI CFA_XSP16 add(XSP16, 9)
          CFI VB load(1, XDATA, add(CFA_XSP16, literal(-8)))
          CFI DPL0 load(1, XDATA, add(CFA_XSP16, literal(-2)))
          CFI DPH0 load(1, XDATA, add(CFA_XSP16, literal(-1)))
          CFI R6 load(1, XDATA, add(CFA_XSP16, literal(-9)))
          CFI R7 load(1, XDATA, add(CFA_XSP16, literal(-6)))
          CFI V0 load(1, XDATA, add(CFA_XSP16, literal(-7)))
          CFI ?BRET_EXT load(1, XDATA, add(CFA_XSP16, literal(-3)))
          CFI ?RET_HIGH load(1, XDATA, add(CFA_XSP16, literal(-4)))
          CFI ?RET_LOW load(1, XDATA, add(CFA_XSP16, literal(-5)))
        MOV       R7,#0x1
        LJMP      ?BANKED_LEAVE_XDATA
          CFI EndBlock cfiBlock106

        RSEG BANKED_CODE:HUGECODE:NOROOT(0)
?Subroutine32:
          CFI Block cfiCond107 Using cfiCommon0
          CFI Function MT_ZdoNWKAddressRequest
          CFI Conditional ??CrossCallReturnLabel_128
          CFI R6 load(1, XDATA, add(CFA_XSP16, literal(-10)))
          CFI VB load(1, XDATA, add(CFA_XSP16, literal(-9)))
          CFI V0 load(1, XDATA, add(CFA_XSP16, literal(-8)))
          CFI V1 load(1, XDATA, add(CFA_XSP16, literal(-7)))
          CFI R7 load(1, XDATA, add(CFA_XSP16, literal(-6)))
          CFI ?RET_LOW load(1, XDATA, add(CFA_XSP16, literal(-5)))
          CFI ?RET_HIGH load(1, XDATA, add(CFA_XSP16, literal(-4)))
          CFI ?BRET_EXT load(1, XDATA, add(CFA_XSP16, literal(-3)))
          CFI DPL0 load(1, XDATA, add(CFA_XSP16, literal(-2)))
          CFI DPH0 load(1, XDATA, add(CFA_XSP16, literal(-1)))
          CFI CFA_SP SP+-2
          CFI CFA_XSP16 add(XSP16, 11)
          CFI Block cfiCond108 Using cfiCommon0
          CFI (cfiCond108) Function MT_ZdoIEEEAddrRequest
          CFI (cfiCond108) Conditional ??CrossCallReturnLabel_128
          CFI (cfiCond108) R6 load(1, XDATA, add(CFA_XSP16, literal(-10)))
          CFI (cfiCond108) VB load(1, XDATA, add(CFA_XSP16, literal(-9)))
          CFI (cfiCond108) V0 load(1, XDATA, add(CFA_XSP16, literal(-8)))
          CFI (cfiCond108) V1 load(1, XDATA, add(CFA_XSP16, literal(-7)))
          CFI (cfiCond108) R7 load(1, XDATA, add(CFA_XSP16, literal(-6)))
          CFI (cfiCond108) ?RET_LOW load(1, XDATA, add(CFA_XSP16, literal(-5)))
          CFI (cfiCond108) ?RET_HIGH load(1, XDATA, add(CFA_XSP16, literal(-4)))
          CFI (cfiCond108) ?BRET_EXT load(1, XDATA, add(CFA_XSP16, literal(-3)))
          CFI (cfiCond108) DPL0 load(1, XDATA, add(CFA_XSP16, literal(-2)))
          CFI (cfiCond108) DPH0 load(1, XDATA, add(CFA_XSP16, literal(-1)))
          CFI (cfiCond108) CFA_SP SP+-2
          CFI (cfiCond108) CFA_XSP16 add(XSP16, 11)
          CFI Block cfiCond109 Using cfiCommon0
          CFI (cfiCond109) Function MT_ZdoPowerDescRequest
          CFI (cfiCond109) Conditional ??CrossCallReturnLabel_129
          CFI (cfiCond109) R6 load(1, XDATA, add(CFA_XSP16, literal(-9)))
          CFI (cfiCond109) VB load(1, XDATA, add(CFA_XSP16, literal(-8)))
          CFI (cfiCond109) V0 load(1, XDATA, add(CFA_XSP16, literal(-7)))
          CFI (cfiCond109) R7 load(1, XDATA, add(CFA_XSP16, literal(-6)))
          CFI (cfiCond109) ?RET_LOW load(1, XDATA, add(CFA_XSP16, literal(-5)))
          CFI (cfiCond109) ?RET_HIGH load(1, XDATA, add(CFA_XSP16, literal(-4)))
          CFI (cfiCond109) ?BRET_EXT load(1, XDATA, add(CFA_XSP16, literal(-3)))
          CFI (cfiCond109) DPL0 load(1, XDATA, add(CFA_XSP16, literal(-2)))
          CFI (cfiCond109) DPH0 load(1, XDATA, add(CFA_XSP16, literal(-1)))
          CFI (cfiCond109) CFA_SP SP+-2
          CFI (cfiCond109) CFA_XSP16 add(XSP16, 19)
          CFI Block cfiCond110 Using cfiCommon0
          CFI (cfiCond110) Function MT_ZdoActiveEpRequest
          CFI (cfiCond110) Conditional ??CrossCallReturnLabel_129
          CFI (cfiCond110) R6 load(1, XDATA, add(CFA_XSP16, literal(-9)))
          CFI (cfiCond110) VB load(1, XDATA, add(CFA_XSP16, literal(-8)))
          CFI (cfiCond110) V0 load(1, XDATA, add(CFA_XSP16, literal(-7)))
          CFI (cfiCond110) R7 load(1, XDATA, add(CFA_XSP16, literal(-6)))
          CFI (cfiCond110) ?RET_LOW load(1, XDATA, add(CFA_XSP16, literal(-5)))
          CFI (cfiCond110) ?RET_HIGH load(1, XDATA, add(CFA_XSP16, literal(-4)))
          CFI (cfiCond110) ?BRET_EXT load(1, XDATA, add(CFA_XSP16, literal(-3)))
          CFI (cfiCond110) DPL0 load(1, XDATA, add(CFA_XSP16, literal(-2)))
          CFI (cfiCond110) DPH0 load(1, XDATA, add(CFA_XSP16, literal(-1)))
          CFI (cfiCond110) CFA_SP SP+-2
          CFI (cfiCond110) CFA_XSP16 add(XSP16, 19)
          CFI Block cfiCond111 Using cfiCommon0
          CFI (cfiCond111) Function MT_ZdoComplexDescRequest
          CFI (cfiCond111) Conditional ??CrossCallReturnLabel_129
          CFI (cfiCond111) R6 load(1, XDATA, add(CFA_XSP16, literal(-9)))
          CFI (cfiCond111) VB load(1, XDATA, add(CFA_XSP16, literal(-8)))
          CFI (cfiCond111) V0 load(1, XDATA, add(CFA_XSP16, literal(-7)))
          CFI (cfiCond111) R7 load(1, XDATA, add(CFA_XSP16, literal(-6)))
          CFI (cfiCond111) ?RET_LOW load(1, XDATA, add(CFA_XSP16, literal(-5)))
          CFI (cfiCond111) ?RET_HIGH load(1, XDATA, add(CFA_XSP16, literal(-4)))
          CFI (cfiCond111) ?BRET_EXT load(1, XDATA, add(CFA_XSP16, literal(-3)))
          CFI (cfiCond111) DPL0 load(1, XDATA, add(CFA_XSP16, literal(-2)))
          CFI (cfiCond111) DPH0 load(1, XDATA, add(CFA_XSP16, literal(-1)))
          CFI (cfiCond111) CFA_SP SP+-2
          CFI (cfiCond111) CFA_XSP16 add(XSP16, 19)
          CFI Block cfiCond112 Using cfiCommon0
          CFI (cfiCond112) Function MT_ZdoUserDescRequest
          CFI (cfiCond112) Conditional ??CrossCallReturnLabel_129
          CFI (cfiCond112) R6 load(1, XDATA, add(CFA_XSP16, literal(-9)))
          CFI (cfiCond112) VB load(1, XDATA, add(CFA_XSP16, literal(-8)))
          CFI (cfiCond112) V0 load(1, XDATA, add(CFA_XSP16, literal(-7)))
          CFI (cfiCond112) R7 load(1, XDATA, add(CFA_XSP16, literal(-6)))
          CFI (cfiCond112) ?RET_LOW load(1, XDATA, add(CFA_XSP16, literal(-5)))
          CFI (cfiCond112) ?RET_HIGH load(1, XDATA, add(CFA_XSP16, literal(-4)))
          CFI (cfiCond112) ?BRET_EXT load(1, XDATA, add(CFA_XSP16, literal(-3)))
          CFI (cfiCond112) DPL0 load(1, XDATA, add(CFA_XSP16, literal(-2)))
          CFI (cfiCond112) DPH0 load(1, XDATA, add(CFA_XSP16, literal(-1)))
          CFI (cfiCond112) CFA_SP SP+-2
          CFI (cfiCond112) CFA_XSP16 add(XSP16, 19)
          CFI Block cfiCond113 Using cfiCommon0
          CFI (cfiCond113) Function MT_ZdoNodeDescRequest
          CFI (cfiCond113) Conditional ??CrossCallReturnLabel_129
          CFI (cfiCond113) R6 load(1, XDATA, add(CFA_XSP16, literal(-9)))
          CFI (cfiCond113) VB load(1, XDATA, add(CFA_XSP16, literal(-8)))
          CFI (cfiCond113) V0 load(1, XDATA, add(CFA_XSP16, literal(-7)))
          CFI (cfiCond113) R7 load(1, XDATA, add(CFA_XSP16, literal(-6)))
          CFI (cfiCond113) ?RET_LOW load(1, XDATA, add(CFA_XSP16, literal(-5)))
          CFI (cfiCond113) ?RET_HIGH load(1, XDATA, add(CFA_XSP16, literal(-4)))
          CFI (cfiCond113) ?BRET_EXT load(1, XDATA, add(CFA_XSP16, literal(-3)))
          CFI (cfiCond113) DPL0 load(1, XDATA, add(CFA_XSP16, literal(-2)))
          CFI (cfiCond113) DPH0 load(1, XDATA, add(CFA_XSP16, literal(-1)))
          CFI (cfiCond113) CFA_SP SP+-2
          CFI (cfiCond113) CFA_XSP16 add(XSP16, 19)
          CFI Block cfiCond114 Using cfiCommon0
          CFI (cfiCond114) Function MT_ZdoSimpleDescRequest
          CFI (cfiCond114) Conditional ??CrossCallReturnLabel_129
          CFI (cfiCond114) R6 load(1, XDATA, add(CFA_XSP16, literal(-9)))
          CFI (cfiCond114) VB load(1, XDATA, add(CFA_XSP16, literal(-8)))
          CFI (cfiCond114) V0 load(1, XDATA, add(CFA_XSP16, literal(-7)))
          CFI (cfiCond114) R7 load(1, XDATA, add(CFA_XSP16, literal(-6)))
          CFI (cfiCond114) ?RET_LOW load(1, XDATA, add(CFA_XSP16, literal(-5)))
          CFI (cfiCond114) ?RET_HIGH load(1, XDATA, add(CFA_XSP16, literal(-4)))
          CFI (cfiCond114) ?BRET_EXT load(1, XDATA, add(CFA_XSP16, literal(-3)))
          CFI (cfiCond114) DPL0 load(1, XDATA, add(CFA_XSP16, literal(-2)))
          CFI (cfiCond114) DPH0 load(1, XDATA, add(CFA_XSP16, literal(-1)))
          CFI (cfiCond114) CFA_SP SP+-2
          CFI (cfiCond114) CFA_XSP16 add(XSP16, 19)
          CFI Block cfiCond115 Using cfiCommon0
          CFI (cfiCond115) Function MT_ZdoEndDevAnnce
          CFI (cfiCond115) Conditional ??CrossCallReturnLabel_130
          CFI (cfiCond115) R6 load(1, XDATA, add(CFA_XSP16, literal(-9)))
          CFI (cfiCond115) VB load(1, XDATA, add(CFA_XSP16, literal(-8)))
          CFI (cfiCond115) V0 load(1, XDATA, add(CFA_XSP16, literal(-7)))
          CFI (cfiCond115) R7 load(1, XDATA, add(CFA_XSP16, literal(-6)))
          CFI (cfiCond115) ?RET_LOW load(1, XDATA, add(CFA_XSP16, literal(-5)))
          CFI (cfiCond115) ?RET_HIGH load(1, XDATA, add(CFA_XSP16, literal(-4)))
          CFI (cfiCond115) ?BRET_EXT load(1, XDATA, add(CFA_XSP16, literal(-3)))
          CFI (cfiCond115) DPL0 load(1, XDATA, add(CFA_XSP16, literal(-2)))
          CFI (cfiCond115) DPH0 load(1, XDATA, add(CFA_XSP16, literal(-1)))
          CFI (cfiCond115) CFA_SP SP+-2
          CFI (cfiCond115) CFA_XSP16 add(XSP16, 10)
          CFI Block cfiCond116 Using cfiCommon0
          CFI (cfiCond116) Function MT_ZdoServiceDiscRequest
          CFI (cfiCond116) Conditional ??CrossCallReturnLabel_130
          CFI (cfiCond116) R6 load(1, XDATA, add(CFA_XSP16, literal(-9)))
          CFI (cfiCond116) VB load(1, XDATA, add(CFA_XSP16, literal(-8)))
          CFI (cfiCond116) V0 load(1, XDATA, add(CFA_XSP16, literal(-7)))
          CFI (cfiCond116) R7 load(1, XDATA, add(CFA_XSP16, literal(-6)))
          CFI (cfiCond116) ?RET_LOW load(1, XDATA, add(CFA_XSP16, literal(-5)))
          CFI (cfiCond116) ?RET_HIGH load(1, XDATA, add(CFA_XSP16, literal(-4)))
          CFI (cfiCond116) ?BRET_EXT load(1, XDATA, add(CFA_XSP16, literal(-3)))
          CFI (cfiCond116) DPL0 load(1, XDATA, add(CFA_XSP16, literal(-2)))
          CFI (cfiCond116) DPH0 load(1, XDATA, add(CFA_XSP16, literal(-1)))
          CFI (cfiCond116) CFA_SP SP+-2
          CFI (cfiCond116) CFA_XSP16 add(XSP16, 10)
          CFI Block cfiPicker117 Using cfiCommon1
          CFI (cfiPicker117) NoFunction
          CFI (cfiPicker117) Picker
        MOV       A,R1
        MOV       DPL,?XSP + 0
        MOV       DPH,?XSP + 1
        MOVX      @DPTR,A
        ; Setup parameters for call to function MT_BuildAndSendZToolResponse
        ; Setup parameters for call to function MT_BuildAndSendZToolResponse
        ; Setup parameters for call to function MT_BuildAndSendZToolResponse
        ; Setup parameters for call to function MT_BuildAndSendZToolResponse
        ; Setup parameters for call to function MT_BuildAndSendZToolResponse
        ; Setup parameters for call to function MT_BuildAndSendZToolResponse
        ; Setup parameters for call to function MT_BuildAndSendZToolResponse
        ; Setup parameters for call to function MT_BuildAndSendZToolResponse
        ; Setup parameters for call to function MT_BuildAndSendZToolResponse
        ; Setup parameters for call to function MT_BuildAndSendZToolResponse
        MOV       R4,?XSP + 0
        MOV       R5,?XSP + 1
        MOV       R3,#0x1
        MOV       A,R6
        MOV       R2,A
        MOV       R1,#0x65
        RET
          CFI EndBlock cfiCond107
          CFI EndBlock cfiCond108
          CFI EndBlock cfiCond109
          CFI EndBlock cfiCond110
          CFI EndBlock cfiCond111
          CFI EndBlock cfiCond112
          CFI EndBlock cfiCond113
          CFI EndBlock cfiCond114
          CFI EndBlock cfiCond115
          CFI EndBlock cfiCond116
          CFI EndBlock cfiPicker117

        RSEG BANKED_CODE:HUGECODE:NOROOT(0)
?Subroutine12:
          CFI Block cfiCond118 Using cfiCommon0
          CFI Function MT_ZdoSimpleDescRequest
          CFI Conditional ??CrossCallReturnLabel_15
          CFI R6 load(1, XDATA, add(CFA_XSP16, literal(-9)))
          CFI VB load(1, XDATA, add(CFA_XSP16, literal(-8)))
          CFI V0 load(1, XDATA, add(CFA_XSP16, literal(-7)))
          CFI R7 load(1, XDATA, add(CFA_XSP16, literal(-6)))
          CFI ?RET_LOW load(1, XDATA, add(CFA_XSP16, literal(-5)))
          CFI ?RET_HIGH load(1, XDATA, add(CFA_XSP16, literal(-4)))
          CFI ?BRET_EXT load(1, XDATA, add(CFA_XSP16, literal(-3)))
          CFI DPL0 load(1, XDATA, add(CFA_XSP16, literal(-2)))
          CFI DPH0 load(1, XDATA, add(CFA_XSP16, literal(-1)))
          CFI CFA_SP SP+-2
          CFI CFA_XSP16 add(XSP16, 20)
          CFI Block cfiCond119 Using cfiCommon0
          CFI (cfiCond119) Function MT_ZdoPowerDescRequest
          CFI (cfiCond119) Conditional ??CrossCallReturnLabel_16
          CFI (cfiCond119) R6 load(1, XDATA, add(CFA_XSP16, literal(-9)))
          CFI (cfiCond119) VB load(1, XDATA, add(CFA_XSP16, literal(-8)))
          CFI (cfiCond119) V0 load(1, XDATA, add(CFA_XSP16, literal(-7)))
          CFI (cfiCond119) R7 load(1, XDATA, add(CFA_XSP16, literal(-6)))
          CFI (cfiCond119) ?RET_LOW load(1, XDATA, add(CFA_XSP16, literal(-5)))
          CFI (cfiCond119) ?RET_HIGH load(1, XDATA, add(CFA_XSP16, literal(-4)))
          CFI (cfiCond119) ?BRET_EXT load(1, XDATA, add(CFA_XSP16, literal(-3)))
          CFI (cfiCond119) DPL0 load(1, XDATA, add(CFA_XSP16, literal(-2)))
          CFI (cfiCond119) DPH0 load(1, XDATA, add(CFA_XSP16, literal(-1)))
          CFI (cfiCond119) CFA_SP SP+-2
          CFI (cfiCond119) CFA_XSP16 add(XSP16, 20)
          CFI Block cfiCond120 Using cfiCommon0
          CFI (cfiCond120) Function MT_ZdoActiveEpRequest
          CFI (cfiCond120) Conditional ??CrossCallReturnLabel_16
          CFI (cfiCond120) R6 load(1, XDATA, add(CFA_XSP16, literal(-9)))
          CFI (cfiCond120) VB load(1, XDATA, add(CFA_XSP16, literal(-8)))
          CFI (cfiCond120) V0 load(1, XDATA, add(CFA_XSP16, literal(-7)))
          CFI (cfiCond120) R7 load(1, XDATA, add(CFA_XSP16, literal(-6)))
          CFI (cfiCond120) ?RET_LOW load(1, XDATA, add(CFA_XSP16, literal(-5)))
          CFI (cfiCond120) ?RET_HIGH load(1, XDATA, add(CFA_XSP16, literal(-4)))
          CFI (cfiCond120) ?BRET_EXT load(1, XDATA, add(CFA_XSP16, literal(-3)))
          CFI (cfiCond120) DPL0 load(1, XDATA, add(CFA_XSP16, literal(-2)))
          CFI (cfiCond120) DPH0 load(1, XDATA, add(CFA_XSP16, literal(-1)))
          CFI (cfiCond120) CFA_SP SP+-2
          CFI (cfiCond120) CFA_XSP16 add(XSP16, 20)
          CFI Block cfiCond121 Using cfiCommon0
          CFI (cfiCond121) Function MT_ZdoComplexDescRequest
          CFI (cfiCond121) Conditional ??CrossCallReturnLabel_16
          CFI (cfiCond121) R6 load(1, XDATA, add(CFA_XSP16, literal(-9)))
          CFI (cfiCond121) VB load(1, XDATA, add(CFA_XSP16, literal(-8)))
          CFI (cfiCond121) V0 load(1, XDATA, add(CFA_XSP16, literal(-7)))
          CFI (cfiCond121) R7 load(1, XDATA, add(CFA_XSP16, literal(-6)))
          CFI (cfiCond121) ?RET_LOW load(1, XDATA, add(CFA_XSP16, literal(-5)))
          CFI (cfiCond121) ?RET_HIGH load(1, XDATA, add(CFA_XSP16, literal(-4)))
          CFI (cfiCond121) ?BRET_EXT load(1, XDATA, add(CFA_XSP16, literal(-3)))
          CFI (cfiCond121) DPL0 load(1, XDATA, add(CFA_XSP16, literal(-2)))
          CFI (cfiCond121) DPH0 load(1, XDATA, add(CFA_XSP16, literal(-1)))
          CFI (cfiCond121) CFA_SP SP+-2
          CFI (cfiCond121) CFA_XSP16 add(XSP16, 20)
          CFI Block cfiCond122 Using cfiCommon0
          CFI (cfiCond122) Function MT_ZdoUserDescRequest
          CFI (cfiCond122) Conditional ??CrossCallReturnLabel_16
          CFI (cfiCond122) R6 load(1, XDATA, add(CFA_XSP16, literal(-9)))
          CFI (cfiCond122) VB load(1, XDATA, add(CFA_XSP16, literal(-8)))
          CFI (cfiCond122) V0 load(1, XDATA, add(CFA_XSP16, literal(-7)))
          CFI (cfiCond122) R7 load(1, XDATA, add(CFA_XSP16, literal(-6)))
          CFI (cfiCond122) ?RET_LOW load(1, XDATA, add(CFA_XSP16, literal(-5)))
          CFI (cfiCond122) ?RET_HIGH load(1, XDATA, add(CFA_XSP16, literal(-4)))
          CFI (cfiCond122) ?BRET_EXT load(1, XDATA, add(CFA_XSP16, literal(-3)))
          CFI (cfiCond122) DPL0 load(1, XDATA, add(CFA_XSP16, literal(-2)))
          CFI (cfiCond122) DPH0 load(1, XDATA, add(CFA_XSP16, literal(-1)))
          CFI (cfiCond122) CFA_SP SP+-2
          CFI (cfiCond122) CFA_XSP16 add(XSP16, 20)
          CFI Block cfiPicker123 Using cfiCommon1
          CFI (cfiPicker123) NoFunction
          CFI (cfiPicker123) Picker
        MOV       DPL,R2
        MOV       DPH,R3
        LCALL     ?Subroutine46 & 0xFFFF
??CrossCallReturnLabel_85:
        MOV       A,#0x2
        RET
          CFI EndBlock cfiCond118
          CFI EndBlock cfiCond119
          CFI EndBlock cfiCond120
          CFI EndBlock cfiCond121
          CFI EndBlock cfiCond122
          CFI EndBlock cfiPicker123
//  837 
//  838 /***************************************************************************************************
//  839  * @fn      MT_ZdoEndDevBindRequest
//  840  *
//  841  * @brief   Handle a End Device Bind request.
//  842  *
//  843  * @param   pBuf  - MT message data
//  844  *
//  845  * @return  void
//  846  ***************************************************************************************************/

        RSEG BANKED_CODE:HUGECODE:NOROOT(0)
//  847 void MT_ZdoEndDevBindRequest(uint8 *pBuf)
MT_ZdoEndDevBindRequest:
          CFI Block cfiBlock124 Using cfiCommon0
          CFI Function MT_ZdoEndDevBindRequest
        CODE
//  848 {
        FUNCALL MT_ZdoEndDevBindRequest, ZDP_EndDeviceBindReq
        LOCFRAME ISTACK, 0, STACK
        LOCFRAME PSTACK, 0, STACK
        LOCFRAME XSTACK, 94, STACK
        LOCFRAME IOVERLAY, 0, STATIC
        LOCFRAME DOVERLAY, 0, STATIC
        ARGFRAME ISTACK, 0, STACK
        ARGFRAME PSTACK, 0, STACK
        ARGFRAME XSTACK, 94, STACK
        ARGFRAME IOVERLAY, 0, STATIC
        ARGFRAME DOVERLAY, 0, STATIC
        FUNCALL MT_ZdoEndDevBindRequest, MT_BuildAndSendZToolResponse
        LOCFRAME ISTACK, 0, STACK
        LOCFRAME PSTACK, 0, STACK
        LOCFRAME XSTACK, 85, STACK
        LOCFRAME IOVERLAY, 0, STATIC
        LOCFRAME DOVERLAY, 0, STATIC
        ARGFRAME ISTACK, 0, STACK
        ARGFRAME PSTACK, 0, STACK
        ARGFRAME XSTACK, 85, STACK
        ARGFRAME IOVERLAY, 0, STATIC
        ARGFRAME DOVERLAY, 0, STATIC
        REQUIRE ?V0
        REQUIRE ?V1
        REQUIRE ?V2
        REQUIRE ?V3
        REQUIRE ?V4
        REQUIRE ?V5
        REQUIRE ?V6
        MOV       A,#-0xf
        LCALL     ?BANKED_ENTER_XDATA
          CFI DPH0 load(1, XDATA, add(CFA_XSP16, literal(-1)))
          CFI DPL0 load(1, XDATA, add(CFA_XSP16, literal(-2)))
          CFI ?BRET_EXT load(1, XDATA, add(CFA_XSP16, literal(-3)))
          CFI ?RET_HIGH load(1, XDATA, add(CFA_XSP16, literal(-4)))
          CFI ?RET_LOW load(1, XDATA, add(CFA_XSP16, literal(-5)))
          CFI R7 load(1, XDATA, add(CFA_XSP16, literal(-6)))
          CFI V6 load(1, XDATA, add(CFA_XSP16, literal(-7)))
          CFI V5 load(1, XDATA, add(CFA_XSP16, literal(-8)))
          CFI V4 load(1, XDATA, add(CFA_XSP16, literal(-9)))
          CFI V3 load(1, XDATA, add(CFA_XSP16, literal(-10)))
          CFI V2 load(1, XDATA, add(CFA_XSP16, literal(-11)))
          CFI V1 load(1, XDATA, add(CFA_XSP16, literal(-12)))
          CFI V0 load(1, XDATA, add(CFA_XSP16, literal(-13)))
          CFI VB load(1, XDATA, add(CFA_XSP16, literal(-14)))
          CFI R6 load(1, XDATA, add(CFA_XSP16, literal(-15)))
          CFI CFA_SP SP+0
          CFI CFA_XSP16 add(XSP16, 15)
        ; Saved register size: 15
        ; Auto size: 70
        MOV       A,#-0x46
        LCALL     ?ALLOC_XSTACK8
          CFI CFA_XSP16 add(XSP16, 85)
        MOV       A,R2
        MOV       R6,A
        MOV       A,R3
        MOV       R7,A
//  849   uint8 cmdId;
//  850   uint8 retValue = 0;
        MOV       DPL,?XSP + 0
        MOV       DPH,?XSP + 1
        CLR       A
        LCALL     ??Subroutine69_0 & 0xFFFF
//  851   uint8 i, epInt, numInClusters, numOutClusters;
//  852   zAddrType_t destAddr;
//  853   uint16 shortAddr;
//  854   uint16 profileID, inClusters[MTZDO_MAX_ED_BIND_CLUSTERS], outClusters[MTZDO_MAX_ED_BIND_CLUSTERS];
//  855 
//  856   /* parse header */
//  857   cmdId = pBuf[MT_RPC_POS_CMD1];
??CrossCallReturnLabel_139:
        MOV       ?V6,A
//  858   pBuf += MT_RPC_FRAME_HDR_SZ;
        MOV       A,R6
        ADD       A,#0x3
        MOV       R6,A
        JNC       ??MT_ZdoEndDevBindRequest_0
        INC       R7
//  859 
//  860   /* Dev address */
//  861   destAddr.addrMode = Addr16Bit;
??MT_ZdoEndDevBindRequest_0:
        MOV       A,#0x9
        LCALL     ?XSTACK_DISP0_8
        MOV       A,#0x2
        LCALL     ??Subroutine70_0 & 0xFFFF
//  862   destAddr.addr.shortAddr = BUILD_UINT16( pBuf[0], pBuf[1] );
??CrossCallReturnLabel_143:
        LCALL     ??Subroutine67_0 & 0xFFFF
??CrossCallReturnLabel_134:
        LCALL     ?XSTACK_DISP0_8
        MOV       A,R0
        MOVX      @DPTR,A
        INC       DPTR
        MOV       A,R1
        MOVX      @DPTR,A
//  863   pBuf += 2;
        MOV       A,R6
        ADD       A,#0x2
        MOV       R6,A
        JNC       ??MT_ZdoEndDevBindRequest_1
        INC       R7
//  864 
//  865   /* Local coordinator of the binding */
//  866   shortAddr = BUILD_UINT16( pBuf[0], pBuf[1] );
??MT_ZdoEndDevBindRequest_1:
        MOV       DPL,R6
        MOV       DPH,R7
        LCALL     ?Subroutine21 & 0xFFFF
??CrossCallReturnLabel_31:
        MOV       R4,A
        CLR       A
        ADDC      A,R1
        MOV       R5,A
//  867   pBuf += 2;
//  868 
//  869   /* For now, skip past the extended address */
//  870   pBuf += Z_EXTADDR_LEN;
//  871 
//  872   /* Endpoint */
//  873   epInt = *pBuf++;
        MOV       DPL,R6
        MOV       DPH,R7
        INC       DPTR
        INC       DPTR
        INC       DPTR
        INC       DPTR
        INC       DPTR
        INC       DPTR
        INC       DPTR
        INC       DPTR
        INC       DPTR
        INC       DPTR
        MOVX      A,@DPTR
        MOV       R1,A
        MOV       A,R6
        ADD       A,#0xb
        MOV       R6,A
        JNC       ??MT_ZdoEndDevBindRequest_2
        INC       R7
//  874 
//  875   /* Profile ID */
//  876   profileID = BUILD_UINT16( pBuf[0], pBuf[1] );
??MT_ZdoEndDevBindRequest_2:
        MOV       DPL,R6
        MOV       DPH,R7
        LCALL     ?Subroutine17 & 0xFFFF
//  877   pBuf += 2;
//  878 
//  879   /* NumInClusters */
//  880   numInClusters = *pBuf++;
??CrossCallReturnLabel_23:
        MOV       DPL,R6
        MOV       DPH,R7
        INC       DPTR
        INC       DPTR
        MOVX      A,@DPTR
        MOV       ?V2,A
        MOV       A,R6
        ADD       A,#0x3
        MOV       R6,A
        JNC       ??MT_ZdoEndDevBindRequest_3
        INC       R7
//  881   if ( numInClusters <= MTZDO_MAX_ED_BIND_CLUSTERS )
??MT_ZdoEndDevBindRequest_3:
        MOV       A,?V2
        CLR       C
        SUBB      A,#0x10
        JNC       ??MT_ZdoEndDevBindRequest_4
//  882   {
//  883     for ( i = 0; i < numInClusters; i++ )
        MOV       R0,#0x0
??MT_ZdoEndDevBindRequest_5:
        MOV       A,R0
        CLR       C
        SUBB      A,?V2
        JNC       ??MT_ZdoEndDevBindRequest_6
//  884     {
//  885       inClusters[i] = BUILD_UINT16(pBuf[0], pBuf[1]);
        LCALL     ?Subroutine10 & 0xFFFF
//  886       pBuf += 2;
//  887     }
??CrossCallReturnLabel_11:
        MOV       A,#0x28
        LCALL     ?XSTACK_DISP0_8
        LCALL     ?Subroutine30 & 0xFFFF
??CrossCallReturnLabel_46:
        JNC       ??MT_ZdoEndDevBindRequest_7
        INC       R7
??MT_ZdoEndDevBindRequest_7:
        INC       R0
        SJMP      ??MT_ZdoEndDevBindRequest_5
//  888   }
//  889   else
//  890   {
//  891     retValue = ZDP_INVALID_REQTYPE;
??MT_ZdoEndDevBindRequest_4:
        MOV       DPL,?XSP + 0
        MOV       DPH,?XSP + 1
        MOV       A,#-0x80
        MOVX      @DPTR,A
//  892   }
//  893 
//  894   /* NumOutClusters */
//  895   numOutClusters = *pBuf++;
??MT_ZdoEndDevBindRequest_6:
        MOV       DPL,R6
        MOV       DPH,R7
        MOVX      A,@DPTR
        MOV       ?V3,A
        INC       DPTR
        MOV       R6,DPL
        MOV       R7,DPH
//  896   if ( numOutClusters <= MTZDO_MAX_ED_BIND_CLUSTERS )
        CLR       C
        SUBB      A,#0x10
        JNC       ??MT_ZdoEndDevBindRequest_8
//  897   {
//  898     for ( i = 0; i < numOutClusters; i++ )
        MOV       R0,#0x0
??MT_ZdoEndDevBindRequest_9:
        MOV       A,R0
        CLR       C
        SUBB      A,?V3
        JNC       ??MT_ZdoEndDevBindRequest_10
//  899     {
//  900       outClusters[i] = BUILD_UINT16(pBuf[0], pBuf[1]);
        LCALL     ?Subroutine10 & 0xFFFF
//  901       pBuf += 2;
//  902     }
??CrossCallReturnLabel_12:
        MOV       A,#0xa
        LCALL     ?XSTACK_DISP0_8
        LCALL     ?Subroutine30 & 0xFFFF
??CrossCallReturnLabel_47:
        JNC       ??MT_ZdoEndDevBindRequest_11
        INC       R7
??MT_ZdoEndDevBindRequest_11:
        INC       R0
        SJMP      ??MT_ZdoEndDevBindRequest_9
//  903   }
//  904   else
//  905   {
//  906     retValue = ZDP_INVALID_REQTYPE;
??MT_ZdoEndDevBindRequest_8:
        MOV       DPL,?XSP + 0
        MOV       DPH,?XSP + 1
        MOV       A,#-0x80
        SJMP      ??MT_ZdoEndDevBindRequest_12
//  907   }
//  908 
//  909   if ( retValue == 0 )
??MT_ZdoEndDevBindRequest_10:
        MOV       DPL,?XSP + 0
        MOV       DPH,?XSP + 1
        MOVX      A,@DPTR
        JNZ       ??MT_ZdoEndDevBindRequest_13
//  910   {
//  911     retValue = (uint8)ZDP_EndDeviceBindReq( &destAddr, shortAddr, epInt, profileID,
//  912                                           numInClusters, inClusters, numOutClusters, outClusters, 0);
        ; Setup parameters for call to function ZDP_EndDeviceBindReq
        MOV       ?V0,#0x0
        MOV       R0,#?V0
        LCALL     ?PUSH_XSTACK_I_ONE
          CFI CFA_XSP16 add(XSP16, 86)
        MOV       A,#0xb
        LCALL     ?XSTACK_DISP103_8
        MOV       ?V0,R6
        MOV       ?V1,R7
        MOV       R0,#?V0
        LCALL     ?PUSH_XSTACK_I_TWO
          CFI CFA_XSP16 add(XSP16, 88)
        MOV       A,?V3
        MOV       ?V0,A
        MOV       R0,#?V0
        LCALL     ?PUSH_XSTACK_I_ONE
          CFI CFA_XSP16 add(XSP16, 89)
        MOV       A,#0x2c
        LCALL     ?XSTACK_DISP103_8
        MOV       ?V0,R6
        MOV       ?V1,R7
        MOV       R0,#?V0
        LCALL     ?PUSH_XSTACK_I_TWO
          CFI CFA_XSP16 add(XSP16, 91)
        MOV       A,?V2
        MOV       ?V0,A
        MOV       R0,#?V0
        LCALL     ?PUSH_XSTACK_I_ONE
          CFI CFA_XSP16 add(XSP16, 92)
        MOV       ?V0,R2
        MOV       ?V1,R3
        MOV       R0,#?V0
        LCALL     ?PUSH_XSTACK_I_TWO
          CFI CFA_XSP16 add(XSP16, 94)
        MOV       A,#0xa
        LCALL     ?XSTACK_DISP101_8
        LCALL     `??ZDP_EndDeviceBindReq::?relay`; Banked call to: ZDP_EndDeviceBindReq
        MOV       A,#0x9
        LCALL     ?DEALLOC_XSTACK8
          CFI CFA_XSP16 add(XSP16, 85)
        MOV       A,R1
        MOV       DPL,?XSP + 0
        MOV       DPH,?XSP + 1
??MT_ZdoEndDevBindRequest_12:
        MOVX      @DPTR,A
//  913   }
//  914 
//  915   MT_BuildAndSendZToolResponse(((uint8)MT_RPC_CMD_SRSP | (uint8)MT_RPC_SYS_ZDO), cmdId, 1, &retValue);
??MT_ZdoEndDevBindRequest_13:
        ; Setup parameters for call to function MT_BuildAndSendZToolResponse
        MOV       R4,?XSP + 0
        MOV       R5,?XSP + 1
        MOV       R3,#0x1
        MOV       R2,?V6
        MOV       R1,#0x65
        LCALL     `??MT_BuildAndSendZToolResponse::?relay`; Banked call to: MT_BuildAndSendZToolResponse
//  916 }
        MOV       A,#0x46
        LCALL     ?DEALLOC_XSTACK8
          CFI CFA_XSP16 add(XSP16, 15)
        MOV       R7,#0x7
        LJMP      ?BANKED_LEAVE_XDATA
          CFI EndBlock cfiBlock124

        RSEG BANKED_CODE:HUGECODE:NOROOT(0)
?Subroutine30:
          CFI Block cfiCond125 Using cfiCommon0
          CFI Function MT_ZdoEndDevBindRequest
          CFI Conditional ??CrossCallReturnLabel_46
          CFI R6 load(1, XDATA, add(CFA_XSP16, literal(-15)))
          CFI VB load(1, XDATA, add(CFA_XSP16, literal(-14)))
          CFI V0 load(1, XDATA, add(CFA_XSP16, literal(-13)))
          CFI V1 load(1, XDATA, add(CFA_XSP16, literal(-12)))
          CFI V2 load(1, XDATA, add(CFA_XSP16, literal(-11)))
          CFI V3 load(1, XDATA, add(CFA_XSP16, literal(-10)))
          CFI V4 load(1, XDATA, add(CFA_XSP16, literal(-9)))
          CFI V5 load(1, XDATA, add(CFA_XSP16, literal(-8)))
          CFI V6 load(1, XDATA, add(CFA_XSP16, literal(-7)))
          CFI R7 load(1, XDATA, add(CFA_XSP16, literal(-6)))
          CFI ?RET_LOW load(1, XDATA, add(CFA_XSP16, literal(-5)))
          CFI ?RET_HIGH load(1, XDATA, add(CFA_XSP16, literal(-4)))
          CFI ?BRET_EXT load(1, XDATA, add(CFA_XSP16, literal(-3)))
          CFI DPL0 load(1, XDATA, add(CFA_XSP16, literal(-2)))
          CFI DPH0 load(1, XDATA, add(CFA_XSP16, literal(-1)))
          CFI CFA_SP SP+-2
          CFI CFA_XSP16 add(XSP16, 85)
          CFI Block cfiCond126 Using cfiCommon0
          CFI (cfiCond126) Function MT_ZdoEndDevBindRequest
          CFI (cfiCond126) Conditional ??CrossCallReturnLabel_47
          CFI (cfiCond126) R6 load(1, XDATA, add(CFA_XSP16, literal(-15)))
          CFI (cfiCond126) VB load(1, XDATA, add(CFA_XSP16, literal(-14)))
          CFI (cfiCond126) V0 load(1, XDATA, add(CFA_XSP16, literal(-13)))
          CFI (cfiCond126) V1 load(1, XDATA, add(CFA_XSP16, literal(-12)))
          CFI (cfiCond126) V2 load(1, XDATA, add(CFA_XSP16, literal(-11)))
          CFI (cfiCond126) V3 load(1, XDATA, add(CFA_XSP16, literal(-10)))
          CFI (cfiCond126) V4 load(1, XDATA, add(CFA_XSP16, literal(-9)))
          CFI (cfiCond126) V5 load(1, XDATA, add(CFA_XSP16, literal(-8)))
          CFI (cfiCond126) V6 load(1, XDATA, add(CFA_XSP16, literal(-7)))
          CFI (cfiCond126) R7 load(1, XDATA, add(CFA_XSP16, literal(-6)))
          CFI (cfiCond126) ?RET_LOW load(1, XDATA, add(CFA_XSP16, literal(-5)))
          CFI (cfiCond126) ?RET_HIGH load(1, XDATA, add(CFA_XSP16, literal(-4)))
          CFI (cfiCond126) ?BRET_EXT load(1, XDATA, add(CFA_XSP16, literal(-3)))
          CFI (cfiCond126) DPL0 load(1, XDATA, add(CFA_XSP16, literal(-2)))
          CFI (cfiCond126) DPH0 load(1, XDATA, add(CFA_XSP16, literal(-1)))
          CFI (cfiCond126) CFA_SP SP+-2
          CFI (cfiCond126) CFA_XSP16 add(XSP16, 85)
          CFI Block cfiPicker127 Using cfiCommon1
          CFI (cfiPicker127) NoFunction
          CFI (cfiPicker127) Picker
        LCALL     ?Subroutine53 & 0xFFFF
??CrossCallReturnLabel_98:
        MOV       A,R6
        ADD       A,#0x2
        MOV       R6,A
        RET
          CFI EndBlock cfiCond125
          CFI EndBlock cfiCond126
          CFI EndBlock cfiPicker127

        RSEG BANKED_CODE:HUGECODE:NOROOT(0)
?Subroutine53:
          CFI Block cfiCond128 Using cfiCommon0
          CFI Function MT_ZdoMatchDescRequest
          CFI Conditional ??CrossCallReturnLabel_97, ??CrossCallReturnLabel_44
          CFI R6 load(1, XDATA, add(CFA_XSP16, literal(-14)))
          CFI VB load(1, XDATA, add(CFA_XSP16, literal(-13)))
          CFI V0 load(1, XDATA, add(CFA_XSP16, literal(-12)))
          CFI V1 load(1, XDATA, add(CFA_XSP16, literal(-11)))
          CFI V2 load(1, XDATA, add(CFA_XSP16, literal(-10)))
          CFI V3 load(1, XDATA, add(CFA_XSP16, literal(-9)))
          CFI V4 load(1, XDATA, add(CFA_XSP16, literal(-8)))
          CFI V5 load(1, XDATA, add(CFA_XSP16, literal(-7)))
          CFI R7 load(1, XDATA, add(CFA_XSP16, literal(-6)))
          CFI ?RET_LOW load(1, XDATA, add(CFA_XSP16, literal(-5)))
          CFI ?RET_HIGH load(1, XDATA, add(CFA_XSP16, literal(-4)))
          CFI ?BRET_EXT load(1, XDATA, add(CFA_XSP16, literal(-3)))
          CFI DPL0 load(1, XDATA, add(CFA_XSP16, literal(-2)))
          CFI DPH0 load(1, XDATA, add(CFA_XSP16, literal(-1)))
          CFI CFA_SP SP+-4
          CFI CFA_XSP16 add(XSP16, 88)
          CFI Block cfiCond129 Using cfiCommon0
          CFI (cfiCond129) Function MT_ZdoMatchDescRequest
          CFI (cfiCond129) Conditional ??CrossCallReturnLabel_97, ??CrossCallReturnLabel_45
          CFI (cfiCond129) R6 load(1, XDATA, add(CFA_XSP16, literal(-14)))
          CFI (cfiCond129) VB load(1, XDATA, add(CFA_XSP16, literal(-13)))
          CFI (cfiCond129) V0 load(1, XDATA, add(CFA_XSP16, literal(-12)))
          CFI (cfiCond129) V1 load(1, XDATA, add(CFA_XSP16, literal(-11)))
          CFI (cfiCond129) V2 load(1, XDATA, add(CFA_XSP16, literal(-10)))
          CFI (cfiCond129) V3 load(1, XDATA, add(CFA_XSP16, literal(-9)))
          CFI (cfiCond129) V4 load(1, XDATA, add(CFA_XSP16, literal(-8)))
          CFI (cfiCond129) V5 load(1, XDATA, add(CFA_XSP16, literal(-7)))
          CFI (cfiCond129) R7 load(1, XDATA, add(CFA_XSP16, literal(-6)))
          CFI (cfiCond129) ?RET_LOW load(1, XDATA, add(CFA_XSP16, literal(-5)))
          CFI (cfiCond129) ?RET_HIGH load(1, XDATA, add(CFA_XSP16, literal(-4)))
          CFI (cfiCond129) ?BRET_EXT load(1, XDATA, add(CFA_XSP16, literal(-3)))
          CFI (cfiCond129) DPL0 load(1, XDATA, add(CFA_XSP16, literal(-2)))
          CFI (cfiCond129) DPH0 load(1, XDATA, add(CFA_XSP16, literal(-1)))
          CFI (cfiCond129) CFA_SP SP+-4
          CFI (cfiCond129) CFA_XSP16 add(XSP16, 88)
          CFI Block cfiCond130 Using cfiCommon0
          CFI (cfiCond130) Function MT_ZdoEndDevBindRequest
          CFI (cfiCond130) Conditional ??CrossCallReturnLabel_98, ??CrossCallReturnLabel_46
          CFI (cfiCond130) R6 load(1, XDATA, add(CFA_XSP16, literal(-15)))
          CFI (cfiCond130) VB load(1, XDATA, add(CFA_XSP16, literal(-14)))
          CFI (cfiCond130) V0 load(1, XDATA, add(CFA_XSP16, literal(-13)))
          CFI (cfiCond130) V1 load(1, XDATA, add(CFA_XSP16, literal(-12)))
          CFI (cfiCond130) V2 load(1, XDATA, add(CFA_XSP16, literal(-11)))
          CFI (cfiCond130) V3 load(1, XDATA, add(CFA_XSP16, literal(-10)))
          CFI (cfiCond130) V4 load(1, XDATA, add(CFA_XSP16, literal(-9)))
          CFI (cfiCond130) V5 load(1, XDATA, add(CFA_XSP16, literal(-8)))
          CFI (cfiCond130) V6 load(1, XDATA, add(CFA_XSP16, literal(-7)))
          CFI (cfiCond130) R7 load(1, XDATA, add(CFA_XSP16, literal(-6)))
          CFI (cfiCond130) ?RET_LOW load(1, XDATA, add(CFA_XSP16, literal(-5)))
          CFI (cfiCond130) ?RET_HIGH load(1, XDATA, add(CFA_XSP16, literal(-4)))
          CFI (cfiCond130) ?BRET_EXT load(1, XDATA, add(CFA_XSP16, literal(-3)))
          CFI (cfiCond130) DPL0 load(1, XDATA, add(CFA_XSP16, literal(-2)))
          CFI (cfiCond130) DPH0 load(1, XDATA, add(CFA_XSP16, literal(-1)))
          CFI (cfiCond130) CFA_SP SP+-4
          CFI (cfiCond130) CFA_XSP16 add(XSP16, 85)
          CFI Block cfiCond131 Using cfiCommon0
          CFI (cfiCond131) Function MT_ZdoEndDevBindRequest
          CFI (cfiCond131) Conditional ??CrossCallReturnLabel_98, ??CrossCallReturnLabel_47
          CFI (cfiCond131) R6 load(1, XDATA, add(CFA_XSP16, literal(-15)))
          CFI (cfiCond131) VB load(1, XDATA, add(CFA_XSP16, literal(-14)))
          CFI (cfiCond131) V0 load(1, XDATA, add(CFA_XSP16, literal(-13)))
          CFI (cfiCond131) V1 load(1, XDATA, add(CFA_XSP16, literal(-12)))
          CFI (cfiCond131) V2 load(1, XDATA, add(CFA_XSP16, literal(-11)))
          CFI (cfiCond131) V3 load(1, XDATA, add(CFA_XSP16, literal(-10)))
          CFI (cfiCond131) V4 load(1, XDATA, add(CFA_XSP16, literal(-9)))
          CFI (cfiCond131) V5 load(1, XDATA, add(CFA_XSP16, literal(-8)))
          CFI (cfiCond131) V6 load(1, XDATA, add(CFA_XSP16, literal(-7)))
          CFI (cfiCond131) R7 load(1, XDATA, add(CFA_XSP16, literal(-6)))
          CFI (cfiCond131) ?RET_LOW load(1, XDATA, add(CFA_XSP16, literal(-5)))
          CFI (cfiCond131) ?RET_HIGH load(1, XDATA, add(CFA_XSP16, literal(-4)))
          CFI (cfiCond131) ?BRET_EXT load(1, XDATA, add(CFA_XSP16, literal(-3)))
          CFI (cfiCond131) DPL0 load(1, XDATA, add(CFA_XSP16, literal(-2)))
          CFI (cfiCond131) DPH0 load(1, XDATA, add(CFA_XSP16, literal(-1)))
          CFI (cfiCond131) CFA_SP SP+-4
          CFI (cfiCond131) CFA_XSP16 add(XSP16, 85)
          CFI Block cfiPicker132 Using cfiCommon1
          CFI (cfiPicker132) NoFunction
          CFI (cfiPicker132) Picker
        MOV       A,DPL
        ADD       A,?V0
        MOV       DPL,A
        MOV       A,DPH
        ADDC      A,?V1
        MOV       DPH,A
        MOV       A,?V4
        MOVX      @DPTR,A
        INC       DPTR
        MOV       A,?V5
        MOVX      @DPTR,A
        RET
          CFI EndBlock cfiCond128
          CFI EndBlock cfiCond129
          CFI EndBlock cfiCond130
          CFI EndBlock cfiCond131
          CFI EndBlock cfiPicker132

        RSEG BANKED_CODE:HUGECODE:NOROOT(0)
?Subroutine21:
          CFI Block cfiCond133 Using cfiCommon0
          CFI Function MT_ZdoEndDevAnnce
          CFI Conditional ??CrossCallReturnLabel_30
          CFI R6 load(1, XDATA, add(CFA_XSP16, literal(-9)))
          CFI VB load(1, XDATA, add(CFA_XSP16, literal(-8)))
          CFI V0 load(1, XDATA, add(CFA_XSP16, literal(-7)))
          CFI R7 load(1, XDATA, add(CFA_XSP16, literal(-6)))
          CFI ?RET_LOW load(1, XDATA, add(CFA_XSP16, literal(-5)))
          CFI ?RET_HIGH load(1, XDATA, add(CFA_XSP16, literal(-4)))
          CFI ?BRET_EXT load(1, XDATA, add(CFA_XSP16, literal(-3)))
          CFI DPL0 load(1, XDATA, add(CFA_XSP16, literal(-2)))
          CFI DPH0 load(1, XDATA, add(CFA_XSP16, literal(-1)))
          CFI CFA_SP SP+-2
          CFI CFA_XSP16 add(XSP16, 10)
          CFI Block cfiCond134 Using cfiCommon0
          CFI (cfiCond134) Function MT_ZdoEndDevBindRequest
          CFI (cfiCond134) Conditional ??CrossCallReturnLabel_31
          CFI (cfiCond134) R6 load(1, XDATA, add(CFA_XSP16, literal(-15)))
          CFI (cfiCond134) VB load(1, XDATA, add(CFA_XSP16, literal(-14)))
          CFI (cfiCond134) V0 load(1, XDATA, add(CFA_XSP16, literal(-13)))
          CFI (cfiCond134) V1 load(1, XDATA, add(CFA_XSP16, literal(-12)))
          CFI (cfiCond134) V2 load(1, XDATA, add(CFA_XSP16, literal(-11)))
          CFI (cfiCond134) V3 load(1, XDATA, add(CFA_XSP16, literal(-10)))
          CFI (cfiCond134) V4 load(1, XDATA, add(CFA_XSP16, literal(-9)))
          CFI (cfiCond134) V5 load(1, XDATA, add(CFA_XSP16, literal(-8)))
          CFI (cfiCond134) V6 load(1, XDATA, add(CFA_XSP16, literal(-7)))
          CFI (cfiCond134) R7 load(1, XDATA, add(CFA_XSP16, literal(-6)))
          CFI (cfiCond134) ?RET_LOW load(1, XDATA, add(CFA_XSP16, literal(-5)))
          CFI (cfiCond134) ?RET_HIGH load(1, XDATA, add(CFA_XSP16, literal(-4)))
          CFI (cfiCond134) ?BRET_EXT load(1, XDATA, add(CFA_XSP16, literal(-3)))
          CFI (cfiCond134) DPL0 load(1, XDATA, add(CFA_XSP16, literal(-2)))
          CFI (cfiCond134) DPH0 load(1, XDATA, add(CFA_XSP16, literal(-1)))
          CFI (cfiCond134) CFA_SP SP+-2
          CFI (cfiCond134) CFA_XSP16 add(XSP16, 85)
          CFI Block cfiPicker135 Using cfiCommon1
          CFI (cfiPicker135) NoFunction
          CFI (cfiPicker135) Picker
        LCALL     ?Subroutine49 & 0xFFFF
??CrossCallReturnLabel_133:
        RET
          CFI EndBlock cfiCond133
          CFI EndBlock cfiCond134
          CFI EndBlock cfiPicker135

        RSEG BANKED_CODE:HUGECODE:NOROOT(0)
?Subroutine49:
          CFI Block cfiCond136 Using cfiCommon0
          CFI Function MT_ZdoEndDevAnnce
          CFI Conditional ??CrossCallReturnLabel_133, ??CrossCallReturnLabel_30
          CFI R6 load(1, XDATA, add(CFA_XSP16, literal(-9)))
          CFI VB load(1, XDATA, add(CFA_XSP16, literal(-8)))
          CFI V0 load(1, XDATA, add(CFA_XSP16, literal(-7)))
          CFI R7 load(1, XDATA, add(CFA_XSP16, literal(-6)))
          CFI ?RET_LOW load(1, XDATA, add(CFA_XSP16, literal(-5)))
          CFI ?RET_HIGH load(1, XDATA, add(CFA_XSP16, literal(-4)))
          CFI ?BRET_EXT load(1, XDATA, add(CFA_XSP16, literal(-3)))
          CFI DPL0 load(1, XDATA, add(CFA_XSP16, literal(-2)))
          CFI DPH0 load(1, XDATA, add(CFA_XSP16, literal(-1)))
          CFI CFA_SP SP+-4
          CFI CFA_XSP16 add(XSP16, 10)
          CFI Block cfiCond137 Using cfiCommon0
          CFI (cfiCond137) Function MT_ZdoEndDevBindRequest
          CFI (cfiCond137) Conditional ??CrossCallReturnLabel_133, ??CrossCallReturnLabel_31
          CFI (cfiCond137) R6 load(1, XDATA, add(CFA_XSP16, literal(-15)))
          CFI (cfiCond137) VB load(1, XDATA, add(CFA_XSP16, literal(-14)))
          CFI (cfiCond137) V0 load(1, XDATA, add(CFA_XSP16, literal(-13)))
          CFI (cfiCond137) V1 load(1, XDATA, add(CFA_XSP16, literal(-12)))
          CFI (cfiCond137) V2 load(1, XDATA, add(CFA_XSP16, literal(-11)))
          CFI (cfiCond137) V3 load(1, XDATA, add(CFA_XSP16, literal(-10)))
          CFI (cfiCond137) V4 load(1, XDATA, add(CFA_XSP16, literal(-9)))
          CFI (cfiCond137) V5 load(1, XDATA, add(CFA_XSP16, literal(-8)))
          CFI (cfiCond137) V6 load(1, XDATA, add(CFA_XSP16, literal(-7)))
          CFI (cfiCond137) R7 load(1, XDATA, add(CFA_XSP16, literal(-6)))
          CFI (cfiCond137) ?RET_LOW load(1, XDATA, add(CFA_XSP16, literal(-5)))
          CFI (cfiCond137) ?RET_HIGH load(1, XDATA, add(CFA_XSP16, literal(-4)))
          CFI (cfiCond137) ?BRET_EXT load(1, XDATA, add(CFA_XSP16, literal(-3)))
          CFI (cfiCond137) DPL0 load(1, XDATA, add(CFA_XSP16, literal(-2)))
          CFI (cfiCond137) DPH0 load(1, XDATA, add(CFA_XSP16, literal(-1)))
          CFI (cfiCond137) CFA_SP SP+-4
          CFI (cfiCond137) CFA_XSP16 add(XSP16, 85)
          CFI Block cfiCond138 Using cfiCommon0
          CFI (cfiCond138) Function MT_ZdoBindRequest
          CFI (cfiCond138) Conditional ??CrossCallReturnLabel_132, ??CrossCallReturnLabel_7
          CFI (cfiCond138) R6 load(1, XDATA, add(CFA_XSP16, literal(-16)))
          CFI (cfiCond138) VB load(1, XDATA, add(CFA_XSP16, literal(-15)))
          CFI (cfiCond138) V0 load(1, XDATA, add(CFA_XSP16, literal(-14)))
          CFI (cfiCond138) V1 load(1, XDATA, add(CFA_XSP16, literal(-13)))
          CFI (cfiCond138) V2 load(1, XDATA, add(CFA_XSP16, literal(-12)))
          CFI (cfiCond138) V3 load(1, XDATA, add(CFA_XSP16, literal(-11)))
          CFI (cfiCond138) V4 load(1, XDATA, add(CFA_XSP16, literal(-10)))
          CFI (cfiCond138) V5 load(1, XDATA, add(CFA_XSP16, literal(-9)))
          CFI (cfiCond138) V6 load(1, XDATA, add(CFA_XSP16, literal(-8)))
          CFI (cfiCond138) V7 load(1, XDATA, add(CFA_XSP16, literal(-7)))
          CFI (cfiCond138) R7 load(1, XDATA, add(CFA_XSP16, literal(-6)))
          CFI (cfiCond138) ?RET_LOW load(1, XDATA, add(CFA_XSP16, literal(-5)))
          CFI (cfiCond138) ?RET_HIGH load(1, XDATA, add(CFA_XSP16, literal(-4)))
          CFI (cfiCond138) ?BRET_EXT load(1, XDATA, add(CFA_XSP16, literal(-3)))
          CFI (cfiCond138) DPL0 load(1, XDATA, add(CFA_XSP16, literal(-2)))
          CFI (cfiCond138) DPH0 load(1, XDATA, add(CFA_XSP16, literal(-1)))
          CFI (cfiCond138) CFA_SP SP+-4
          CFI (cfiCond138) CFA_XSP16 add(XSP16, 35)
          CFI Block cfiCond139 Using cfiCommon0
          CFI (cfiCond139) Function MT_ZdoUnbindRequest
          CFI (cfiCond139) Conditional ??CrossCallReturnLabel_132, ??CrossCallReturnLabel_8
          CFI (cfiCond139) R6 load(1, XDATA, add(CFA_XSP16, literal(-16)))
          CFI (cfiCond139) VB load(1, XDATA, add(CFA_XSP16, literal(-15)))
          CFI (cfiCond139) V0 load(1, XDATA, add(CFA_XSP16, literal(-14)))
          CFI (cfiCond139) V1 load(1, XDATA, add(CFA_XSP16, literal(-13)))
          CFI (cfiCond139) V2 load(1, XDATA, add(CFA_XSP16, literal(-12)))
          CFI (cfiCond139) V3 load(1, XDATA, add(CFA_XSP16, literal(-11)))
          CFI (cfiCond139) V4 load(1, XDATA, add(CFA_XSP16, literal(-10)))
          CFI (cfiCond139) V5 load(1, XDATA, add(CFA_XSP16, literal(-9)))
          CFI (cfiCond139) V6 load(1, XDATA, add(CFA_XSP16, literal(-8)))
          CFI (cfiCond139) V7 load(1, XDATA, add(CFA_XSP16, literal(-7)))
          CFI (cfiCond139) R7 load(1, XDATA, add(CFA_XSP16, literal(-6)))
          CFI (cfiCond139) ?RET_LOW load(1, XDATA, add(CFA_XSP16, literal(-5)))
          CFI (cfiCond139) ?RET_HIGH load(1, XDATA, add(CFA_XSP16, literal(-4)))
          CFI (cfiCond139) ?BRET_EXT load(1, XDATA, add(CFA_XSP16, literal(-3)))
          CFI (cfiCond139) DPL0 load(1, XDATA, add(CFA_XSP16, literal(-2)))
          CFI (cfiCond139) DPH0 load(1, XDATA, add(CFA_XSP16, literal(-1)))
          CFI (cfiCond139) CFA_SP SP+-4
          CFI (cfiCond139) CFA_XSP16 add(XSP16, 35)
          CFI Block cfiPicker140 Using cfiCommon1
          CFI (cfiPicker140) NoFunction
          CFI (cfiPicker140) Picker
        MOVX      A,@DPTR
        MOV       R2,A
          CFI EndBlock cfiCond136
          CFI EndBlock cfiCond137
          CFI EndBlock cfiCond138
          CFI EndBlock cfiCond139
          CFI EndBlock cfiPicker140
        REQUIRE ??Subroutine66_0
        ; // Fall through to label ??Subroutine66_0

        RSEG BANKED_CODE:HUGECODE:NOROOT(0)
??Subroutine66_0:
          CFI Block cfiCond141 Using cfiCommon0
          CFI Function MT_ZdoJoinReq
          CFI Conditional ??CrossCallReturnLabel_131
          CFI R6 load(1, XDATA, add(CFA_XSP16, literal(-12)))
          CFI VB load(1, XDATA, add(CFA_XSP16, literal(-11)))
          CFI V0 load(1, XDATA, add(CFA_XSP16, literal(-10)))
          CFI V1 load(1, XDATA, add(CFA_XSP16, literal(-9)))
          CFI V2 load(1, XDATA, add(CFA_XSP16, literal(-8)))
          CFI V3 load(1, XDATA, add(CFA_XSP16, literal(-7)))
          CFI R7 load(1, XDATA, add(CFA_XSP16, literal(-6)))
          CFI ?RET_LOW load(1, XDATA, add(CFA_XSP16, literal(-5)))
          CFI ?RET_HIGH load(1, XDATA, add(CFA_XSP16, literal(-4)))
          CFI ?BRET_EXT load(1, XDATA, add(CFA_XSP16, literal(-3)))
          CFI DPL0 load(1, XDATA, add(CFA_XSP16, literal(-2)))
          CFI DPH0 load(1, XDATA, add(CFA_XSP16, literal(-1)))
          CFI CFA_SP SP+-2
          CFI CFA_XSP16 add(XSP16, 17)
          CFI Block cfiCond142 Using cfiCommon0
          CFI (cfiCond142) Function MT_ZdoEndDevAnnce
          CFI (cfiCond142) Conditional ??CrossCallReturnLabel_133, ??CrossCallReturnLabel_30
          CFI (cfiCond142) R6 load(1, XDATA, add(CFA_XSP16, literal(-9)))
          CFI (cfiCond142) VB load(1, XDATA, add(CFA_XSP16, literal(-8)))
          CFI (cfiCond142) V0 load(1, XDATA, add(CFA_XSP16, literal(-7)))
          CFI (cfiCond142) R7 load(1, XDATA, add(CFA_XSP16, literal(-6)))
          CFI (cfiCond142) ?RET_LOW load(1, XDATA, add(CFA_XSP16, literal(-5)))
          CFI (cfiCond142) ?RET_HIGH load(1, XDATA, add(CFA_XSP16, literal(-4)))
          CFI (cfiCond142) ?BRET_EXT load(1, XDATA, add(CFA_XSP16, literal(-3)))
          CFI (cfiCond142) DPL0 load(1, XDATA, add(CFA_XSP16, literal(-2)))
          CFI (cfiCond142) DPH0 load(1, XDATA, add(CFA_XSP16, literal(-1)))
          CFI (cfiCond142) CFA_SP SP+-4
          CFI (cfiCond142) CFA_XSP16 add(XSP16, 10)
          CFI Block cfiCond143 Using cfiCommon0
          CFI (cfiCond143) Function MT_ZdoEndDevBindRequest
          CFI (cfiCond143) Conditional ??CrossCallReturnLabel_133, ??CrossCallReturnLabel_31
          CFI (cfiCond143) R6 load(1, XDATA, add(CFA_XSP16, literal(-15)))
          CFI (cfiCond143) VB load(1, XDATA, add(CFA_XSP16, literal(-14)))
          CFI (cfiCond143) V0 load(1, XDATA, add(CFA_XSP16, literal(-13)))
          CFI (cfiCond143) V1 load(1, XDATA, add(CFA_XSP16, literal(-12)))
          CFI (cfiCond143) V2 load(1, XDATA, add(CFA_XSP16, literal(-11)))
          CFI (cfiCond143) V3 load(1, XDATA, add(CFA_XSP16, literal(-10)))
          CFI (cfiCond143) V4 load(1, XDATA, add(CFA_XSP16, literal(-9)))
          CFI (cfiCond143) V5 load(1, XDATA, add(CFA_XSP16, literal(-8)))
          CFI (cfiCond143) V6 load(1, XDATA, add(CFA_XSP16, literal(-7)))
          CFI (cfiCond143) R7 load(1, XDATA, add(CFA_XSP16, literal(-6)))
          CFI (cfiCond143) ?RET_LOW load(1, XDATA, add(CFA_XSP16, literal(-5)))
          CFI (cfiCond143) ?RET_HIGH load(1, XDATA, add(CFA_XSP16, literal(-4)))
          CFI (cfiCond143) ?BRET_EXT load(1, XDATA, add(CFA_XSP16, literal(-3)))
          CFI (cfiCond143) DPL0 load(1, XDATA, add(CFA_XSP16, literal(-2)))
          CFI (cfiCond143) DPH0 load(1, XDATA, add(CFA_XSP16, literal(-1)))
          CFI (cfiCond143) CFA_SP SP+-4
          CFI (cfiCond143) CFA_XSP16 add(XSP16, 85)
          CFI Block cfiCond144 Using cfiCommon0
          CFI (cfiCond144) Function MT_ZdoBindRequest
          CFI (cfiCond144) Conditional ??CrossCallReturnLabel_132, ??CrossCallReturnLabel_7
          CFI (cfiCond144) R6 load(1, XDATA, add(CFA_XSP16, literal(-16)))
          CFI (cfiCond144) VB load(1, XDATA, add(CFA_XSP16, literal(-15)))
          CFI (cfiCond144) V0 load(1, XDATA, add(CFA_XSP16, literal(-14)))
          CFI (cfiCond144) V1 load(1, XDATA, add(CFA_XSP16, literal(-13)))
          CFI (cfiCond144) V2 load(1, XDATA, add(CFA_XSP16, literal(-12)))
          CFI (cfiCond144) V3 load(1, XDATA, add(CFA_XSP16, literal(-11)))
          CFI (cfiCond144) V4 load(1, XDATA, add(CFA_XSP16, literal(-10)))
          CFI (cfiCond144) V5 load(1, XDATA, add(CFA_XSP16, literal(-9)))
          CFI (cfiCond144) V6 load(1, XDATA, add(CFA_XSP16, literal(-8)))
          CFI (cfiCond144) V7 load(1, XDATA, add(CFA_XSP16, literal(-7)))
          CFI (cfiCond144) R7 load(1, XDATA, add(CFA_XSP16, literal(-6)))
          CFI (cfiCond144) ?RET_LOW load(1, XDATA, add(CFA_XSP16, literal(-5)))
          CFI (cfiCond144) ?RET_HIGH load(1, XDATA, add(CFA_XSP16, literal(-4)))
          CFI (cfiCond144) ?BRET_EXT load(1, XDATA, add(CFA_XSP16, literal(-3)))
          CFI (cfiCond144) DPL0 load(1, XDATA, add(CFA_XSP16, literal(-2)))
          CFI (cfiCond144) DPH0 load(1, XDATA, add(CFA_XSP16, literal(-1)))
          CFI (cfiCond144) CFA_SP SP+-4
          CFI (cfiCond144) CFA_XSP16 add(XSP16, 35)
          CFI Block cfiCond145 Using cfiCommon0
          CFI (cfiCond145) Function MT_ZdoUnbindRequest
          CFI (cfiCond145) Conditional ??CrossCallReturnLabel_132, ??CrossCallReturnLabel_8
          CFI (cfiCond145) R6 load(1, XDATA, add(CFA_XSP16, literal(-16)))
          CFI (cfiCond145) VB load(1, XDATA, add(CFA_XSP16, literal(-15)))
          CFI (cfiCond145) V0 load(1, XDATA, add(CFA_XSP16, literal(-14)))
          CFI (cfiCond145) V1 load(1, XDATA, add(CFA_XSP16, literal(-13)))
          CFI (cfiCond145) V2 load(1, XDATA, add(CFA_XSP16, literal(-12)))
          CFI (cfiCond145) V3 load(1, XDATA, add(CFA_XSP16, literal(-11)))
          CFI (cfiCond145) V4 load(1, XDATA, add(CFA_XSP16, literal(-10)))
          CFI (cfiCond145) V5 load(1, XDATA, add(CFA_XSP16, literal(-9)))
          CFI (cfiCond145) V6 load(1, XDATA, add(CFA_XSP16, literal(-8)))
          CFI (cfiCond145) V7 load(1, XDATA, add(CFA_XSP16, literal(-7)))
          CFI (cfiCond145) R7 load(1, XDATA, add(CFA_XSP16, literal(-6)))
          CFI (cfiCond145) ?RET_LOW load(1, XDATA, add(CFA_XSP16, literal(-5)))
          CFI (cfiCond145) ?RET_HIGH load(1, XDATA, add(CFA_XSP16, literal(-4)))
          CFI (cfiCond145) ?BRET_EXT load(1, XDATA, add(CFA_XSP16, literal(-3)))
          CFI (cfiCond145) DPL0 load(1, XDATA, add(CFA_XSP16, literal(-2)))
          CFI (cfiCond145) DPH0 load(1, XDATA, add(CFA_XSP16, literal(-1)))
          CFI (cfiCond145) CFA_SP SP+-4
          CFI (cfiCond145) CFA_XSP16 add(XSP16, 35)
          CFI Block cfiPicker146 Using cfiCommon1
          CFI (cfiPicker146) NoFunction
          CFI (cfiPicker146) Picker
        INC       DPTR
        MOVX      A,@DPTR
        MOV       R0,A
        CLR       A
        XCH       A,R0
        MOV       R1,A
        MOV       A,R2
        ADD       A,R0
        RET
          CFI EndBlock cfiCond141
          CFI EndBlock cfiCond142
          CFI EndBlock cfiCond143
          CFI EndBlock cfiCond144
          CFI EndBlock cfiCond145
          CFI EndBlock cfiPicker146

        RSEG BANKED_CODE:HUGECODE:NOROOT(0)
?Subroutine10:
          CFI Block cfiCond147 Using cfiCommon0
          CFI Function MT_ZdoEndDevBindRequest
          CFI Conditional ??CrossCallReturnLabel_11
          CFI R6 load(1, XDATA, add(CFA_XSP16, literal(-15)))
          CFI VB load(1, XDATA, add(CFA_XSP16, literal(-14)))
          CFI V0 load(1, XDATA, add(CFA_XSP16, literal(-13)))
          CFI V1 load(1, XDATA, add(CFA_XSP16, literal(-12)))
          CFI V2 load(1, XDATA, add(CFA_XSP16, literal(-11)))
          CFI V3 load(1, XDATA, add(CFA_XSP16, literal(-10)))
          CFI V4 load(1, XDATA, add(CFA_XSP16, literal(-9)))
          CFI V5 load(1, XDATA, add(CFA_XSP16, literal(-8)))
          CFI V6 load(1, XDATA, add(CFA_XSP16, literal(-7)))
          CFI R7 load(1, XDATA, add(CFA_XSP16, literal(-6)))
          CFI ?RET_LOW load(1, XDATA, add(CFA_XSP16, literal(-5)))
          CFI ?RET_HIGH load(1, XDATA, add(CFA_XSP16, literal(-4)))
          CFI ?BRET_EXT load(1, XDATA, add(CFA_XSP16, literal(-3)))
          CFI DPL0 load(1, XDATA, add(CFA_XSP16, literal(-2)))
          CFI DPH0 load(1, XDATA, add(CFA_XSP16, literal(-1)))
          CFI CFA_SP SP+-2
          CFI CFA_XSP16 add(XSP16, 85)
          CFI Block cfiCond148 Using cfiCommon0
          CFI (cfiCond148) Function MT_ZdoEndDevBindRequest
          CFI (cfiCond148) Conditional ??CrossCallReturnLabel_12
          CFI (cfiCond148) R6 load(1, XDATA, add(CFA_XSP16, literal(-15)))
          CFI (cfiCond148) VB load(1, XDATA, add(CFA_XSP16, literal(-14)))
          CFI (cfiCond148) V0 load(1, XDATA, add(CFA_XSP16, literal(-13)))
          CFI (cfiCond148) V1 load(1, XDATA, add(CFA_XSP16, literal(-12)))
          CFI (cfiCond148) V2 load(1, XDATA, add(CFA_XSP16, literal(-11)))
          CFI (cfiCond148) V3 load(1, XDATA, add(CFA_XSP16, literal(-10)))
          CFI (cfiCond148) V4 load(1, XDATA, add(CFA_XSP16, literal(-9)))
          CFI (cfiCond148) V5 load(1, XDATA, add(CFA_XSP16, literal(-8)))
          CFI (cfiCond148) V6 load(1, XDATA, add(CFA_XSP16, literal(-7)))
          CFI (cfiCond148) R7 load(1, XDATA, add(CFA_XSP16, literal(-6)))
          CFI (cfiCond148) ?RET_LOW load(1, XDATA, add(CFA_XSP16, literal(-5)))
          CFI (cfiCond148) ?RET_HIGH load(1, XDATA, add(CFA_XSP16, literal(-4)))
          CFI (cfiCond148) ?BRET_EXT load(1, XDATA, add(CFA_XSP16, literal(-3)))
          CFI (cfiCond148) DPL0 load(1, XDATA, add(CFA_XSP16, literal(-2)))
          CFI (cfiCond148) DPH0 load(1, XDATA, add(CFA_XSP16, literal(-1)))
          CFI (cfiCond148) CFA_SP SP+-2
          CFI (cfiCond148) CFA_XSP16 add(XSP16, 85)
          CFI Block cfiPicker149 Using cfiCommon1
          CFI (cfiPicker149) NoFunction
          CFI (cfiPicker149) Picker
        MOV       DPL,R6
        MOV       DPH,R7
        LCALL     ?Subroutine48 & 0xFFFF
??CrossCallReturnLabel_90:
        MOV       A,R0
        LCALL     ?Subroutine55 & 0xFFFF
??CrossCallReturnLabel_103:
        RET
          CFI EndBlock cfiCond147
          CFI EndBlock cfiCond148
          CFI EndBlock cfiPicker149

        RSEG BANKED_CODE:HUGECODE:NOROOT(0)
?Subroutine55:
          CFI Block cfiCond150 Using cfiCommon0
          CFI Function MT_ZdoMatchDescRequest
          CFI Conditional ??CrossCallReturnLabel_104, ??CrossCallReturnLabel_76
          CFI R6 load(1, XDATA, add(CFA_XSP16, literal(-14)))
          CFI VB load(1, XDATA, add(CFA_XSP16, literal(-13)))
          CFI V0 load(1, XDATA, add(CFA_XSP16, literal(-12)))
          CFI V1 load(1, XDATA, add(CFA_XSP16, literal(-11)))
          CFI V2 load(1, XDATA, add(CFA_XSP16, literal(-10)))
          CFI V3 load(1, XDATA, add(CFA_XSP16, literal(-9)))
          CFI V4 load(1, XDATA, add(CFA_XSP16, literal(-8)))
          CFI V5 load(1, XDATA, add(CFA_XSP16, literal(-7)))
          CFI R7 load(1, XDATA, add(CFA_XSP16, literal(-6)))
          CFI ?RET_LOW load(1, XDATA, add(CFA_XSP16, literal(-5)))
          CFI ?RET_HIGH load(1, XDATA, add(CFA_XSP16, literal(-4)))
          CFI ?BRET_EXT load(1, XDATA, add(CFA_XSP16, literal(-3)))
          CFI DPL0 load(1, XDATA, add(CFA_XSP16, literal(-2)))
          CFI DPH0 load(1, XDATA, add(CFA_XSP16, literal(-1)))
          CFI CFA_SP SP+-4
          CFI CFA_XSP16 add(XSP16, 88)
          CFI Block cfiCond151 Using cfiCommon0
          CFI (cfiCond151) Function MT_ZdoMatchDescRequest
          CFI (cfiCond151) Conditional ??CrossCallReturnLabel_104, ??CrossCallReturnLabel_77
          CFI (cfiCond151) R6 load(1, XDATA, add(CFA_XSP16, literal(-14)))
          CFI (cfiCond151) VB load(1, XDATA, add(CFA_XSP16, literal(-13)))
          CFI (cfiCond151) V0 load(1, XDATA, add(CFA_XSP16, literal(-12)))
          CFI (cfiCond151) V1 load(1, XDATA, add(CFA_XSP16, literal(-11)))
          CFI (cfiCond151) V2 load(1, XDATA, add(CFA_XSP16, literal(-10)))
          CFI (cfiCond151) V3 load(1, XDATA, add(CFA_XSP16, literal(-9)))
          CFI (cfiCond151) V4 load(1, XDATA, add(CFA_XSP16, literal(-8)))
          CFI (cfiCond151) V5 load(1, XDATA, add(CFA_XSP16, literal(-7)))
          CFI (cfiCond151) R7 load(1, XDATA, add(CFA_XSP16, literal(-6)))
          CFI (cfiCond151) ?RET_LOW load(1, XDATA, add(CFA_XSP16, literal(-5)))
          CFI (cfiCond151) ?RET_HIGH load(1, XDATA, add(CFA_XSP16, literal(-4)))
          CFI (cfiCond151) ?BRET_EXT load(1, XDATA, add(CFA_XSP16, literal(-3)))
          CFI (cfiCond151) DPL0 load(1, XDATA, add(CFA_XSP16, literal(-2)))
          CFI (cfiCond151) DPH0 load(1, XDATA, add(CFA_XSP16, literal(-1)))
          CFI (cfiCond151) CFA_SP SP+-4
          CFI (cfiCond151) CFA_XSP16 add(XSP16, 88)
          CFI Block cfiCond152 Using cfiCommon0
          CFI (cfiCond152) Function MT_ZdoEndDevBindRequest
          CFI (cfiCond152) Conditional ??CrossCallReturnLabel_103, ??CrossCallReturnLabel_11
          CFI (cfiCond152) R6 load(1, XDATA, add(CFA_XSP16, literal(-15)))
          CFI (cfiCond152) VB load(1, XDATA, add(CFA_XSP16, literal(-14)))
          CFI (cfiCond152) V0 load(1, XDATA, add(CFA_XSP16, literal(-13)))
          CFI (cfiCond152) V1 load(1, XDATA, add(CFA_XSP16, literal(-12)))
          CFI (cfiCond152) V2 load(1, XDATA, add(CFA_XSP16, literal(-11)))
          CFI (cfiCond152) V3 load(1, XDATA, add(CFA_XSP16, literal(-10)))
          CFI (cfiCond152) V4 load(1, XDATA, add(CFA_XSP16, literal(-9)))
          CFI (cfiCond152) V5 load(1, XDATA, add(CFA_XSP16, literal(-8)))
          CFI (cfiCond152) V6 load(1, XDATA, add(CFA_XSP16, literal(-7)))
          CFI (cfiCond152) R7 load(1, XDATA, add(CFA_XSP16, literal(-6)))
          CFI (cfiCond152) ?RET_LOW load(1, XDATA, add(CFA_XSP16, literal(-5)))
          CFI (cfiCond152) ?RET_HIGH load(1, XDATA, add(CFA_XSP16, literal(-4)))
          CFI (cfiCond152) ?BRET_EXT load(1, XDATA, add(CFA_XSP16, literal(-3)))
          CFI (cfiCond152) DPL0 load(1, XDATA, add(CFA_XSP16, literal(-2)))
          CFI (cfiCond152) DPH0 load(1, XDATA, add(CFA_XSP16, literal(-1)))
          CFI (cfiCond152) CFA_SP SP+-4
          CFI (cfiCond152) CFA_XSP16 add(XSP16, 85)
          CFI Block cfiCond153 Using cfiCommon0
          CFI (cfiCond153) Function MT_ZdoEndDevBindRequest
          CFI (cfiCond153) Conditional ??CrossCallReturnLabel_103, ??CrossCallReturnLabel_12
          CFI (cfiCond153) R6 load(1, XDATA, add(CFA_XSP16, literal(-15)))
          CFI (cfiCond153) VB load(1, XDATA, add(CFA_XSP16, literal(-14)))
          CFI (cfiCond153) V0 load(1, XDATA, add(CFA_XSP16, literal(-13)))
          CFI (cfiCond153) V1 load(1, XDATA, add(CFA_XSP16, literal(-12)))
          CFI (cfiCond153) V2 load(1, XDATA, add(CFA_XSP16, literal(-11)))
          CFI (cfiCond153) V3 load(1, XDATA, add(CFA_XSP16, literal(-10)))
          CFI (cfiCond153) V4 load(1, XDATA, add(CFA_XSP16, literal(-9)))
          CFI (cfiCond153) V5 load(1, XDATA, add(CFA_XSP16, literal(-8)))
          CFI (cfiCond153) V6 load(1, XDATA, add(CFA_XSP16, literal(-7)))
          CFI (cfiCond153) R7 load(1, XDATA, add(CFA_XSP16, literal(-6)))
          CFI (cfiCond153) ?RET_LOW load(1, XDATA, add(CFA_XSP16, literal(-5)))
          CFI (cfiCond153) ?RET_HIGH load(1, XDATA, add(CFA_XSP16, literal(-4)))
          CFI (cfiCond153) ?BRET_EXT load(1, XDATA, add(CFA_XSP16, literal(-3)))
          CFI (cfiCond153) DPL0 load(1, XDATA, add(CFA_XSP16, literal(-2)))
          CFI (cfiCond153) DPH0 load(1, XDATA, add(CFA_XSP16, literal(-1)))
          CFI (cfiCond153) CFA_SP SP+-4
          CFI (cfiCond153) CFA_XSP16 add(XSP16, 85)
          CFI Block cfiPicker154 Using cfiCommon1
          CFI (cfiPicker154) NoFunction
          CFI (cfiPicker154) Picker
        ADD       A,0xE0 /* A   */
        MOV       ?V0,A
        CLR       A
        RLC       A
        MOV       ?V1,A
        RET
          CFI EndBlock cfiCond150
          CFI EndBlock cfiCond151
          CFI EndBlock cfiCond152
          CFI EndBlock cfiCond153
          CFI EndBlock cfiPicker154

        RSEG BANKED_CODE:HUGECODE:NOROOT(0)
?Subroutine48:
          CFI Block cfiCond155 Using cfiCommon0
          CFI Function MT_ZdoMatchDescRequest
          CFI Conditional ??CrossCallReturnLabel_89
          CFI R6 load(1, XDATA, add(CFA_XSP16, literal(-14)))
          CFI VB load(1, XDATA, add(CFA_XSP16, literal(-13)))
          CFI V0 load(1, XDATA, add(CFA_XSP16, literal(-12)))
          CFI V1 load(1, XDATA, add(CFA_XSP16, literal(-11)))
          CFI V2 load(1, XDATA, add(CFA_XSP16, literal(-10)))
          CFI V3 load(1, XDATA, add(CFA_XSP16, literal(-9)))
          CFI V4 load(1, XDATA, add(CFA_XSP16, literal(-8)))
          CFI V5 load(1, XDATA, add(CFA_XSP16, literal(-7)))
          CFI R7 load(1, XDATA, add(CFA_XSP16, literal(-6)))
          CFI ?RET_LOW load(1, XDATA, add(CFA_XSP16, literal(-5)))
          CFI ?RET_HIGH load(1, XDATA, add(CFA_XSP16, literal(-4)))
          CFI ?BRET_EXT load(1, XDATA, add(CFA_XSP16, literal(-3)))
          CFI DPL0 load(1, XDATA, add(CFA_XSP16, literal(-2)))
          CFI DPH0 load(1, XDATA, add(CFA_XSP16, literal(-1)))
          CFI CFA_SP SP+-2
          CFI CFA_XSP16 add(XSP16, 88)
          CFI Block cfiCond156 Using cfiCommon0
          CFI (cfiCond156) Function MT_ZdoEndDevBindRequest
          CFI (cfiCond156) Conditional ??CrossCallReturnLabel_90, ??CrossCallReturnLabel_11
          CFI (cfiCond156) R6 load(1, XDATA, add(CFA_XSP16, literal(-15)))
          CFI (cfiCond156) VB load(1, XDATA, add(CFA_XSP16, literal(-14)))
          CFI (cfiCond156) V0 load(1, XDATA, add(CFA_XSP16, literal(-13)))
          CFI (cfiCond156) V1 load(1, XDATA, add(CFA_XSP16, literal(-12)))
          CFI (cfiCond156) V2 load(1, XDATA, add(CFA_XSP16, literal(-11)))
          CFI (cfiCond156) V3 load(1, XDATA, add(CFA_XSP16, literal(-10)))
          CFI (cfiCond156) V4 load(1, XDATA, add(CFA_XSP16, literal(-9)))
          CFI (cfiCond156) V5 load(1, XDATA, add(CFA_XSP16, literal(-8)))
          CFI (cfiCond156) V6 load(1, XDATA, add(CFA_XSP16, literal(-7)))
          CFI (cfiCond156) R7 load(1, XDATA, add(CFA_XSP16, literal(-6)))
          CFI (cfiCond156) ?RET_LOW load(1, XDATA, add(CFA_XSP16, literal(-5)))
          CFI (cfiCond156) ?RET_HIGH load(1, XDATA, add(CFA_XSP16, literal(-4)))
          CFI (cfiCond156) ?BRET_EXT load(1, XDATA, add(CFA_XSP16, literal(-3)))
          CFI (cfiCond156) DPL0 load(1, XDATA, add(CFA_XSP16, literal(-2)))
          CFI (cfiCond156) DPH0 load(1, XDATA, add(CFA_XSP16, literal(-1)))
          CFI (cfiCond156) CFA_SP SP+-4
          CFI (cfiCond156) CFA_XSP16 add(XSP16, 85)
          CFI Block cfiCond157 Using cfiCommon0
          CFI (cfiCond157) Function MT_ZdoEndDevBindRequest
          CFI (cfiCond157) Conditional ??CrossCallReturnLabel_90, ??CrossCallReturnLabel_12
          CFI (cfiCond157) R6 load(1, XDATA, add(CFA_XSP16, literal(-15)))
          CFI (cfiCond157) VB load(1, XDATA, add(CFA_XSP16, literal(-14)))
          CFI (cfiCond157) V0 load(1, XDATA, add(CFA_XSP16, literal(-13)))
          CFI (cfiCond157) V1 load(1, XDATA, add(CFA_XSP16, literal(-12)))
          CFI (cfiCond157) V2 load(1, XDATA, add(CFA_XSP16, literal(-11)))
          CFI (cfiCond157) V3 load(1, XDATA, add(CFA_XSP16, literal(-10)))
          CFI (cfiCond157) V4 load(1, XDATA, add(CFA_XSP16, literal(-9)))
          CFI (cfiCond157) V5 load(1, XDATA, add(CFA_XSP16, literal(-8)))
          CFI (cfiCond157) V6 load(1, XDATA, add(CFA_XSP16, literal(-7)))
          CFI (cfiCond157) R7 load(1, XDATA, add(CFA_XSP16, literal(-6)))
          CFI (cfiCond157) ?RET_LOW load(1, XDATA, add(CFA_XSP16, literal(-5)))
          CFI (cfiCond157) ?RET_HIGH load(1, XDATA, add(CFA_XSP16, literal(-4)))
          CFI (cfiCond157) ?BRET_EXT load(1, XDATA, add(CFA_XSP16, literal(-3)))
          CFI (cfiCond157) DPL0 load(1, XDATA, add(CFA_XSP16, literal(-2)))
          CFI (cfiCond157) DPH0 load(1, XDATA, add(CFA_XSP16, literal(-1)))
          CFI (cfiCond157) CFA_SP SP+-4
          CFI (cfiCond157) CFA_XSP16 add(XSP16, 85)
          CFI Block cfiPicker158 Using cfiCommon1
          CFI (cfiPicker158) NoFunction
          CFI (cfiPicker158) Picker
        MOVX      A,@DPTR
        MOV       ?V0,A
        INC       DPTR
        MOVX      A,@DPTR
        MOV       ?V5,A
        MOV       A,?V0
        MOV       ?V4,A
        RET
          CFI EndBlock cfiCond155
          CFI EndBlock cfiCond156
          CFI EndBlock cfiCond157
          CFI EndBlock cfiPicker158
//  917 
//  918 /***************************************************************************************************
//  919  * @fn      MT_ZdoBindRequest
//  920  *
//  921  * @brief   Handle a Bind request.
//  922  *
//  923  * @param   pBuf  - MT message data
//  924  *
//  925  * @return  void
//  926  ***************************************************************************************************/

        RSEG BANKED_CODE:HUGECODE:NOROOT(0)
//  927 void MT_ZdoBindRequest(uint8 *pBuf)
MT_ZdoBindRequest:
          CFI Block cfiBlock159 Using cfiCommon0
          CFI Function MT_ZdoBindRequest
        CODE
//  928 {
        FUNCALL MT_ZdoBindRequest, sAddrExtCpy
        LOCFRAME ISTACK, 0, STACK
        LOCFRAME PSTACK, 0, STACK
        LOCFRAME XSTACK, 35, STACK
        LOCFRAME IOVERLAY, 0, STATIC
        LOCFRAME DOVERLAY, 0, STATIC
        ARGFRAME ISTACK, 0, STACK
        ARGFRAME PSTACK, 0, STACK
        ARGFRAME XSTACK, 35, STACK
        ARGFRAME IOVERLAY, 0, STATIC
        ARGFRAME DOVERLAY, 0, STATIC
        FUNCALL MT_ZdoBindRequest, ZDP_BindUnbindReq
        LOCFRAME ISTACK, 0, STACK
        LOCFRAME PSTACK, 0, STACK
        LOCFRAME XSTACK, 43, STACK
        LOCFRAME IOVERLAY, 0, STATIC
        LOCFRAME DOVERLAY, 0, STATIC
        ARGFRAME ISTACK, 0, STACK
        ARGFRAME PSTACK, 0, STACK
        ARGFRAME XSTACK, 43, STACK
        ARGFRAME IOVERLAY, 0, STATIC
        ARGFRAME DOVERLAY, 0, STATIC
        FUNCALL MT_ZdoBindRequest, MT_BuildAndSendZToolResponse
        LOCFRAME ISTACK, 0, STACK
        LOCFRAME PSTACK, 0, STACK
        LOCFRAME XSTACK, 35, STACK
        LOCFRAME IOVERLAY, 0, STATIC
        LOCFRAME DOVERLAY, 0, STATIC
        ARGFRAME ISTACK, 0, STACK
        ARGFRAME PSTACK, 0, STACK
        ARGFRAME XSTACK, 35, STACK
        ARGFRAME IOVERLAY, 0, STATIC
        ARGFRAME DOVERLAY, 0, STATIC
        REQUIRE ?V0
        REQUIRE ?V1
        REQUIRE ?V2
        REQUIRE ?V3
        REQUIRE ?V4
        REQUIRE ?V6
        REQUIRE ?V7
        MOV       A,#-0x10
        LCALL     ?BANKED_ENTER_XDATA
          CFI DPH0 load(1, XDATA, add(CFA_XSP16, literal(-1)))
          CFI DPL0 load(1, XDATA, add(CFA_XSP16, literal(-2)))
          CFI ?BRET_EXT load(1, XDATA, add(CFA_XSP16, literal(-3)))
          CFI ?RET_HIGH load(1, XDATA, add(CFA_XSP16, literal(-4)))
          CFI ?RET_LOW load(1, XDATA, add(CFA_XSP16, literal(-5)))
          CFI R7 load(1, XDATA, add(CFA_XSP16, literal(-6)))
          CFI V7 load(1, XDATA, add(CFA_XSP16, literal(-7)))
          CFI V6 load(1, XDATA, add(CFA_XSP16, literal(-8)))
          CFI V5 load(1, XDATA, add(CFA_XSP16, literal(-9)))
          CFI V4 load(1, XDATA, add(CFA_XSP16, literal(-10)))
          CFI V3 load(1, XDATA, add(CFA_XSP16, literal(-11)))
          CFI V2 load(1, XDATA, add(CFA_XSP16, literal(-12)))
          CFI V1 load(1, XDATA, add(CFA_XSP16, literal(-13)))
          CFI V0 load(1, XDATA, add(CFA_XSP16, literal(-14)))
          CFI VB load(1, XDATA, add(CFA_XSP16, literal(-15)))
          CFI R6 load(1, XDATA, add(CFA_XSP16, literal(-16)))
          CFI CFA_SP SP+0
          CFI CFA_XSP16 add(XSP16, 16)
        ; Saved register size: 16
        ; Auto size: 19
        MOV       A,#-0x13
        LCALL     ?ALLOC_XSTACK8
          CFI CFA_XSP16 add(XSP16, 35)
        LCALL     ?Subroutine26 & 0xFFFF
//  929   uint8 cmdId;
//  930   uint8 retValue;
//  931   zAddrType_t destAddr, devAddr;
//  932   uint8 *pSrcAddr, *ptr;
//  933   uint8 srcEPInt, dstEPInt;
//  934   uint16 clusterID;
//  935 
//  936   /* parse header */
//  937   cmdId = pBuf[MT_RPC_POS_CMD1];
//  938   pBuf += MT_RPC_FRAME_HDR_SZ;
??CrossCallReturnLabel_38:
        JNC       ??MT_ZdoBindRequest_0
        INC       ?V1
//  939 
//  940   /* Dev address */
//  941   destAddr.addrMode = Addr16Bit;
??MT_ZdoBindRequest_0:
        MOV       A,#0x12
        LCALL     ?XSTACK_DISP0_8
        LCALL     ?Subroutine24 & 0xFFFF
//  942   destAddr.addr.shortAddr = BUILD_UINT16( pBuf[0], pBuf[1] );
??CrossCallReturnLabel_36:
        LCALL     ?XSTACK_DISP0_8
        LCALL     ?Subroutine7 & 0xFFFF
//  943   pBuf += 2;
//  944 
//  945   /* SrcAddress */
//  946   pSrcAddr = pBuf;
//  947   pBuf += Z_EXTADDR_LEN;
//  948 
//  949   /* SrcEPInt */
//  950   srcEPInt = *pBuf++;
//  951 
//  952   /* ClusterID */
//  953   clusterID = BUILD_UINT16( pBuf[0], pBuf[1]);
//  954   pBuf += 2;
//  955 
//  956   /* Destination Address mode */
//  957   devAddr.addrMode = *pBuf++;
??CrossCallReturnLabel_7:
        LCALL     ?XSTACK_DISP0_8
        MOV       A,R0
        MOVX      @DPTR,A
        MOV       A,?V0
        ADD       A,#0x3
        MOV       ?V0,A
        JNC       ??MT_ZdoBindRequest_1
        INC       ?V1
//  958 
//  959   /* Destination Address */
//  960   if ( devAddr.addrMode == Addr64Bit )
??MT_ZdoBindRequest_1:
        MOV       A,#0x3
        XRL       A,R0
        JNZ       ??MT_ZdoBindRequest_2
//  961   {
//  962     ptr = pBuf;
//  963     osal_cpyExtAddr( devAddr.addr.extAddr, ptr );
        ; Setup parameters for call to function sAddrExtCpy
        MOV       R4,?V0
        MOV       R5,?V1
        MOV       A,#0x1
        LCALL     ?XSTACK_DISP101_8
        LCALL     `??sAddrExtCpy::?relay`; Banked call to: sAddrExtCpy
        SJMP      ??MT_ZdoBindRequest_3
//  964   }
//  965   else
//  966   {
//  967     devAddr.addr.shortAddr = BUILD_UINT16( pBuf[0], pBuf[1] );
??MT_ZdoBindRequest_2:
        LCALL     ?Subroutine13 & 0xFFFF
//  968   }
??CrossCallReturnLabel_135:
        LCALL     ?XSTACK_DISP0_8
        MOV       A,R0
        MOVX      @DPTR,A
        INC       DPTR
        MOV       A,R1
        MOVX      @DPTR,A
//  969   /* The short address occupies LSB two bytes */
//  970   pBuf += Z_EXTADDR_LEN;
//  971 
//  972   /* DstEPInt */
//  973   dstEPInt = *pBuf;
//  974 
//  975   retValue = (uint8)ZDP_BindReq( &destAddr, pSrcAddr, srcEPInt, clusterID, &devAddr, dstEPInt, 0);
??MT_ZdoBindRequest_3:
        ; Setup parameters for call to function ZDP_BindUnbindReq
        MOV       ?V4,#0x0
        MOV       R0,#?V4
        LCALL     ?PUSH_XSTACK_I_ONE
          CFI CFA_XSP16 add(XSP16, 36)
        MOV       DPL,?V0
        MOV       DPH,?V1
        INC       DPTR
        INC       DPTR
        INC       DPTR
        INC       DPTR
        INC       DPTR
        INC       DPTR
        INC       DPTR
        INC       DPTR
        MOVX      A,@DPTR
        MOV       ?V0,A
        MOV       R0,#?V0
        LCALL     ?PUSH_XSTACK_I_ONE
          CFI CFA_XSP16 add(XSP16, 37)
        MOV       A,#0x3
        LCALL     ?XSTACK_DISP100_8
        MOV       ?V0,R0
        MOV       ?V1,R1
        MOV       R0,#?V0
        LCALL     ?PUSH_XSTACK_I_TWO
          CFI CFA_XSP16 add(XSP16, 39)
        MOV       ?V0,R6
        MOV       ?V1,R7
        MOV       R0,#?V0
        LCALL     ?PUSH_XSTACK_I_TWO
          CFI CFA_XSP16 add(XSP16, 41)
        MOV       R0,#?V6
        LCALL     ?PUSH_XSTACK_I_TWO
          CFI CFA_XSP16 add(XSP16, 43)
        MOV       R1,?V2
        MOV       A,#0x12
        LCALL     ?XSTACK_DISP102_8
        MOV       R2,#0x21
          CFI EndBlock cfiBlock159
        REQUIRE ?Subroutine4
        ; // Fall through to label ?Subroutine4
//  976 
//  977   MT_BuildAndSendZToolResponse(((uint8)MT_RPC_CMD_SRSP | (uint8)MT_RPC_SYS_ZDO), cmdId, 1, &retValue);
//  978 }

        RSEG BANKED_CODE:HUGECODE:NOROOT(0)
?Subroutine4:
          CFI Block cfiBlock160 Using cfiCommon0
          CFI NoFunction
          CFI CFA_SP SP+0
          CFI CFA_XSP16 add(XSP16, 43)
          CFI VB load(1, XDATA, add(CFA_XSP16, literal(-15)))
          CFI DPL0 load(1, XDATA, add(CFA_XSP16, literal(-2)))
          CFI DPH0 load(1, XDATA, add(CFA_XSP16, literal(-1)))
          CFI R6 load(1, XDATA, add(CFA_XSP16, literal(-16)))
          CFI R7 load(1, XDATA, add(CFA_XSP16, literal(-6)))
          CFI V0 load(1, XDATA, add(CFA_XSP16, literal(-14)))
          CFI V1 load(1, XDATA, add(CFA_XSP16, literal(-13)))
          CFI V2 load(1, XDATA, add(CFA_XSP16, literal(-12)))
          CFI V3 load(1, XDATA, add(CFA_XSP16, literal(-11)))
          CFI V4 load(1, XDATA, add(CFA_XSP16, literal(-10)))
          CFI V5 load(1, XDATA, add(CFA_XSP16, literal(-9)))
          CFI V6 load(1, XDATA, add(CFA_XSP16, literal(-8)))
          CFI V7 load(1, XDATA, add(CFA_XSP16, literal(-7)))
          CFI ?BRET_EXT load(1, XDATA, add(CFA_XSP16, literal(-3)))
          CFI ?RET_HIGH load(1, XDATA, add(CFA_XSP16, literal(-4)))
          CFI ?RET_LOW load(1, XDATA, add(CFA_XSP16, literal(-5)))
        MOV       R3,#0x0
        LCALL     `??ZDP_BindUnbindReq::?relay`; Banked call to: ZDP_BindUnbindReq
        MOV       A,#0x8
        LCALL     ?DEALLOC_XSTACK8
          CFI CFA_XSP16 add(XSP16, 35)
        LCALL     ?Subroutine36 & 0xFFFF
??CrossCallReturnLabel_65:
        LCALL     `??MT_BuildAndSendZToolResponse::?relay`; Banked call to: MT_BuildAndSendZToolResponse
        MOV       A,#0x13
        LCALL     ?DEALLOC_XSTACK8
          CFI CFA_XSP16 add(XSP16, 16)
        MOV       R7,#0x8
        LJMP      ?BANKED_LEAVE_XDATA
          CFI EndBlock cfiBlock160

        RSEG BANKED_CODE:HUGECODE:NOROOT(0)
?Subroutine36:
          CFI Block cfiCond161 Using cfiCommon0
          CFI Function MT_ZdoUserDescSet
          CFI Conditional ??CrossCallReturnLabel_64
          CFI R6 load(1, XDATA, add(CFA_XSP16, literal(-12)))
          CFI VB load(1, XDATA, add(CFA_XSP16, literal(-11)))
          CFI V0 load(1, XDATA, add(CFA_XSP16, literal(-10)))
          CFI V1 load(1, XDATA, add(CFA_XSP16, literal(-9)))
          CFI V2 load(1, XDATA, add(CFA_XSP16, literal(-8)))
          CFI V3 load(1, XDATA, add(CFA_XSP16, literal(-7)))
          CFI R7 load(1, XDATA, add(CFA_XSP16, literal(-6)))
          CFI ?RET_LOW load(1, XDATA, add(CFA_XSP16, literal(-5)))
          CFI ?RET_HIGH load(1, XDATA, add(CFA_XSP16, literal(-4)))
          CFI ?BRET_EXT load(1, XDATA, add(CFA_XSP16, literal(-3)))
          CFI DPL0 load(1, XDATA, add(CFA_XSP16, literal(-2)))
          CFI DPH0 load(1, XDATA, add(CFA_XSP16, literal(-1)))
          CFI CFA_SP SP+-2
          CFI CFA_XSP16 add(XSP16, 39)
          CFI Block cfiCond162 Using cfiCommon0
          CFI (cfiCond162) Function MT_ZdoBindRequest
          CFI (cfiCond162) Conditional ??CrossCallReturnLabel_65
          CFI (cfiCond162) R6 load(1, XDATA, add(CFA_XSP16, literal(-16)))
          CFI (cfiCond162) VB load(1, XDATA, add(CFA_XSP16, literal(-15)))
          CFI (cfiCond162) V0 load(1, XDATA, add(CFA_XSP16, literal(-14)))
          CFI (cfiCond162) V1 load(1, XDATA, add(CFA_XSP16, literal(-13)))
          CFI (cfiCond162) V2 load(1, XDATA, add(CFA_XSP16, literal(-12)))
          CFI (cfiCond162) V3 load(1, XDATA, add(CFA_XSP16, literal(-11)))
          CFI (cfiCond162) V4 load(1, XDATA, add(CFA_XSP16, literal(-10)))
          CFI (cfiCond162) V5 load(1, XDATA, add(CFA_XSP16, literal(-9)))
          CFI (cfiCond162) V6 load(1, XDATA, add(CFA_XSP16, literal(-8)))
          CFI (cfiCond162) V7 load(1, XDATA, add(CFA_XSP16, literal(-7)))
          CFI (cfiCond162) R7 load(1, XDATA, add(CFA_XSP16, literal(-6)))
          CFI (cfiCond162) ?RET_LOW load(1, XDATA, add(CFA_XSP16, literal(-5)))
          CFI (cfiCond162) ?RET_HIGH load(1, XDATA, add(CFA_XSP16, literal(-4)))
          CFI (cfiCond162) ?BRET_EXT load(1, XDATA, add(CFA_XSP16, literal(-3)))
          CFI (cfiCond162) DPL0 load(1, XDATA, add(CFA_XSP16, literal(-2)))
          CFI (cfiCond162) DPH0 load(1, XDATA, add(CFA_XSP16, literal(-1)))
          CFI (cfiCond162) CFA_SP SP+-2
          CFI (cfiCond162) CFA_XSP16 add(XSP16, 35)
          CFI Block cfiCond163 Using cfiCommon0
          CFI (cfiCond163) Function MT_ZdoUnbindRequest
          CFI (cfiCond163) Conditional ??CrossCallReturnLabel_65
          CFI (cfiCond163) R6 load(1, XDATA, add(CFA_XSP16, literal(-16)))
          CFI (cfiCond163) VB load(1, XDATA, add(CFA_XSP16, literal(-15)))
          CFI (cfiCond163) V0 load(1, XDATA, add(CFA_XSP16, literal(-14)))
          CFI (cfiCond163) V1 load(1, XDATA, add(CFA_XSP16, literal(-13)))
          CFI (cfiCond163) V2 load(1, XDATA, add(CFA_XSP16, literal(-12)))
          CFI (cfiCond163) V3 load(1, XDATA, add(CFA_XSP16, literal(-11)))
          CFI (cfiCond163) V4 load(1, XDATA, add(CFA_XSP16, literal(-10)))
          CFI (cfiCond163) V5 load(1, XDATA, add(CFA_XSP16, literal(-9)))
          CFI (cfiCond163) V6 load(1, XDATA, add(CFA_XSP16, literal(-8)))
          CFI (cfiCond163) V7 load(1, XDATA, add(CFA_XSP16, literal(-7)))
          CFI (cfiCond163) R7 load(1, XDATA, add(CFA_XSP16, literal(-6)))
          CFI (cfiCond163) ?RET_LOW load(1, XDATA, add(CFA_XSP16, literal(-5)))
          CFI (cfiCond163) ?RET_HIGH load(1, XDATA, add(CFA_XSP16, literal(-4)))
          CFI (cfiCond163) ?BRET_EXT load(1, XDATA, add(CFA_XSP16, literal(-3)))
          CFI (cfiCond163) DPL0 load(1, XDATA, add(CFA_XSP16, literal(-2)))
          CFI (cfiCond163) DPH0 load(1, XDATA, add(CFA_XSP16, literal(-1)))
          CFI (cfiCond163) CFA_SP SP+-2
          CFI (cfiCond163) CFA_XSP16 add(XSP16, 35)
          CFI Block cfiPicker164 Using cfiCommon1
          CFI (cfiPicker164) NoFunction
          CFI (cfiPicker164) Picker
        MOV       A,R1
        MOV       DPL,?XSP + 0
        MOV       DPH,?XSP + 1
        MOVX      @DPTR,A
        ; Setup parameters for call to function MT_BuildAndSendZToolResponse
        ; Setup parameters for call to function MT_BuildAndSendZToolResponse
        ; Setup parameters for call to function MT_BuildAndSendZToolResponse
        MOV       R4,?XSP + 0
        MOV       R5,?XSP + 1
        MOV       R3,#0x1
        MOV       R2,?V3
        MOV       R1,#0x65
        RET
          CFI EndBlock cfiCond161
          CFI EndBlock cfiCond162
          CFI EndBlock cfiCond163
          CFI EndBlock cfiPicker164

        RSEG BANKED_CODE:HUGECODE:NOROOT(0)
?Subroutine13:
          CFI Block cfiCond165 Using cfiCommon0
          CFI Function MT_ZdoBindRequest
          CFI Conditional ??CrossCallReturnLabel_135
          CFI R6 load(1, XDATA, add(CFA_XSP16, literal(-16)))
          CFI VB load(1, XDATA, add(CFA_XSP16, literal(-15)))
          CFI V0 load(1, XDATA, add(CFA_XSP16, literal(-14)))
          CFI V1 load(1, XDATA, add(CFA_XSP16, literal(-13)))
          CFI V2 load(1, XDATA, add(CFA_XSP16, literal(-12)))
          CFI V3 load(1, XDATA, add(CFA_XSP16, literal(-11)))
          CFI V4 load(1, XDATA, add(CFA_XSP16, literal(-10)))
          CFI V5 load(1, XDATA, add(CFA_XSP16, literal(-9)))
          CFI V6 load(1, XDATA, add(CFA_XSP16, literal(-8)))
          CFI V7 load(1, XDATA, add(CFA_XSP16, literal(-7)))
          CFI R7 load(1, XDATA, add(CFA_XSP16, literal(-6)))
          CFI ?RET_LOW load(1, XDATA, add(CFA_XSP16, literal(-5)))
          CFI ?RET_HIGH load(1, XDATA, add(CFA_XSP16, literal(-4)))
          CFI ?BRET_EXT load(1, XDATA, add(CFA_XSP16, literal(-3)))
          CFI DPL0 load(1, XDATA, add(CFA_XSP16, literal(-2)))
          CFI DPH0 load(1, XDATA, add(CFA_XSP16, literal(-1)))
          CFI CFA_SP SP+-2
          CFI CFA_XSP16 add(XSP16, 35)
          CFI Block cfiCond166 Using cfiCommon0
          CFI (cfiCond166) Function MT_ZdoUnbindRequest
          CFI (cfiCond166) Conditional ??CrossCallReturnLabel_136
          CFI (cfiCond166) R6 load(1, XDATA, add(CFA_XSP16, literal(-16)))
          CFI (cfiCond166) VB load(1, XDATA, add(CFA_XSP16, literal(-15)))
          CFI (cfiCond166) V0 load(1, XDATA, add(CFA_XSP16, literal(-14)))
          CFI (cfiCond166) V1 load(1, XDATA, add(CFA_XSP16, literal(-13)))
          CFI (cfiCond166) V2 load(1, XDATA, add(CFA_XSP16, literal(-12)))
          CFI (cfiCond166) V3 load(1, XDATA, add(CFA_XSP16, literal(-11)))
          CFI (cfiCond166) V4 load(1, XDATA, add(CFA_XSP16, literal(-10)))
          CFI (cfiCond166) V5 load(1, XDATA, add(CFA_XSP16, literal(-9)))
          CFI (cfiCond166) V6 load(1, XDATA, add(CFA_XSP16, literal(-8)))
          CFI (cfiCond166) V7 load(1, XDATA, add(CFA_XSP16, literal(-7)))
          CFI (cfiCond166) R7 load(1, XDATA, add(CFA_XSP16, literal(-6)))
          CFI (cfiCond166) ?RET_LOW load(1, XDATA, add(CFA_XSP16, literal(-5)))
          CFI (cfiCond166) ?RET_HIGH load(1, XDATA, add(CFA_XSP16, literal(-4)))
          CFI (cfiCond166) ?BRET_EXT load(1, XDATA, add(CFA_XSP16, literal(-3)))
          CFI (cfiCond166) DPL0 load(1, XDATA, add(CFA_XSP16, literal(-2)))
          CFI (cfiCond166) DPH0 load(1, XDATA, add(CFA_XSP16, literal(-1)))
          CFI (cfiCond166) CFA_SP SP+-2
          CFI (cfiCond166) CFA_XSP16 add(XSP16, 35)
          CFI Block cfiPicker167 Using cfiCommon1
          CFI (cfiPicker167) NoFunction
          CFI (cfiPicker167) Picker
        MOV       DPL,?V0
        MOV       DPH,?V1
          CFI EndBlock cfiCond165
          CFI EndBlock cfiCond166
          CFI EndBlock cfiPicker167
        REQUIRE ??Subroutine67_0
        ; // Fall through to label ??Subroutine67_0

        RSEG BANKED_CODE:HUGECODE:NOROOT(0)
??Subroutine67_0:
          CFI Block cfiCond168 Using cfiCommon0
          CFI Function MT_ZdoEndDevBindRequest
          CFI Conditional ??CrossCallReturnLabel_134
          CFI R6 load(1, XDATA, add(CFA_XSP16, literal(-15)))
          CFI VB load(1, XDATA, add(CFA_XSP16, literal(-14)))
          CFI V0 load(1, XDATA, add(CFA_XSP16, literal(-13)))
          CFI V1 load(1, XDATA, add(CFA_XSP16, literal(-12)))
          CFI V2 load(1, XDATA, add(CFA_XSP16, literal(-11)))
          CFI V3 load(1, XDATA, add(CFA_XSP16, literal(-10)))
          CFI V4 load(1, XDATA, add(CFA_XSP16, literal(-9)))
          CFI V5 load(1, XDATA, add(CFA_XSP16, literal(-8)))
          CFI V6 load(1, XDATA, add(CFA_XSP16, literal(-7)))
          CFI R7 load(1, XDATA, add(CFA_XSP16, literal(-6)))
          CFI ?RET_LOW load(1, XDATA, add(CFA_XSP16, literal(-5)))
          CFI ?RET_HIGH load(1, XDATA, add(CFA_XSP16, literal(-4)))
          CFI ?BRET_EXT load(1, XDATA, add(CFA_XSP16, literal(-3)))
          CFI DPL0 load(1, XDATA, add(CFA_XSP16, literal(-2)))
          CFI DPH0 load(1, XDATA, add(CFA_XSP16, literal(-1)))
          CFI CFA_SP SP+-2
          CFI CFA_XSP16 add(XSP16, 85)
          CFI Block cfiCond169 Using cfiCommon0
          CFI (cfiCond169) Function MT_ZdoBindRequest
          CFI (cfiCond169) Conditional ??CrossCallReturnLabel_135
          CFI (cfiCond169) R6 load(1, XDATA, add(CFA_XSP16, literal(-16)))
          CFI (cfiCond169) VB load(1, XDATA, add(CFA_XSP16, literal(-15)))
          CFI (cfiCond169) V0 load(1, XDATA, add(CFA_XSP16, literal(-14)))
          CFI (cfiCond169) V1 load(1, XDATA, add(CFA_XSP16, literal(-13)))
          CFI (cfiCond169) V2 load(1, XDATA, add(CFA_XSP16, literal(-12)))
          CFI (cfiCond169) V3 load(1, XDATA, add(CFA_XSP16, literal(-11)))
          CFI (cfiCond169) V4 load(1, XDATA, add(CFA_XSP16, literal(-10)))
          CFI (cfiCond169) V5 load(1, XDATA, add(CFA_XSP16, literal(-9)))
          CFI (cfiCond169) V6 load(1, XDATA, add(CFA_XSP16, literal(-8)))
          CFI (cfiCond169) V7 load(1, XDATA, add(CFA_XSP16, literal(-7)))
          CFI (cfiCond169) R7 load(1, XDATA, add(CFA_XSP16, literal(-6)))
          CFI (cfiCond169) ?RET_LOW load(1, XDATA, add(CFA_XSP16, literal(-5)))
          CFI (cfiCond169) ?RET_HIGH load(1, XDATA, add(CFA_XSP16, literal(-4)))
          CFI (cfiCond169) ?BRET_EXT load(1, XDATA, add(CFA_XSP16, literal(-3)))
          CFI (cfiCond169) DPL0 load(1, XDATA, add(CFA_XSP16, literal(-2)))
          CFI (cfiCond169) DPH0 load(1, XDATA, add(CFA_XSP16, literal(-1)))
          CFI (cfiCond169) CFA_SP SP+-2
          CFI (cfiCond169) CFA_XSP16 add(XSP16, 35)
          CFI Block cfiCond170 Using cfiCommon0
          CFI (cfiCond170) Function MT_ZdoUnbindRequest
          CFI (cfiCond170) Conditional ??CrossCallReturnLabel_136
          CFI (cfiCond170) R6 load(1, XDATA, add(CFA_XSP16, literal(-16)))
          CFI (cfiCond170) VB load(1, XDATA, add(CFA_XSP16, literal(-15)))
          CFI (cfiCond170) V0 load(1, XDATA, add(CFA_XSP16, literal(-14)))
          CFI (cfiCond170) V1 load(1, XDATA, add(CFA_XSP16, literal(-13)))
          CFI (cfiCond170) V2 load(1, XDATA, add(CFA_XSP16, literal(-12)))
          CFI (cfiCond170) V3 load(1, XDATA, add(CFA_XSP16, literal(-11)))
          CFI (cfiCond170) V4 load(1, XDATA, add(CFA_XSP16, literal(-10)))
          CFI (cfiCond170) V5 load(1, XDATA, add(CFA_XSP16, literal(-9)))
          CFI (cfiCond170) V6 load(1, XDATA, add(CFA_XSP16, literal(-8)))
          CFI (cfiCond170) V7 load(1, XDATA, add(CFA_XSP16, literal(-7)))
          CFI (cfiCond170) R7 load(1, XDATA, add(CFA_XSP16, literal(-6)))
          CFI (cfiCond170) ?RET_LOW load(1, XDATA, add(CFA_XSP16, literal(-5)))
          CFI (cfiCond170) ?RET_HIGH load(1, XDATA, add(CFA_XSP16, literal(-4)))
          CFI (cfiCond170) ?BRET_EXT load(1, XDATA, add(CFA_XSP16, literal(-3)))
          CFI (cfiCond170) DPL0 load(1, XDATA, add(CFA_XSP16, literal(-2)))
          CFI (cfiCond170) DPH0 load(1, XDATA, add(CFA_XSP16, literal(-1)))
          CFI (cfiCond170) CFA_SP SP+-2
          CFI (cfiCond170) CFA_XSP16 add(XSP16, 35)
          CFI Block cfiPicker171 Using cfiCommon1
          CFI (cfiPicker171) NoFunction
          CFI (cfiPicker171) Picker
        MOVX      A,@DPTR
        MOV       R2,A
        INC       DPTR
        MOVX      A,@DPTR
        MOV       R1,A
        MOV       A,R2
        MOV       R0,A
        MOV       A,#0x1
        RET
          CFI EndBlock cfiCond168
          CFI EndBlock cfiCond169
          CFI EndBlock cfiCond170
          CFI EndBlock cfiPicker171
//  979 
//  980 /***************************************************************************************************
//  981  * @fn      MT_ZdoUnbindRequest
//  982  *
//  983  * @brief   Handle a Unbind request.
//  984  *
//  985  * @param   pBuf  - MT message data
//  986  *
//  987  * @return  void
//  988  ***************************************************************************************************/

        RSEG BANKED_CODE:HUGECODE:NOROOT(0)
//  989 void MT_ZdoUnbindRequest(uint8 *pBuf)
MT_ZdoUnbindRequest:
          CFI Block cfiBlock172 Using cfiCommon0
          CFI Function MT_ZdoUnbindRequest
        CODE
//  990 {
        FUNCALL MT_ZdoUnbindRequest, sAddrExtCpy
        LOCFRAME ISTACK, 0, STACK
        LOCFRAME PSTACK, 0, STACK
        LOCFRAME XSTACK, 35, STACK
        LOCFRAME IOVERLAY, 0, STATIC
        LOCFRAME DOVERLAY, 0, STATIC
        ARGFRAME ISTACK, 0, STACK
        ARGFRAME PSTACK, 0, STACK
        ARGFRAME XSTACK, 35, STACK
        ARGFRAME IOVERLAY, 0, STATIC
        ARGFRAME DOVERLAY, 0, STATIC
        FUNCALL MT_ZdoUnbindRequest, ZDP_BindUnbindReq
        LOCFRAME ISTACK, 0, STACK
        LOCFRAME PSTACK, 0, STACK
        LOCFRAME XSTACK, 43, STACK
        LOCFRAME IOVERLAY, 0, STATIC
        LOCFRAME DOVERLAY, 0, STATIC
        ARGFRAME ISTACK, 0, STACK
        ARGFRAME PSTACK, 0, STACK
        ARGFRAME XSTACK, 43, STACK
        ARGFRAME IOVERLAY, 0, STATIC
        ARGFRAME DOVERLAY, 0, STATIC
        FUNCALL MT_ZdoUnbindRequest, MT_BuildAndSendZToolResponse
        LOCFRAME ISTACK, 0, STACK
        LOCFRAME PSTACK, 0, STACK
        LOCFRAME XSTACK, 35, STACK
        LOCFRAME IOVERLAY, 0, STATIC
        LOCFRAME DOVERLAY, 0, STATIC
        ARGFRAME ISTACK, 0, STACK
        ARGFRAME PSTACK, 0, STACK
        ARGFRAME XSTACK, 35, STACK
        ARGFRAME IOVERLAY, 0, STATIC
        ARGFRAME DOVERLAY, 0, STATIC
        REQUIRE ?V0
        REQUIRE ?V1
        REQUIRE ?V2
        REQUIRE ?V3
        REQUIRE ?V4
        REQUIRE ?V6
        REQUIRE ?V7
        MOV       A,#-0x10
        LCALL     ?BANKED_ENTER_XDATA
          CFI DPH0 load(1, XDATA, add(CFA_XSP16, literal(-1)))
          CFI DPL0 load(1, XDATA, add(CFA_XSP16, literal(-2)))
          CFI ?BRET_EXT load(1, XDATA, add(CFA_XSP16, literal(-3)))
          CFI ?RET_HIGH load(1, XDATA, add(CFA_XSP16, literal(-4)))
          CFI ?RET_LOW load(1, XDATA, add(CFA_XSP16, literal(-5)))
          CFI R7 load(1, XDATA, add(CFA_XSP16, literal(-6)))
          CFI V7 load(1, XDATA, add(CFA_XSP16, literal(-7)))
          CFI V6 load(1, XDATA, add(CFA_XSP16, literal(-8)))
          CFI V5 load(1, XDATA, add(CFA_XSP16, literal(-9)))
          CFI V4 load(1, XDATA, add(CFA_XSP16, literal(-10)))
          CFI V3 load(1, XDATA, add(CFA_XSP16, literal(-11)))
          CFI V2 load(1, XDATA, add(CFA_XSP16, literal(-12)))
          CFI V1 load(1, XDATA, add(CFA_XSP16, literal(-13)))
          CFI V0 load(1, XDATA, add(CFA_XSP16, literal(-14)))
          CFI VB load(1, XDATA, add(CFA_XSP16, literal(-15)))
          CFI R6 load(1, XDATA, add(CFA_XSP16, literal(-16)))
          CFI CFA_SP SP+0
          CFI CFA_XSP16 add(XSP16, 16)
        ; Saved register size: 16
        ; Auto size: 19
        MOV       A,#-0x13
        LCALL     ?ALLOC_XSTACK8
          CFI CFA_XSP16 add(XSP16, 35)
        LCALL     ?Subroutine26 & 0xFFFF
//  991   uint8 cmdId;
//  992   uint8 retValue;
//  993   zAddrType_t destAddr, devAddr;
//  994   uint8 *pSrcAddr, *ptr;
//  995   uint8 srcEPInt, dstEPInt;
//  996   uint16 clusterID;
//  997 
//  998   /* parse header */
//  999   cmdId = pBuf[MT_RPC_POS_CMD1];
// 1000   pBuf += MT_RPC_FRAME_HDR_SZ;
??CrossCallReturnLabel_39:
        JNC       ??MT_ZdoUnbindRequest_0
        INC       ?V1
// 1001 
// 1002   /* dev address */
// 1003   destAddr.addrMode = Addr16Bit;
??MT_ZdoUnbindRequest_0:
        MOV       A,#0x12
        LCALL     ?XSTACK_DISP0_8
        LCALL     ?Subroutine24 & 0xFFFF
// 1004   destAddr.addr.shortAddr = BUILD_UINT16( pBuf[0], pBuf[1] );
??CrossCallReturnLabel_37:
        LCALL     ?XSTACK_DISP0_8
        LCALL     ?Subroutine7 & 0xFFFF
// 1005   pBuf += 2;
// 1006 
// 1007   /* SrcAddress */
// 1008   pSrcAddr = pBuf;
// 1009   pBuf += Z_EXTADDR_LEN;
// 1010 
// 1011   /* SrcEPInt */
// 1012   srcEPInt = *pBuf++;
// 1013 
// 1014   /* ClusterID */
// 1015   clusterID = BUILD_UINT16( pBuf[0], pBuf[1]);
// 1016   pBuf += 2;
// 1017 
// 1018   /* Destination Address mode */
// 1019   devAddr.addrMode = *pBuf++;
??CrossCallReturnLabel_8:
        LCALL     ?XSTACK_DISP0_8
        MOV       A,R0
        MOVX      @DPTR,A
        MOV       A,?V0
        ADD       A,#0x3
        MOV       ?V0,A
        JNC       ??MT_ZdoUnbindRequest_1
        INC       ?V1
// 1020 
// 1021   /* Destination Address */
// 1022   if ( devAddr.addrMode == Addr64Bit )
??MT_ZdoUnbindRequest_1:
        MOV       A,#0x3
        XRL       A,R0
        JNZ       ??MT_ZdoUnbindRequest_2
// 1023   {
// 1024     ptr = pBuf;
// 1025     osal_cpyExtAddr( devAddr.addr.extAddr, ptr );
        ; Setup parameters for call to function sAddrExtCpy
        MOV       R4,?V0
        MOV       R5,?V1
        MOV       A,#0x1
        LCALL     ?XSTACK_DISP101_8
        LCALL     `??sAddrExtCpy::?relay`; Banked call to: sAddrExtCpy
        SJMP      ??MT_ZdoUnbindRequest_3
// 1026   }
// 1027   else
// 1028   {
// 1029     devAddr.addr.shortAddr = BUILD_UINT16( pBuf[0], pBuf[1] );
??MT_ZdoUnbindRequest_2:
        LCALL     ?Subroutine13 & 0xFFFF
// 1030   }
??CrossCallReturnLabel_136:
        LCALL     ?XSTACK_DISP0_8
        MOV       A,R0
        MOVX      @DPTR,A
        INC       DPTR
        MOV       A,R1
        MOVX      @DPTR,A
// 1031   /* The short address occupies LSB two bytes */
// 1032   pBuf += Z_EXTADDR_LEN;
// 1033 
// 1034   /* dstEPInt */
// 1035   dstEPInt = *pBuf;
// 1036 
// 1037   retValue = (uint8)ZDP_UnbindReq( &destAddr, pSrcAddr, srcEPInt, clusterID, &devAddr, dstEPInt, 0);
??MT_ZdoUnbindRequest_3:
        ; Setup parameters for call to function ZDP_BindUnbindReq
        MOV       ?V4,#0x0
        MOV       R0,#?V4
        LCALL     ?PUSH_XSTACK_I_ONE
          CFI CFA_XSP16 add(XSP16, 36)
        MOV       DPL,?V0
        MOV       DPH,?V1
        INC       DPTR
        INC       DPTR
        INC       DPTR
        INC       DPTR
        INC       DPTR
        INC       DPTR
        INC       DPTR
        INC       DPTR
        MOVX      A,@DPTR
        MOV       ?V0,A
        MOV       R0,#?V0
        LCALL     ?PUSH_XSTACK_I_ONE
          CFI CFA_XSP16 add(XSP16, 37)
        MOV       A,#0x3
        LCALL     ?XSTACK_DISP100_8
        MOV       ?V0,R0
        MOV       ?V1,R1
        MOV       R0,#?V0
        LCALL     ?PUSH_XSTACK_I_TWO
          CFI CFA_XSP16 add(XSP16, 39)
        MOV       ?V0,R6
        MOV       ?V1,R7
        MOV       R0,#?V0
        LCALL     ?PUSH_XSTACK_I_TWO
          CFI CFA_XSP16 add(XSP16, 41)
        MOV       R0,#?V6
        LCALL     ?PUSH_XSTACK_I_TWO
          CFI CFA_XSP16 add(XSP16, 43)
        MOV       R1,?V2
        MOV       A,#0x12
        LCALL     ?XSTACK_DISP102_8
        MOV       R2,#0x22
        LJMP      ?Subroutine4 & 0xFFFF
// 1038 
// 1039   MT_BuildAndSendZToolResponse(((uint8)MT_RPC_CMD_SRSP | (uint8)MT_RPC_SYS_ZDO), cmdId, 1, &retValue);
// 1040 }
          CFI EndBlock cfiBlock172

        RSEG BANKED_CODE:HUGECODE:NOROOT(0)
?Subroutine26:
          CFI Block cfiCond173 Using cfiCommon0
          CFI Function MT_ZdoBindRequest
          CFI Conditional ??CrossCallReturnLabel_38
          CFI R6 load(1, XDATA, add(CFA_XSP16, literal(-16)))
          CFI VB load(1, XDATA, add(CFA_XSP16, literal(-15)))
          CFI V0 load(1, XDATA, add(CFA_XSP16, literal(-14)))
          CFI V1 load(1, XDATA, add(CFA_XSP16, literal(-13)))
          CFI V2 load(1, XDATA, add(CFA_XSP16, literal(-12)))
          CFI V3 load(1, XDATA, add(CFA_XSP16, literal(-11)))
          CFI V4 load(1, XDATA, add(CFA_XSP16, literal(-10)))
          CFI V5 load(1, XDATA, add(CFA_XSP16, literal(-9)))
          CFI V6 load(1, XDATA, add(CFA_XSP16, literal(-8)))
          CFI V7 load(1, XDATA, add(CFA_XSP16, literal(-7)))
          CFI R7 load(1, XDATA, add(CFA_XSP16, literal(-6)))
          CFI ?RET_LOW load(1, XDATA, add(CFA_XSP16, literal(-5)))
          CFI ?RET_HIGH load(1, XDATA, add(CFA_XSP16, literal(-4)))
          CFI ?BRET_EXT load(1, XDATA, add(CFA_XSP16, literal(-3)))
          CFI DPL0 load(1, XDATA, add(CFA_XSP16, literal(-2)))
          CFI DPH0 load(1, XDATA, add(CFA_XSP16, literal(-1)))
          CFI CFA_SP SP+-2
          CFI CFA_XSP16 add(XSP16, 35)
          CFI Block cfiCond174 Using cfiCommon0
          CFI (cfiCond174) Function MT_ZdoUnbindRequest
          CFI (cfiCond174) Conditional ??CrossCallReturnLabel_39
          CFI (cfiCond174) R6 load(1, XDATA, add(CFA_XSP16, literal(-16)))
          CFI (cfiCond174) VB load(1, XDATA, add(CFA_XSP16, literal(-15)))
          CFI (cfiCond174) V0 load(1, XDATA, add(CFA_XSP16, literal(-14)))
          CFI (cfiCond174) V1 load(1, XDATA, add(CFA_XSP16, literal(-13)))
          CFI (cfiCond174) V2 load(1, XDATA, add(CFA_XSP16, literal(-12)))
          CFI (cfiCond174) V3 load(1, XDATA, add(CFA_XSP16, literal(-11)))
          CFI (cfiCond174) V4 load(1, XDATA, add(CFA_XSP16, literal(-10)))
          CFI (cfiCond174) V5 load(1, XDATA, add(CFA_XSP16, literal(-9)))
          CFI (cfiCond174) V6 load(1, XDATA, add(CFA_XSP16, literal(-8)))
          CFI (cfiCond174) V7 load(1, XDATA, add(CFA_XSP16, literal(-7)))
          CFI (cfiCond174) R7 load(1, XDATA, add(CFA_XSP16, literal(-6)))
          CFI (cfiCond174) ?RET_LOW load(1, XDATA, add(CFA_XSP16, literal(-5)))
          CFI (cfiCond174) ?RET_HIGH load(1, XDATA, add(CFA_XSP16, literal(-4)))
          CFI (cfiCond174) ?BRET_EXT load(1, XDATA, add(CFA_XSP16, literal(-3)))
          CFI (cfiCond174) DPL0 load(1, XDATA, add(CFA_XSP16, literal(-2)))
          CFI (cfiCond174) DPH0 load(1, XDATA, add(CFA_XSP16, literal(-1)))
          CFI (cfiCond174) CFA_SP SP+-2
          CFI (cfiCond174) CFA_XSP16 add(XSP16, 35)
          CFI Block cfiPicker175 Using cfiCommon1
          CFI (cfiPicker175) NoFunction
          CFI (cfiPicker175) Picker
        MOV       ?V1,R3
        MOV       DPL,R2
        MOV       DPH,R3
        INC       DPTR
        INC       DPTR
        MOVX      A,@DPTR
        MOV       ?V3,A
        MOV       A,R2
        ADD       A,#0x3
        MOV       ?V0,A
        RET
          CFI EndBlock cfiCond173
          CFI EndBlock cfiCond174
          CFI EndBlock cfiPicker175

        RSEG BANKED_CODE:HUGECODE:NOROOT(0)
?Subroutine24:
          CFI Block cfiCond176 Using cfiCommon0
          CFI Function MT_ZdoBindRequest
          CFI Conditional ??CrossCallReturnLabel_36
          CFI R6 load(1, XDATA, add(CFA_XSP16, literal(-16)))
          CFI VB load(1, XDATA, add(CFA_XSP16, literal(-15)))
          CFI V0 load(1, XDATA, add(CFA_XSP16, literal(-14)))
          CFI V1 load(1, XDATA, add(CFA_XSP16, literal(-13)))
          CFI V2 load(1, XDATA, add(CFA_XSP16, literal(-12)))
          CFI V3 load(1, XDATA, add(CFA_XSP16, literal(-11)))
          CFI V4 load(1, XDATA, add(CFA_XSP16, literal(-10)))
          CFI V5 load(1, XDATA, add(CFA_XSP16, literal(-9)))
          CFI V6 load(1, XDATA, add(CFA_XSP16, literal(-8)))
          CFI V7 load(1, XDATA, add(CFA_XSP16, literal(-7)))
          CFI R7 load(1, XDATA, add(CFA_XSP16, literal(-6)))
          CFI ?RET_LOW load(1, XDATA, add(CFA_XSP16, literal(-5)))
          CFI ?RET_HIGH load(1, XDATA, add(CFA_XSP16, literal(-4)))
          CFI ?BRET_EXT load(1, XDATA, add(CFA_XSP16, literal(-3)))
          CFI DPL0 load(1, XDATA, add(CFA_XSP16, literal(-2)))
          CFI DPH0 load(1, XDATA, add(CFA_XSP16, literal(-1)))
          CFI CFA_SP SP+-2
          CFI CFA_XSP16 add(XSP16, 35)
          CFI Block cfiCond177 Using cfiCommon0
          CFI (cfiCond177) Function MT_ZdoUnbindRequest
          CFI (cfiCond177) Conditional ??CrossCallReturnLabel_37
          CFI (cfiCond177) R6 load(1, XDATA, add(CFA_XSP16, literal(-16)))
          CFI (cfiCond177) VB load(1, XDATA, add(CFA_XSP16, literal(-15)))
          CFI (cfiCond177) V0 load(1, XDATA, add(CFA_XSP16, literal(-14)))
          CFI (cfiCond177) V1 load(1, XDATA, add(CFA_XSP16, literal(-13)))
          CFI (cfiCond177) V2 load(1, XDATA, add(CFA_XSP16, literal(-12)))
          CFI (cfiCond177) V3 load(1, XDATA, add(CFA_XSP16, literal(-11)))
          CFI (cfiCond177) V4 load(1, XDATA, add(CFA_XSP16, literal(-10)))
          CFI (cfiCond177) V5 load(1, XDATA, add(CFA_XSP16, literal(-9)))
          CFI (cfiCond177) V6 load(1, XDATA, add(CFA_XSP16, literal(-8)))
          CFI (cfiCond177) V7 load(1, XDATA, add(CFA_XSP16, literal(-7)))
          CFI (cfiCond177) R7 load(1, XDATA, add(CFA_XSP16, literal(-6)))
          CFI (cfiCond177) ?RET_LOW load(1, XDATA, add(CFA_XSP16, literal(-5)))
          CFI (cfiCond177) ?RET_HIGH load(1, XDATA, add(CFA_XSP16, literal(-4)))
          CFI (cfiCond177) ?BRET_EXT load(1, XDATA, add(CFA_XSP16, literal(-3)))
          CFI (cfiCond177) DPL0 load(1, XDATA, add(CFA_XSP16, literal(-2)))
          CFI (cfiCond177) DPH0 load(1, XDATA, add(CFA_XSP16, literal(-1)))
          CFI (cfiCond177) CFA_SP SP+-2
          CFI (cfiCond177) CFA_XSP16 add(XSP16, 35)
          CFI Block cfiPicker178 Using cfiCommon1
          CFI (cfiPicker178) NoFunction
          CFI (cfiPicker178) Picker
        MOV       A,#0x2
        MOVX      @DPTR,A
        MOV       DPL,?V0
        MOV       DPH,?V1
        MOVX      A,@DPTR
        MOV       R2,A
        INC       DPTR
        MOVX      A,@DPTR
        MOV       R1,A
        MOV       A,R2
        MOV       R0,A
        MOV       A,#0xa
        RET
          CFI EndBlock cfiCond176
          CFI EndBlock cfiCond177
          CFI EndBlock cfiPicker178

        RSEG BANKED_CODE:HUGECODE:NOROOT(0)
?Subroutine7:
          CFI Block cfiCond179 Using cfiCommon0
          CFI Function MT_ZdoBindRequest
          CFI Conditional ??CrossCallReturnLabel_7
          CFI R6 load(1, XDATA, add(CFA_XSP16, literal(-16)))
          CFI VB load(1, XDATA, add(CFA_XSP16, literal(-15)))
          CFI V0 load(1, XDATA, add(CFA_XSP16, literal(-14)))
          CFI V1 load(1, XDATA, add(CFA_XSP16, literal(-13)))
          CFI V2 load(1, XDATA, add(CFA_XSP16, literal(-12)))
          CFI V3 load(1, XDATA, add(CFA_XSP16, literal(-11)))
          CFI V4 load(1, XDATA, add(CFA_XSP16, literal(-10)))
          CFI V5 load(1, XDATA, add(CFA_XSP16, literal(-9)))
          CFI V6 load(1, XDATA, add(CFA_XSP16, literal(-8)))
          CFI V7 load(1, XDATA, add(CFA_XSP16, literal(-7)))
          CFI R7 load(1, XDATA, add(CFA_XSP16, literal(-6)))
          CFI ?RET_LOW load(1, XDATA, add(CFA_XSP16, literal(-5)))
          CFI ?RET_HIGH load(1, XDATA, add(CFA_XSP16, literal(-4)))
          CFI ?BRET_EXT load(1, XDATA, add(CFA_XSP16, literal(-3)))
          CFI DPL0 load(1, XDATA, add(CFA_XSP16, literal(-2)))
          CFI DPH0 load(1, XDATA, add(CFA_XSP16, literal(-1)))
          CFI CFA_SP SP+-2
          CFI CFA_XSP16 add(XSP16, 35)
          CFI Block cfiCond180 Using cfiCommon0
          CFI (cfiCond180) Function MT_ZdoUnbindRequest
          CFI (cfiCond180) Conditional ??CrossCallReturnLabel_8
          CFI (cfiCond180) R6 load(1, XDATA, add(CFA_XSP16, literal(-16)))
          CFI (cfiCond180) VB load(1, XDATA, add(CFA_XSP16, literal(-15)))
          CFI (cfiCond180) V0 load(1, XDATA, add(CFA_XSP16, literal(-14)))
          CFI (cfiCond180) V1 load(1, XDATA, add(CFA_XSP16, literal(-13)))
          CFI (cfiCond180) V2 load(1, XDATA, add(CFA_XSP16, literal(-12)))
          CFI (cfiCond180) V3 load(1, XDATA, add(CFA_XSP16, literal(-11)))
          CFI (cfiCond180) V4 load(1, XDATA, add(CFA_XSP16, literal(-10)))
          CFI (cfiCond180) V5 load(1, XDATA, add(CFA_XSP16, literal(-9)))
          CFI (cfiCond180) V6 load(1, XDATA, add(CFA_XSP16, literal(-8)))
          CFI (cfiCond180) V7 load(1, XDATA, add(CFA_XSP16, literal(-7)))
          CFI (cfiCond180) R7 load(1, XDATA, add(CFA_XSP16, literal(-6)))
          CFI (cfiCond180) ?RET_LOW load(1, XDATA, add(CFA_XSP16, literal(-5)))
          CFI (cfiCond180) ?RET_HIGH load(1, XDATA, add(CFA_XSP16, literal(-4)))
          CFI (cfiCond180) ?BRET_EXT load(1, XDATA, add(CFA_XSP16, literal(-3)))
          CFI (cfiCond180) DPL0 load(1, XDATA, add(CFA_XSP16, literal(-2)))
          CFI (cfiCond180) DPH0 load(1, XDATA, add(CFA_XSP16, literal(-1)))
          CFI (cfiCond180) CFA_SP SP+-2
          CFI (cfiCond180) CFA_XSP16 add(XSP16, 35)
          CFI Block cfiPicker181 Using cfiCommon1
          CFI (cfiPicker181) NoFunction
          CFI (cfiPicker181) Picker
        MOV       A,R0
        MOVX      @DPTR,A
        INC       DPTR
        MOV       A,R1
        MOVX      @DPTR,A
        MOV       A,?V0
        ADD       A,#0x2
        MOV       ?V6,A
        CLR       A
        ADDC      A,?V1
        MOV       ?V7,A
        MOV       A,?V6
        ADD       A,#0x8
        MOV       ?V0,A
        CLR       A
        ADDC      A,?V7
        MOV       DPL,?V0
        MOV       DPH,A
        MOVX      A,@DPTR
        MOV       ?V2,A
        INC       DPTR
        MOV       ?V0,DPL
        MOV       ?V1,DPH
        LCALL     ?Subroutine49 & 0xFFFF
??CrossCallReturnLabel_132:
        MOV       R6,A
        CLR       A
        ADDC      A,R1
        MOV       R7,A
        MOV       DPL,?V0
        MOV       DPH,?V1
        INC       DPTR
        INC       DPTR
        MOVX      A,@DPTR
        MOV       R0,A
        MOV       A,#0x9
        RET
          CFI EndBlock cfiCond179
          CFI EndBlock cfiCond180
          CFI EndBlock cfiPicker181
// 1041 
// 1042 #if defined (MT_SYS_KEY_MANAGEMENT)
// 1043 /***************************************************************************************************
// 1044  * @fn      MT_ZdoSetLinkKey
// 1045  *
// 1046  * @brief   Set an application or trust center link key.
// 1047  *
// 1048  * @param   pBuf  - MT message data
// 1049  *
// 1050  * @return  void
// 1051  ***************************************************************************************************/
// 1052 void MT_ZdoSetLinkKey(uint8 *pBuf)
// 1053 {
// 1054   uint8 cmdId;
// 1055   uint8 retValue;
// 1056   uint8 *pExtAddr;
// 1057   uint8 *pKey;
// 1058   uint16 shortAddr;
// 1059 
// 1060   /* parse header */
// 1061   cmdId = pBuf[MT_RPC_POS_CMD1];
// 1062   pBuf += MT_RPC_FRAME_HDR_SZ;
// 1063 
// 1064   /* ShortAddr */
// 1065   shortAddr = BUILD_UINT16( pBuf[0], pBuf[1] );
// 1066   pBuf += 2;
// 1067 
// 1068   /* Extended Addr */
// 1069   pExtAddr = pBuf;
// 1070   pBuf += Z_EXTADDR_LEN;
// 1071 
// 1072   /* Key data */
// 1073   pKey = pBuf;
// 1074 
// 1075   retValue = (uint8)ZDSecMgrAddLinkKey( shortAddr, pExtAddr, pKey);
// 1076 
// 1077   MT_BuildAndSendZToolResponse(((uint8)MT_RPC_CMD_SRSP | (uint8)MT_RPC_SYS_ZDO), cmdId, 1, &retValue);
// 1078 }
// 1079 
// 1080 /***************************************************************************************************
// 1081  * @fn      MT_ZdoRemoveLinkKey
// 1082  *
// 1083  * @brief   Remove an application or trust center link key.
// 1084  *
// 1085  * @param   pBuf  - MT message data
// 1086  *
// 1087  * @return  void
// 1088  ***************************************************************************************************/
// 1089 void MT_ZdoRemoveLinkKey(uint8 *pBuf)
// 1090 {
// 1091   uint8 cmdId;
// 1092   uint8 retValue;
// 1093   uint8 *pExtAddr;
// 1094 
// 1095   /* parse header */
// 1096   cmdId = pBuf[MT_RPC_POS_CMD1];
// 1097   pBuf += MT_RPC_FRAME_HDR_SZ;
// 1098 
// 1099   /* ShortAddr */
// 1100   pExtAddr = pBuf;
// 1101 
// 1102   retValue = ZDSecMgrDeviceRemoveByExtAddr( pExtAddr );
// 1103 
// 1104   MT_BuildAndSendZToolResponse(((uint8)MT_RPC_CMD_SRSP | (uint8)MT_RPC_SYS_ZDO), cmdId, 1, &retValue);
// 1105 }
// 1106 
// 1107 /***************************************************************************************************
// 1108  * @fn      MT_ZdoGetLinkKey
// 1109  *
// 1110  * @brief   Get the application link key.
// 1111  *
// 1112  * @param   pBuf  - MT message data
// 1113  *
// 1114  * @return  void
// 1115  ***************************************************************************************************/
// 1116 void MT_ZdoGetLinkKey(uint8 *pBuf)
// 1117 {
// 1118   uint8 cmdId;
// 1119   uint8 retValue;
// 1120   uint8 *pExtAddr;
// 1121   uint8 *retBuf = NULL;
// 1122   uint8 len;
// 1123   APSME_LinkKeyData_t *pApsLinkKey = NULL;
// 1124   uint16 apsLinkKeyNvId;
// 1125 
// 1126   // parse header
// 1127   cmdId = pBuf[MT_RPC_POS_CMD1];
// 1128   pBuf += MT_RPC_FRAME_HDR_SZ;
// 1129 
// 1130   // Extended Address
// 1131   pExtAddr = pBuf;
// 1132 
// 1133   // Fetch the key NV ID
// 1134   retValue = APSME_LinkKeyNVIdGet( pExtAddr, &apsLinkKeyNvId );
// 1135 
// 1136   if (retValue == ZSuccess)
// 1137   {
// 1138     if ((pApsLinkKey = (APSME_LinkKeyData_t *)osal_mem_alloc(sizeof(APSME_LinkKeyData_t))) != NULL)
// 1139     {
// 1140       // retrieve key from NV
// 1141       if (osal_nv_read( apsLinkKeyNvId, 0,
// 1142                        sizeof(APSME_LinkKeyData_t), pApsLinkKey) != SUCCESS)
// 1143       {
// 1144         retValue = ZNwkUnknownDevice;
// 1145       }
// 1146     }
// 1147     else
// 1148     {
// 1149       retValue = ZNwkUnknownDevice;
// 1150     }
// 1151   }
// 1152 
// 1153   // Construct the response message
// 1154   len = MT_ZDO_STATUS_LEN + Z_EXTADDR_LEN + SEC_KEY_LEN; // status + extAddr + key
// 1155   if ((retBuf = (uint8 *)osal_mem_alloc(len)) != NULL)
// 1156   {
// 1157     if (retValue == ZSuccess)
// 1158     {
// 1159       // Extended Address
// 1160       osal_memcpy( &(retBuf[1]), pExtAddr, Z_EXTADDR_LEN );
// 1161 
// 1162       // Key data
// 1163       osal_memcpy( &(retBuf[1 + Z_EXTADDR_LEN]), pApsLinkKey->key, SEC_KEY_LEN );
// 1164     }
// 1165     else
// 1166     {
// 1167       // Failed case - set the rest fields to all FF
// 1168       osal_memset( &(retBuf[1]), 0xFF, Z_EXTADDR_LEN + SEC_KEY_LEN );
// 1169     }
// 1170 
// 1171     retBuf[0] = retValue;  // Status
// 1172 
// 1173     MT_BuildAndSendZToolResponse(((uint8)MT_RPC_CMD_SRSP | (uint8)MT_RPC_SYS_ZDO), cmdId, len, retBuf);
// 1174 
// 1175     // clear retBuf because it contains key data and free allocated memory
// 1176     osal_memset(retBuf, 0x00, len);
// 1177 
// 1178     osal_mem_free(retBuf);
// 1179   }
// 1180 
// 1181   // clear copy of key in RAM
// 1182   if (pApsLinkKey != NULL)
// 1183   {
// 1184     osal_memset(pApsLinkKey, 0x00, sizeof(APSME_LinkKeyData_t));
// 1185 
// 1186     osal_mem_free(pApsLinkKey);
// 1187   }
// 1188 
// 1189   return;
// 1190 }
// 1191 #endif // MT_SYS_KEY_MANAGEMENT
// 1192 
// 1193 #if defined (MT_ZDO_MGMT)
// 1194 /***************************************************************************************************
// 1195  * @fn      MT_ZdoMgmtNwkDiscRequest
// 1196  *
// 1197  * @brief   Handle a Mgmt Nwk Discovery request.
// 1198  *
// 1199  * @param   pBuf  - MT message data
// 1200  *
// 1201  * @return  void
// 1202  ***************************************************************************************************/
// 1203 void MT_ZdoMgmtNwkDiscRequest(uint8 *pBuf)
// 1204 {
// 1205   uint8 cmdId;
// 1206   uint8 retValue;
// 1207   zAddrType_t destAddr;
// 1208   uint32 scanChannels;
// 1209   uint8 scanDuration, startIndex;
// 1210 
// 1211   /* parse header */
// 1212   cmdId = pBuf[MT_RPC_POS_CMD1];
// 1213   pBuf += MT_RPC_FRAME_HDR_SZ;
// 1214 
// 1215   /* Dev address */
// 1216   destAddr.addrMode = Addr16Bit;
// 1217   destAddr.addr.shortAddr = BUILD_UINT16( pBuf[0], pBuf[1] );
// 1218   pBuf += 2;
// 1219 
// 1220   /* Scan Channels */
// 1221   scanChannels = BUILD_UINT32( pBuf[0], pBuf[1], pBuf[2], pBuf[3] );
// 1222   pBuf += 4;
// 1223 
// 1224   /* Scan Duration */
// 1225   scanDuration = *pBuf++;
// 1226 
// 1227   /* Start Index */
// 1228   startIndex = *pBuf;
// 1229 
// 1230   retValue = (uint8)ZDP_MgmtNwkDiscReq( &destAddr, scanChannels, scanDuration, startIndex, 0);
// 1231 
// 1232   MT_BuildAndSendZToolResponse(((uint8)MT_RPC_CMD_SRSP | (uint8)MT_RPC_SYS_ZDO), cmdId, 1, &retValue);
// 1233 }
// 1234 
// 1235 /***************************************************************************************************
// 1236  * @fn      MT_ZdoMgmtLqiRequest
// 1237  *
// 1238  * @brief   Handle a Mgmt Lqi request.
// 1239  *
// 1240  * @param   pBuf  - MT message data
// 1241  *
// 1242  * @return  void
// 1243  ***************************************************************************************************/
// 1244 void MT_ZdoMgmtLqiRequest(uint8 *pBuf)
// 1245 {
// 1246   uint8 cmdId;
// 1247   uint8 retValue;
// 1248   zAddrType_t destAddr;
// 1249   uint8 startIndex;
// 1250 
// 1251   /* parse header */
// 1252   cmdId = pBuf[MT_RPC_POS_CMD1];
// 1253   pBuf += MT_RPC_FRAME_HDR_SZ;
// 1254 
// 1255   /* Dev address */
// 1256   destAddr.addrMode = Addr16Bit;
// 1257   destAddr.addr.shortAddr = BUILD_UINT16( pBuf[0], pBuf[1] );
// 1258   pBuf += 2;
// 1259 
// 1260   /* Start Index */
// 1261   startIndex = *pBuf;
// 1262 
// 1263   retValue = (uint8)ZDP_MgmtLqiReq( &destAddr, startIndex, 0);
// 1264 
// 1265   MT_BuildAndSendZToolResponse(((uint8)MT_RPC_CMD_SRSP | (uint8)MT_RPC_SYS_ZDO), cmdId, 1, &retValue);
// 1266 }
// 1267 
// 1268 /***************************************************************************************************
// 1269  * @fn      MT_ZdoMgmtRtgRequest
// 1270  *
// 1271  * @brief   Handle a Mgmt Rtg request.
// 1272  *
// 1273  * @param   pBuf  - MT message data
// 1274  *
// 1275  * @return  void
// 1276  ***************************************************************************************************/
// 1277 void MT_ZdoMgmtRtgRequest(uint8 *pBuf)
// 1278 {
// 1279   uint8 cmdId;
// 1280   uint8 retValue;
// 1281   zAddrType_t destAddr;
// 1282   uint8 startIndex;
// 1283 
// 1284   /* parse header */
// 1285   cmdId = pBuf[MT_RPC_POS_CMD1];
// 1286   pBuf += MT_RPC_FRAME_HDR_SZ;
// 1287 
// 1288   /* Dev Address */
// 1289   destAddr.addrMode = Addr16Bit;
// 1290   destAddr.addr.shortAddr = BUILD_UINT16( pBuf[0], pBuf[1]);
// 1291   pBuf += 2;
// 1292 
// 1293   /* Start Index */
// 1294   startIndex = *pBuf;
// 1295 
// 1296   retValue = (byte)ZDP_MgmtRtgReq( &destAddr, startIndex, 0);
// 1297 
// 1298   MT_BuildAndSendZToolResponse(((uint8)MT_RPC_CMD_SRSP | (uint8)MT_RPC_SYS_ZDO), cmdId, 1, &retValue);
// 1299 }
// 1300 
// 1301 /***************************************************************************************************
// 1302  * @fn      MT_ZdoMgmtBindRequest
// 1303  *
// 1304  * @brief   Handle a Mgmt Bind request.
// 1305  *
// 1306  * @param   pBuf  - MT message data
// 1307  *
// 1308  * @return  void
// 1309  ***************************************************************************************************/
// 1310 void MT_ZdoMgmtBindRequest(uint8 *pBuf)
// 1311 {
// 1312   uint8 cmdId;
// 1313   uint8 retValue;
// 1314   zAddrType_t destAddr;
// 1315   uint8 startIndex;
// 1316 
// 1317   /* parse header */
// 1318   cmdId = pBuf[MT_RPC_POS_CMD1];
// 1319   pBuf += MT_RPC_FRAME_HDR_SZ;
// 1320 
// 1321   /* Dev Address */
// 1322   destAddr.addrMode = Addr16Bit;
// 1323   destAddr.addr.shortAddr = BUILD_UINT16( pBuf[0], pBuf[1] );
// 1324   pBuf += 2;
// 1325 
// 1326   /* Start Index */
// 1327   startIndex = *pBuf;
// 1328 
// 1329   retValue = (uint8)ZDP_MgmtBindReq( &destAddr, startIndex, 0);
// 1330 
// 1331   MT_BuildAndSendZToolResponse(((uint8)MT_RPC_CMD_SRSP | (uint8)MT_RPC_SYS_ZDO), cmdId, 1, &retValue);
// 1332 }
// 1333 
// 1334 /***************************************************************************************************
// 1335  * @fn      MT_ZdoMgmtLeaveRequest
// 1336  *
// 1337  * @brief   Handle a Mgmt Leave request.
// 1338  *
// 1339  * @param   pBuf  - MT message data
// 1340  *
// 1341  * @return  void
// 1342  ***************************************************************************************************/
// 1343 void MT_ZdoMgmtLeaveRequest(uint8 *pBuf)
// 1344 {
// 1345   uint8 cmdId;
// 1346   uint8 retValue;
// 1347   zAddrType_t destAddr;
// 1348   uint8 *pIEEEAddr;
// 1349   uint8 removeChildren, rejoin;
// 1350 
// 1351   /* parse header */
// 1352   cmdId = pBuf[MT_RPC_POS_CMD1];
// 1353   pBuf += MT_RPC_FRAME_HDR_SZ;
// 1354 
// 1355   /* Destination Address */
// 1356   destAddr.addrMode = Addr16Bit;
// 1357   destAddr.addr.shortAddr = BUILD_UINT16( pBuf[0], pBuf[1] );
// 1358   pBuf += 2;
// 1359 
// 1360   /* IEEE address */
// 1361   pIEEEAddr = pBuf;
// 1362   pBuf += Z_EXTADDR_LEN;
// 1363 
// 1364   /* Remove Children */
// 1365   removeChildren = *pBuf++;
// 1366 
// 1367   /* Rejoin */
// 1368   rejoin = *pBuf;
// 1369 
// 1370   retValue = (byte)ZDP_MgmtLeaveReq( &destAddr, pIEEEAddr, removeChildren, rejoin, 0);
// 1371 
// 1372   MT_BuildAndSendZToolResponse(((uint8)MT_RPC_CMD_SRSP | (uint8)MT_RPC_SYS_ZDO), cmdId, 1, &retValue);
// 1373 }
// 1374 
// 1375 
// 1376 /***************************************************************************************************
// 1377  * @fn      MT_ZdoMgmtDirectJoinRequest
// 1378  *
// 1379  * @brief   Handle a Mgmt Direct Join request.
// 1380  *
// 1381  * @param   pBuf  - MT message data
// 1382  *
// 1383  * @return  void
// 1384  ***************************************************************************************************/
// 1385 void MT_ZdoMgmtDirectJoinRequest(uint8 *pBuf)
// 1386 {
// 1387   uint8 cmdId;
// 1388   uint8 retValue;
// 1389   zAddrType_t destAddr;
// 1390   uint8 *deviceAddr;
// 1391   uint8 capInfo;
// 1392 
// 1393   /* parse header */
// 1394   cmdId = pBuf[MT_RPC_POS_CMD1];
// 1395   pBuf += MT_RPC_FRAME_HDR_SZ;
// 1396 
// 1397   /* Destination Address */
// 1398   destAddr.addrMode = Addr16Bit;
// 1399   destAddr.addr.shortAddr = BUILD_UINT16( pBuf[0], pBuf[1] );
// 1400   pBuf += 2;
// 1401 
// 1402   /* Device Address */
// 1403   deviceAddr = pBuf;
// 1404   pBuf += Z_EXTADDR_LEN;
// 1405 
// 1406   /* Capability information */
// 1407   capInfo = *pBuf;
// 1408 
// 1409   retValue = (uint8)ZDP_MgmtDirectJoinReq( &destAddr, deviceAddr, capInfo, 0);
// 1410 
// 1411   MT_BuildAndSendZToolResponse(((uint8)MT_RPC_CMD_SRSP | (uint8)MT_RPC_SYS_ZDO), cmdId, 1, &retValue);
// 1412 }
// 1413 
// 1414 /***************************************************************************************************
// 1415  * @fn      MT_ZdoMgmtPermitJoinRequest
// 1416  *
// 1417  * @brief   Handle a Mgmt Permit Join request.
// 1418  *
// 1419  * @param   pBuf  - MT message data
// 1420  *
// 1421  * @return  void
// 1422  ***************************************************************************************************/
// 1423 void MT_ZdoMgmtPermitJoinRequest(uint8 *pBuf)
// 1424 {
// 1425   uint8 cmdId;
// 1426   uint8 retValue;
// 1427   zAddrType_t destAddr;
// 1428   uint8 duration, tcSignificance;
// 1429 
// 1430   /* parse header */
// 1431   cmdId = pBuf[MT_RPC_POS_CMD1];
// 1432   pBuf += MT_RPC_FRAME_HDR_SZ;
// 1433 
// 1434   /* Destination Address */
// 1435   destAddr.addrMode = Addr16Bit;
// 1436   destAddr.addr.shortAddr = BUILD_UINT16( pBuf[0], pBuf[1] );
// 1437   pBuf += 2;
// 1438 
// 1439   /* Duration */
// 1440   duration = *pBuf++;
// 1441 
// 1442   /* Trust center significance */
// 1443   tcSignificance = *pBuf;
// 1444 
// 1445   retValue = (byte)ZDP_MgmtPermitJoinReq( &destAddr, duration, tcSignificance, 0);
// 1446 
// 1447   MT_BuildAndSendZToolResponse(((uint8)MT_RPC_CMD_SRSP | (uint8)MT_RPC_SYS_ZDO), cmdId, 1, &retValue);
// 1448 }
// 1449 
// 1450 /***************************************************************************************************
// 1451  * @fn      MT_ZdoMgmtNwkUpdateRequest
// 1452  *
// 1453  * @brief   Handle a Mgmt Nwk Update request.
// 1454  *
// 1455  * @param   pBuf  - MT message data
// 1456  *
// 1457  * @return  void
// 1458  ***************************************************************************************************/
// 1459 void MT_ZdoMgmtNwkUpdateRequest(uint8 *pBuf)
// 1460 {
// 1461   uint8 cmdId;
// 1462   uint8 retValue;
// 1463   zAddrType_t destAddr;
// 1464   uint32 channelMask;
// 1465   uint8 scanDuration, scanCount;
// 1466   uint16 nwkManagerAddr;
// 1467 
// 1468     /* parse header */
// 1469   cmdId = pBuf[MT_RPC_POS_CMD1];
// 1470   pBuf += MT_RPC_FRAME_HDR_SZ;
// 1471 
// 1472   /* Destination address */
// 1473   destAddr.addr.shortAddr = BUILD_UINT16( pBuf[0], pBuf[1] );
// 1474   pBuf += 2;
// 1475 
// 1476   /* Destination address mode */
// 1477   destAddr.addrMode = *pBuf++;
// 1478 
// 1479   channelMask = BUILD_UINT32( pBuf[0], pBuf[1], pBuf[2], pBuf[3]);
// 1480   pBuf += 4;
// 1481 
// 1482   /* Scan duration */
// 1483   scanDuration = *pBuf++;
// 1484 
// 1485   /* Scan count */
// 1486   scanCount = *pBuf++;
// 1487 
// 1488   /* NWK manager address */
// 1489   nwkManagerAddr = BUILD_UINT16( pBuf[0], pBuf[1] );
// 1490 
// 1491   /* Send the Management Network Update request */
// 1492   retValue = (uint8)ZDP_MgmtNwkUpdateReq( &destAddr, channelMask, scanDuration,
// 1493                                           scanCount, _NIB.nwkUpdateId+1, nwkManagerAddr );
// 1494 
// 1495   /*
// 1496     Since we don't recevied our own broadcast messages, we should
// 1497     send a unicast copy of the message to ourself.
// 1498   */
// 1499   if ( destAddr.addrMode == AddrBroadcast )
// 1500   {
// 1501     destAddr.addrMode = Addr16Bit;
// 1502     destAddr.addr.shortAddr = _NIB.nwkDevAddress;
// 1503     retValue = (uint8) ZDP_MgmtNwkUpdateReq( &destAddr, channelMask, scanDuration,
// 1504                                              scanCount, _NIB.nwkUpdateId+1, nwkManagerAddr );
// 1505   }
// 1506 
// 1507   MT_BuildAndSendZToolResponse(((uint8)MT_RPC_CMD_SRSP | (uint8)MT_RPC_SYS_ZDO), cmdId, 1, &retValue);
// 1508 }
// 1509 #endif /* MT_ZDO_MGMT */
// 1510 
// 1511 /***************************************************************************************************
// 1512  * @fn      MT_ZdoStartupFromApp
// 1513  *
// 1514  * @brief   Handle a Startup from App request.
// 1515  *
// 1516  * @param   pBuf  - MT message data
// 1517  *
// 1518  * @return  void
// 1519  ***************************************************************************************************/

        RSEG BANKED_CODE:HUGECODE:NOROOT(0)
// 1520 void MT_ZdoStartupFromApp(uint8 *pBuf)
MT_ZdoStartupFromApp:
          CFI Block cfiBlock182 Using cfiCommon0
          CFI Function MT_ZdoStartupFromApp
        CODE
// 1521 {
        FUNCALL MT_ZdoStartupFromApp, ZDOInitDevice
        LOCFRAME ISTACK, 0, STACK
        LOCFRAME PSTACK, 0, STACK
        LOCFRAME XSTACK, 10, STACK
        LOCFRAME IOVERLAY, 0, STATIC
        LOCFRAME DOVERLAY, 0, STATIC
        ARGFRAME ISTACK, 0, STACK
        ARGFRAME PSTACK, 0, STACK
        ARGFRAME XSTACK, 10, STACK
        ARGFRAME IOVERLAY, 0, STATIC
        ARGFRAME DOVERLAY, 0, STATIC
        FUNCALL MT_ZdoStartupFromApp, MT_BuildAndSendZToolResponse
        LOCFRAME ISTACK, 0, STACK
        LOCFRAME PSTACK, 0, STACK
        LOCFRAME XSTACK, 10, STACK
        LOCFRAME IOVERLAY, 0, STATIC
        LOCFRAME DOVERLAY, 0, STATIC
        ARGFRAME ISTACK, 0, STACK
        ARGFRAME PSTACK, 0, STACK
        ARGFRAME XSTACK, 10, STACK
        ARGFRAME IOVERLAY, 0, STATIC
        ARGFRAME DOVERLAY, 0, STATIC
        MOV       A,#-0x9
        LCALL     ?BANKED_ENTER_XDATA
          CFI DPH0 load(1, XDATA, add(CFA_XSP16, literal(-1)))
          CFI DPL0 load(1, XDATA, add(CFA_XSP16, literal(-2)))
          CFI ?BRET_EXT load(1, XDATA, add(CFA_XSP16, literal(-3)))
          CFI ?RET_HIGH load(1, XDATA, add(CFA_XSP16, literal(-4)))
          CFI ?RET_LOW load(1, XDATA, add(CFA_XSP16, literal(-5)))
          CFI R7 load(1, XDATA, add(CFA_XSP16, literal(-6)))
          CFI V0 load(1, XDATA, add(CFA_XSP16, literal(-7)))
          CFI VB load(1, XDATA, add(CFA_XSP16, literal(-8)))
          CFI R6 load(1, XDATA, add(CFA_XSP16, literal(-9)))
          CFI CFA_SP SP+0
          CFI CFA_XSP16 add(XSP16, 9)
        ; Saved register size: 9
        ; Auto size: 1
        MOV       A,#-0x1
        LCALL     ?ALLOC_XSTACK8
          CFI CFA_XSP16 add(XSP16, 10)
// 1522   uint8 cmd0, cmd1, retValue;
// 1523 
// 1524   /* parse header */
// 1525   cmd0 = pBuf[MT_RPC_POS_CMD0];
        MOV       DPL,R2
        MOV       DPH,R3
        INC       DPTR
        MOVX      A,@DPTR
        MOV       R7,A
// 1526   cmd1 = pBuf[MT_RPC_POS_CMD1];
        MOV       DPL,R2
        MOV       DPH,R3
        INC       DPTR
        INC       DPTR
        MOVX      A,@DPTR
        MOV       R6,A
// 1527   pBuf += MT_RPC_FRAME_HDR_SZ;
// 1528 
// 1529   retValue = ZDOInitDevice(100);
        ; Setup parameters for call to function ZDOInitDevice
        MOV       R2,#0x64
        MOV       R3,#0x0
        LCALL     `??ZDOInitDevice::?relay`; Banked call to: ZDOInitDevice
        LCALL     ?Subroutine39 & 0xFFFF
// 1530 
// 1531   if (MT_RPC_CMD_SREQ == (cmd0 & MT_RPC_CMD_TYPE_MASK))
??CrossCallReturnLabel_69:
        JNZ       ??MT_ZdoStartupFromApp_0
// 1532   {
// 1533     MT_BuildAndSendZToolResponse(((uint8)MT_RPC_CMD_SRSP|(uint8)MT_RPC_SYS_ZDO), cmd1,1, &retValue);
        ; Setup parameters for call to function MT_BuildAndSendZToolResponse
        MOV       R4,?XSP + 0
        MOV       R5,?XSP + 1
        MOV       R3,#0x1
        MOV       A,R6
        MOV       R2,A
        MOV       R1,#0x65
        LCALL     `??MT_BuildAndSendZToolResponse::?relay`; Banked call to: MT_BuildAndSendZToolResponse
// 1534   }
// 1535 }
??MT_ZdoStartupFromApp_0:
        SJMP      ??Subroutine68_0
          CFI EndBlock cfiBlock182

        RSEG BANKED_CODE:HUGECODE:NOROOT(0)
?Subroutine5:
          CFI Block cfiBlock183 Using cfiCommon0
          CFI NoFunction
          CFI CFA_SP SP+0
          CFI CFA_XSP16 add(XSP16, 10)
          CFI VB load(1, XDATA, add(CFA_XSP16, literal(-8)))
          CFI DPL0 load(1, XDATA, add(CFA_XSP16, literal(-2)))
          CFI DPH0 load(1, XDATA, add(CFA_XSP16, literal(-1)))
          CFI R6 load(1, XDATA, add(CFA_XSP16, literal(-9)))
          CFI R7 load(1, XDATA, add(CFA_XSP16, literal(-6)))
          CFI V0 load(1, XDATA, add(CFA_XSP16, literal(-7)))
          CFI ?BRET_EXT load(1, XDATA, add(CFA_XSP16, literal(-3)))
          CFI ?RET_HIGH load(1, XDATA, add(CFA_XSP16, literal(-4)))
          CFI ?RET_LOW load(1, XDATA, add(CFA_XSP16, literal(-5)))
        LCALL     ?Subroutine32 & 0xFFFF
??CrossCallReturnLabel_130:
        LCALL     `??MT_BuildAndSendZToolResponse::?relay`; Banked call to: MT_BuildAndSendZToolResponse
          CFI EndBlock cfiBlock183
        REQUIRE ??Subroutine68_0
        ; // Fall through to label ??Subroutine68_0

        RSEG BANKED_CODE:HUGECODE:NOROOT(0)
??Subroutine68_0:
          CFI Block cfiBlock184 Using cfiCommon0
          CFI NoFunction
          CFI CFA_SP SP+0
          CFI CFA_XSP16 add(XSP16, 10)
          CFI VB load(1, XDATA, add(CFA_XSP16, literal(-8)))
          CFI DPL0 load(1, XDATA, add(CFA_XSP16, literal(-2)))
          CFI DPH0 load(1, XDATA, add(CFA_XSP16, literal(-1)))
          CFI R6 load(1, XDATA, add(CFA_XSP16, literal(-9)))
          CFI R7 load(1, XDATA, add(CFA_XSP16, literal(-6)))
          CFI V0 load(1, XDATA, add(CFA_XSP16, literal(-7)))
          CFI ?BRET_EXT load(1, XDATA, add(CFA_XSP16, literal(-3)))
          CFI ?RET_HIGH load(1, XDATA, add(CFA_XSP16, literal(-4)))
          CFI ?RET_LOW load(1, XDATA, add(CFA_XSP16, literal(-5)))
        MOV       A,#0x1
        LJMP      ??Subroutine64_0 & 0xFFFF
          CFI EndBlock cfiBlock184
// 1536 
// 1537 
// 1538 /***************************************************************************************************
// 1539  * @fn      MT_ZdoNetworkDiscoveryReq
// 1540  *
// 1541  * @brief   Handle a ZDO Network Discovery request.
// 1542  *
// 1543  * @param   pBuf  - MT message data
// 1544  *
// 1545  * @return  void
// 1546  ***************************************************************************************************/

        RSEG BANKED_CODE:HUGECODE:NOROOT(0)
// 1547 void MT_ZdoNetworkDiscoveryReq(uint8 *pBuf)
MT_ZdoNetworkDiscoveryReq:
          CFI Block cfiBlock185 Using cfiCommon0
          CFI Function MT_ZdoNetworkDiscoveryReq
        CODE
// 1548 {
        FUNCALL MT_ZdoNetworkDiscoveryReq, osal_build_uint32
        LOCFRAME ISTACK, 0, STACK
        LOCFRAME PSTACK, 0, STACK
        LOCFRAME XSTACK, 14, STACK
        LOCFRAME IOVERLAY, 0, STATIC
        LOCFRAME DOVERLAY, 0, STATIC
        ARGFRAME ISTACK, 0, STACK
        ARGFRAME PSTACK, 0, STACK
        ARGFRAME XSTACK, 14, STACK
        ARGFRAME IOVERLAY, 0, STATIC
        ARGFRAME DOVERLAY, 0, STATIC
        FUNCALL MT_ZdoNetworkDiscoveryReq, ZDApp_NetworkDiscoveryReq
        LOCFRAME ISTACK, 0, STACK
        LOCFRAME PSTACK, 0, STACK
        LOCFRAME XSTACK, 14, STACK
        LOCFRAME IOVERLAY, 0, STATIC
        LOCFRAME DOVERLAY, 0, STATIC
        ARGFRAME ISTACK, 0, STACK
        ARGFRAME PSTACK, 0, STACK
        ARGFRAME XSTACK, 14, STACK
        ARGFRAME IOVERLAY, 0, STATIC
        ARGFRAME DOVERLAY, 0, STATIC
        FUNCALL MT_ZdoNetworkDiscoveryReq, ZDO_RegisterForZdoCB
        LOCFRAME ISTACK, 0, STACK
        LOCFRAME PSTACK, 0, STACK
        LOCFRAME XSTACK, 14, STACK
        LOCFRAME IOVERLAY, 0, STATIC
        LOCFRAME DOVERLAY, 0, STATIC
        ARGFRAME ISTACK, 0, STACK
        ARGFRAME PSTACK, 0, STACK
        ARGFRAME XSTACK, 14, STACK
        ARGFRAME IOVERLAY, 0, STATIC
        ARGFRAME DOVERLAY, 0, STATIC
        FUNCALL MT_ZdoNetworkDiscoveryReq, ZDO_RegisterForZdoCB
        LOCFRAME ISTACK, 0, STACK
        LOCFRAME PSTACK, 0, STACK
        LOCFRAME XSTACK, 14, STACK
        LOCFRAME IOVERLAY, 0, STATIC
        LOCFRAME DOVERLAY, 0, STATIC
        ARGFRAME ISTACK, 0, STACK
        ARGFRAME PSTACK, 0, STACK
        ARGFRAME XSTACK, 14, STACK
        ARGFRAME IOVERLAY, 0, STATIC
        ARGFRAME DOVERLAY, 0, STATIC
        FUNCALL MT_ZdoNetworkDiscoveryReq, MT_BuildAndSendZToolResponse
        LOCFRAME ISTACK, 0, STACK
        LOCFRAME PSTACK, 0, STACK
        LOCFRAME XSTACK, 14, STACK
        LOCFRAME IOVERLAY, 0, STATIC
        LOCFRAME DOVERLAY, 0, STATIC
        ARGFRAME ISTACK, 0, STACK
        ARGFRAME PSTACK, 0, STACK
        ARGFRAME XSTACK, 14, STACK
        ARGFRAME IOVERLAY, 0, STATIC
        ARGFRAME DOVERLAY, 0, STATIC
        REQUIRE ?V0
        REQUIRE ?V1
        REQUIRE ?V2
        REQUIRE ?V3
        REQUIRE ?V4
        MOV       A,#-0xd
        LCALL     ?BANKED_ENTER_XDATA
          CFI DPH0 load(1, XDATA, add(CFA_XSP16, literal(-1)))
          CFI DPL0 load(1, XDATA, add(CFA_XSP16, literal(-2)))
          CFI ?BRET_EXT load(1, XDATA, add(CFA_XSP16, literal(-3)))
          CFI ?RET_HIGH load(1, XDATA, add(CFA_XSP16, literal(-4)))
          CFI ?RET_LOW load(1, XDATA, add(CFA_XSP16, literal(-5)))
          CFI R7 load(1, XDATA, add(CFA_XSP16, literal(-6)))
          CFI V4 load(1, XDATA, add(CFA_XSP16, literal(-7)))
          CFI V3 load(1, XDATA, add(CFA_XSP16, literal(-8)))
          CFI V2 load(1, XDATA, add(CFA_XSP16, literal(-9)))
          CFI V1 load(1, XDATA, add(CFA_XSP16, literal(-10)))
          CFI V0 load(1, XDATA, add(CFA_XSP16, literal(-11)))
          CFI VB load(1, XDATA, add(CFA_XSP16, literal(-12)))
          CFI R6 load(1, XDATA, add(CFA_XSP16, literal(-13)))
          CFI CFA_SP SP+0
          CFI CFA_XSP16 add(XSP16, 13)
        ; Saved register size: 13
        ; Auto size: 1
        MOV       A,#-0x1
        LCALL     ?ALLOC_XSTACK8
          CFI CFA_XSP16 add(XSP16, 14)
        LCALL     ?Subroutine33 & 0xFFFF
// 1549   uint8  retValue = ZFailure;
// 1550   uint8  cmdId;
// 1551   uint32 scanChannels;
// 1552 
// 1553   /* parse header */
// 1554   cmdId = pBuf[MT_RPC_POS_CMD1];
??CrossCallReturnLabel_137:
        MOV       ?V4,A
// 1555   pBuf += MT_RPC_FRAME_HDR_SZ;
        MOV       A,R6
        ADD       A,#0x3
        MOV       R6,A
        JNC       ??MT_ZdoNetworkDiscoveryReq_0
        INC       R7
// 1556 
// 1557   /* Packet format */
// 1558   /* scan channels (4) | scan duration (1) */
// 1559 
// 1560   /* Scan channels */
// 1561   scanChannels = osal_build_uint32(pBuf, 4);
??MT_ZdoNetworkDiscoveryReq_0:
        ; Setup parameters for call to function osal_build_uint32
        MOV       R1,#0x4
        MOV       R2,A
        MOV       A,R7
        MOV       R3,A
        LCALL     `??osal_build_uint32::?relay`; Banked call to: osal_build_uint32
// 1562   pBuf += 4;
// 1563 
// 1564   retValue = ZDApp_NetworkDiscoveryReq(scanChannels, *pBuf);
        ; Setup parameters for call to function ZDApp_NetworkDiscoveryReq
        MOV       DPL,R6
        MOV       DPH,R7
        INC       DPTR
        INC       DPTR
        INC       DPTR
        INC       DPTR
        MOVX      A,@DPTR
        MOV       R1,A
        LCALL     `??ZDApp_NetworkDiscoveryReq::?relay`; Banked call to: ZDApp_NetworkDiscoveryReq
        MOV       A,R1
        MOV       DPL,?XSP + 0
        MOV       DPH,?XSP + 1
        MOVX      @DPTR,A
// 1565 
// 1566   // Register ZDO callback for MT to handle the network discovery confirm
// 1567   // and beacon notification confirm
// 1568   ZDO_RegisterForZdoCB( ZDO_NWK_DISCOVERY_CNF_CBID, &MT_ZdoNwkDiscoveryCnfCB );
        ; Setup parameters for call to function ZDO_RegisterForZdoCB
        MOV       R2,#`??MT_ZdoNwkDiscoveryCnfCB::?relay` & 0xff
        MOV       R3,#(`??MT_ZdoNwkDiscoveryCnfCB::?relay` >> 8) & 0xff
        MOV       R1,#0x2
        LCALL     `??ZDO_RegisterForZdoCB::?relay`; Banked call to: ZDO_RegisterForZdoCB
// 1569   ZDO_RegisterForZdoCB( ZDO_BEACON_NOTIFY_IND_CBID, &MT_ZdoBeaconIndCB );
        ; Setup parameters for call to function ZDO_RegisterForZdoCB
        MOV       R2,#`??MT_ZdoBeaconIndCB::?relay` & 0xff
        MOV       R3,#(`??MT_ZdoBeaconIndCB::?relay` >> 8) & 0xff
        MOV       R1,#0x3
        LCALL     `??ZDO_RegisterForZdoCB::?relay`; Banked call to: ZDO_RegisterForZdoCB
// 1570 
// 1571   /* Build and send back the response */
// 1572   MT_BuildAndSendZToolResponse(((uint8)MT_RPC_CMD_SRSP | (uint8)MT_RPC_SYS_ZDO), cmdId, 1, &retValue );
        ; Setup parameters for call to function MT_BuildAndSendZToolResponse
        MOV       R4,?XSP + 0
        MOV       R5,?XSP + 1
        MOV       R3,#0x1
        MOV       R2,?V4
        MOV       R1,#0x65
        LCALL     `??MT_BuildAndSendZToolResponse::?relay`; Banked call to: MT_BuildAndSendZToolResponse
// 1573 }
        MOV       A,#0x1
        LCALL     ?DEALLOC_XSTACK8
          CFI CFA_XSP16 add(XSP16, 13)
        MOV       R7,#0x5
        LJMP      ?BANKED_LEAVE_XDATA
          CFI EndBlock cfiBlock185

        RSEG BANKED_CODE:HUGECODE:NOROOT(0)
?Subroutine33:
          CFI Block cfiCond186 Using cfiCommon0
          CFI Function MT_ZdoNetworkDiscoveryReq
          CFI Conditional ??CrossCallReturnLabel_137
          CFI R6 load(1, XDATA, add(CFA_XSP16, literal(-13)))
          CFI VB load(1, XDATA, add(CFA_XSP16, literal(-12)))
          CFI V0 load(1, XDATA, add(CFA_XSP16, literal(-11)))
          CFI V1 load(1, XDATA, add(CFA_XSP16, literal(-10)))
          CFI V2 load(1, XDATA, add(CFA_XSP16, literal(-9)))
          CFI V3 load(1, XDATA, add(CFA_XSP16, literal(-8)))
          CFI V4 load(1, XDATA, add(CFA_XSP16, literal(-7)))
          CFI R7 load(1, XDATA, add(CFA_XSP16, literal(-6)))
          CFI ?RET_LOW load(1, XDATA, add(CFA_XSP16, literal(-5)))
          CFI ?RET_HIGH load(1, XDATA, add(CFA_XSP16, literal(-4)))
          CFI ?BRET_EXT load(1, XDATA, add(CFA_XSP16, literal(-3)))
          CFI DPL0 load(1, XDATA, add(CFA_XSP16, literal(-2)))
          CFI DPH0 load(1, XDATA, add(CFA_XSP16, literal(-1)))
          CFI CFA_SP SP+-2
          CFI CFA_XSP16 add(XSP16, 14)
          CFI Block cfiCond187 Using cfiCommon0
          CFI (cfiCond187) Function MT_ZdoJoinReq
          CFI (cfiCond187) Conditional ??CrossCallReturnLabel_138
          CFI (cfiCond187) R6 load(1, XDATA, add(CFA_XSP16, literal(-12)))
          CFI (cfiCond187) VB load(1, XDATA, add(CFA_XSP16, literal(-11)))
          CFI (cfiCond187) V0 load(1, XDATA, add(CFA_XSP16, literal(-10)))
          CFI (cfiCond187) V1 load(1, XDATA, add(CFA_XSP16, literal(-9)))
          CFI (cfiCond187) V2 load(1, XDATA, add(CFA_XSP16, literal(-8)))
          CFI (cfiCond187) V3 load(1, XDATA, add(CFA_XSP16, literal(-7)))
          CFI (cfiCond187) R7 load(1, XDATA, add(CFA_XSP16, literal(-6)))
          CFI (cfiCond187) ?RET_LOW load(1, XDATA, add(CFA_XSP16, literal(-5)))
          CFI (cfiCond187) ?RET_HIGH load(1, XDATA, add(CFA_XSP16, literal(-4)))
          CFI (cfiCond187) ?BRET_EXT load(1, XDATA, add(CFA_XSP16, literal(-3)))
          CFI (cfiCond187) DPL0 load(1, XDATA, add(CFA_XSP16, literal(-2)))
          CFI (cfiCond187) DPH0 load(1, XDATA, add(CFA_XSP16, literal(-1)))
          CFI (cfiCond187) CFA_SP SP+-2
          CFI (cfiCond187) CFA_XSP16 add(XSP16, 13)
          CFI Block cfiPicker188 Using cfiCommon1
          CFI (cfiPicker188) NoFunction
          CFI (cfiPicker188) Picker
        MOV       A,R2
        MOV       R6,A
        MOV       A,R3
        MOV       R7,A
        MOV       DPL,?XSP + 0
        MOV       DPH,?XSP + 1
        MOV       A,#0x1
          CFI EndBlock cfiCond186
          CFI EndBlock cfiCond187
          CFI EndBlock cfiPicker188
        REQUIRE ??Subroutine69_0
        ; // Fall through to label ??Subroutine69_0

        RSEG BANKED_CODE:HUGECODE:NOROOT(0)
??Subroutine69_0:
          CFI Block cfiCond189 Using cfiCommon0
          CFI Function MT_ZdoEndDevBindRequest
          CFI Conditional ??CrossCallReturnLabel_139
          CFI R6 load(1, XDATA, add(CFA_XSP16, literal(-15)))
          CFI VB load(1, XDATA, add(CFA_XSP16, literal(-14)))
          CFI V0 load(1, XDATA, add(CFA_XSP16, literal(-13)))
          CFI V1 load(1, XDATA, add(CFA_XSP16, literal(-12)))
          CFI V2 load(1, XDATA, add(CFA_XSP16, literal(-11)))
          CFI V3 load(1, XDATA, add(CFA_XSP16, literal(-10)))
          CFI V4 load(1, XDATA, add(CFA_XSP16, literal(-9)))
          CFI V5 load(1, XDATA, add(CFA_XSP16, literal(-8)))
          CFI V6 load(1, XDATA, add(CFA_XSP16, literal(-7)))
          CFI R7 load(1, XDATA, add(CFA_XSP16, literal(-6)))
          CFI ?RET_LOW load(1, XDATA, add(CFA_XSP16, literal(-5)))
          CFI ?RET_HIGH load(1, XDATA, add(CFA_XSP16, literal(-4)))
          CFI ?BRET_EXT load(1, XDATA, add(CFA_XSP16, literal(-3)))
          CFI DPL0 load(1, XDATA, add(CFA_XSP16, literal(-2)))
          CFI DPH0 load(1, XDATA, add(CFA_XSP16, literal(-1)))
          CFI CFA_SP SP+-2
          CFI CFA_XSP16 add(XSP16, 85)
          CFI Block cfiCond190 Using cfiCommon0
          CFI (cfiCond190) Function MT_ZdoNetworkDiscoveryReq
          CFI (cfiCond190) Conditional ??CrossCallReturnLabel_137
          CFI (cfiCond190) R6 load(1, XDATA, add(CFA_XSP16, literal(-13)))
          CFI (cfiCond190) VB load(1, XDATA, add(CFA_XSP16, literal(-12)))
          CFI (cfiCond190) V0 load(1, XDATA, add(CFA_XSP16, literal(-11)))
          CFI (cfiCond190) V1 load(1, XDATA, add(CFA_XSP16, literal(-10)))
          CFI (cfiCond190) V2 load(1, XDATA, add(CFA_XSP16, literal(-9)))
          CFI (cfiCond190) V3 load(1, XDATA, add(CFA_XSP16, literal(-8)))
          CFI (cfiCond190) V4 load(1, XDATA, add(CFA_XSP16, literal(-7)))
          CFI (cfiCond190) R7 load(1, XDATA, add(CFA_XSP16, literal(-6)))
          CFI (cfiCond190) ?RET_LOW load(1, XDATA, add(CFA_XSP16, literal(-5)))
          CFI (cfiCond190) ?RET_HIGH load(1, XDATA, add(CFA_XSP16, literal(-4)))
          CFI (cfiCond190) ?BRET_EXT load(1, XDATA, add(CFA_XSP16, literal(-3)))
          CFI (cfiCond190) DPL0 load(1, XDATA, add(CFA_XSP16, literal(-2)))
          CFI (cfiCond190) DPH0 load(1, XDATA, add(CFA_XSP16, literal(-1)))
          CFI (cfiCond190) CFA_SP SP+-2
          CFI (cfiCond190) CFA_XSP16 add(XSP16, 14)
          CFI Block cfiCond191 Using cfiCommon0
          CFI (cfiCond191) Function MT_ZdoJoinReq
          CFI (cfiCond191) Conditional ??CrossCallReturnLabel_138
          CFI (cfiCond191) R6 load(1, XDATA, add(CFA_XSP16, literal(-12)))
          CFI (cfiCond191) VB load(1, XDATA, add(CFA_XSP16, literal(-11)))
          CFI (cfiCond191) V0 load(1, XDATA, add(CFA_XSP16, literal(-10)))
          CFI (cfiCond191) V1 load(1, XDATA, add(CFA_XSP16, literal(-9)))
          CFI (cfiCond191) V2 load(1, XDATA, add(CFA_XSP16, literal(-8)))
          CFI (cfiCond191) V3 load(1, XDATA, add(CFA_XSP16, literal(-7)))
          CFI (cfiCond191) R7 load(1, XDATA, add(CFA_XSP16, literal(-6)))
          CFI (cfiCond191) ?RET_LOW load(1, XDATA, add(CFA_XSP16, literal(-5)))
          CFI (cfiCond191) ?RET_HIGH load(1, XDATA, add(CFA_XSP16, literal(-4)))
          CFI (cfiCond191) ?BRET_EXT load(1, XDATA, add(CFA_XSP16, literal(-3)))
          CFI (cfiCond191) DPL0 load(1, XDATA, add(CFA_XSP16, literal(-2)))
          CFI (cfiCond191) DPH0 load(1, XDATA, add(CFA_XSP16, literal(-1)))
          CFI (cfiCond191) CFA_SP SP+-2
          CFI (cfiCond191) CFA_XSP16 add(XSP16, 13)
          CFI Block cfiPicker192 Using cfiCommon1
          CFI (cfiPicker192) NoFunction
          CFI (cfiPicker192) Picker
        MOVX      @DPTR,A
        MOV       DPL,R6
        MOV       DPH,R7
        INC       DPTR
        INC       DPTR
        MOVX      A,@DPTR
        RET
          CFI EndBlock cfiCond189
          CFI EndBlock cfiCond190
          CFI EndBlock cfiCond191
          CFI EndBlock cfiPicker192
// 1574 
// 1575 
// 1576 /***************************************************************************************************
// 1577  * @fn      MT_ZdoJoinReq
// 1578  *
// 1579  * @brief   Handle a ZDO Join request.
// 1580  *
// 1581  * @param   pBuf  - MT message data
// 1582  *
// 1583  * @return  void
// 1584  ***************************************************************************************************/

        RSEG BANKED_CODE:HUGECODE:NOROOT(0)
// 1585 void MT_ZdoJoinReq(uint8 *pBuf)
MT_ZdoJoinReq:
          CFI Block cfiBlock193 Using cfiCommon0
          CFI Function MT_ZdoJoinReq
        CODE
// 1586 {
        FUNCALL MT_ZdoJoinReq, ZDApp_JoinReq
        LOCFRAME ISTACK, 0, STACK
        LOCFRAME PSTACK, 0, STACK
        LOCFRAME XSTACK, 17, STACK
        LOCFRAME IOVERLAY, 0, STATIC
        LOCFRAME DOVERLAY, 0, STATIC
        ARGFRAME ISTACK, 0, STACK
        ARGFRAME PSTACK, 0, STACK
        ARGFRAME XSTACK, 17, STACK
        ARGFRAME IOVERLAY, 0, STATIC
        ARGFRAME DOVERLAY, 0, STATIC
        FUNCALL MT_ZdoJoinReq, ZDO_RegisterForZdoCB
        LOCFRAME ISTACK, 0, STACK
        LOCFRAME PSTACK, 0, STACK
        LOCFRAME XSTACK, 13, STACK
        LOCFRAME IOVERLAY, 0, STATIC
        LOCFRAME DOVERLAY, 0, STATIC
        ARGFRAME ISTACK, 0, STACK
        ARGFRAME PSTACK, 0, STACK
        ARGFRAME XSTACK, 13, STACK
        ARGFRAME IOVERLAY, 0, STATIC
        ARGFRAME DOVERLAY, 0, STATIC
        FUNCALL MT_ZdoJoinReq, MT_BuildAndSendZToolResponse
        LOCFRAME ISTACK, 0, STACK
        LOCFRAME PSTACK, 0, STACK
        LOCFRAME XSTACK, 13, STACK
        LOCFRAME IOVERLAY, 0, STATIC
        LOCFRAME DOVERLAY, 0, STATIC
        ARGFRAME ISTACK, 0, STACK
        ARGFRAME PSTACK, 0, STACK
        ARGFRAME XSTACK, 13, STACK
        ARGFRAME IOVERLAY, 0, STATIC
        ARGFRAME DOVERLAY, 0, STATIC
        REQUIRE ?V0
        REQUIRE ?V1
        REQUIRE ?V2
        REQUIRE ?V3
        MOV       A,#-0xc
        LCALL     ?BANKED_ENTER_XDATA
          CFI DPH0 load(1, XDATA, add(CFA_XSP16, literal(-1)))
          CFI DPL0 load(1, XDATA, add(CFA_XSP16, literal(-2)))
          CFI ?BRET_EXT load(1, XDATA, add(CFA_XSP16, literal(-3)))
          CFI ?RET_HIGH load(1, XDATA, add(CFA_XSP16, literal(-4)))
          CFI ?RET_LOW load(1, XDATA, add(CFA_XSP16, literal(-5)))
          CFI R7 load(1, XDATA, add(CFA_XSP16, literal(-6)))
          CFI V3 load(1, XDATA, add(CFA_XSP16, literal(-7)))
          CFI V2 load(1, XDATA, add(CFA_XSP16, literal(-8)))
          CFI V1 load(1, XDATA, add(CFA_XSP16, literal(-9)))
          CFI V0 load(1, XDATA, add(CFA_XSP16, literal(-10)))
          CFI VB load(1, XDATA, add(CFA_XSP16, literal(-11)))
          CFI R6 load(1, XDATA, add(CFA_XSP16, literal(-12)))
          CFI CFA_SP SP+0
          CFI CFA_XSP16 add(XSP16, 12)
        ; Saved register size: 12
        ; Auto size: 1
        MOV       A,#-0x1
        LCALL     ?ALLOC_XSTACK8
          CFI CFA_XSP16 add(XSP16, 13)
        LCALL     ?Subroutine33 & 0xFFFF
// 1587   uint8  retValue = ZFailure;
// 1588   uint8  cmdId;
// 1589   uint16 panId;
// 1590   uint16 chosenParent;
// 1591 
// 1592   /* parse header */
// 1593   cmdId = pBuf[MT_RPC_POS_CMD1];
??CrossCallReturnLabel_138:
        MOV       ?V0,A
// 1594   pBuf += MT_RPC_FRAME_HDR_SZ;
        MOV       A,R6
        ADD       A,#0x3
        MOV       R6,A
        JNC       ??MT_ZdoJoinReq_0
        INC       R7
// 1595 
// 1596   /* Packet format */
// 1597   /* channel     (1) | panID (2) | extendedPanID (8) | chosenParent (2) |
// 1598    * parentDepth (1) | stackProfile  (1)
// 1599    */
// 1600 
// 1601   panId        = BUILD_UINT16(pBuf[1], pBuf[2]);
// 1602   chosenParent = BUILD_UINT16(pBuf[11], pBuf[12]);
// 1603 
// 1604   retValue = ZDApp_JoinReq(pBuf[0], panId, &(pBuf[3]), chosenParent, pBuf[13], pBuf[14]);
??MT_ZdoJoinReq_0:
        ; Setup parameters for call to function ZDApp_JoinReq
        ADD       A,#0xe
        LCALL     ?Subroutine43 & 0xFFFF
??CrossCallReturnLabel_78:
        LCALL     ?PUSH_XSTACK_I_ONE
          CFI CFA_XSP16 add(XSP16, 14)
        MOV       A,R6
        ADD       A,#0xd
        LCALL     ?Subroutine43 & 0xFFFF
??CrossCallReturnLabel_79:
        LCALL     ?PUSH_XSTACK_I_ONE
          CFI CFA_XSP16 add(XSP16, 15)
        LCALL     ?Subroutine40 & 0xFFFF
??CrossCallReturnLabel_72:
        MOV       R2,A
        LCALL     ?Subroutine41 & 0xFFFF
??CrossCallReturnLabel_74:
        MOV       R0,A
        CLR       A
        XCH       A,R0
        MOV       R1,A
        MOV       A,R2
        ADD       A,R0
        MOV       ?V2,A
        CLR       A
        ADDC      A,R1
        MOV       ?V3,A
        MOV       R0,#?V2
        LCALL     ?PUSH_XSTACK_I_TWO
          CFI CFA_XSP16 add(XSP16, 17)
        MOV       A,R6
        ADD       A,#0x3
        MOV       R4,A
        CLR       A
        ADDC      A,R7
        MOV       R5,A
        MOV       DPL,R6
        MOV       DPH,R7
        INC       DPTR
        MOVX      A,@DPTR
        MOV       R2,A
        MOV       DPL,R6
        MOV       DPH,R7
        INC       DPTR
        LCALL     ??Subroutine66_0 & 0xFFFF
??CrossCallReturnLabel_131:
        CLR       A
        ADDC      A,R1
        MOV       R3,A
        MOV       DPL,R6
        MOV       DPH,R7
        MOVX      A,@DPTR
        MOV       R1,A
        LCALL     `??ZDApp_JoinReq::?relay`; Banked call to: ZDApp_JoinReq
        MOV       A,#0x4
        LCALL     ?DEALLOC_XSTACK8
          CFI CFA_XSP16 add(XSP16, 13)
        MOV       A,R1
        MOV       DPL,?XSP + 0
        MOV       DPH,?XSP + 1
        MOVX      @DPTR,A
// 1605 
// 1606   /* Register for MT to receive Join Confirm */
// 1607   ZDO_RegisterForZdoCB( ZDO_JOIN_CNF_CBID, &MT_ZdoJoinCnfCB );
        ; Setup parameters for call to function ZDO_RegisterForZdoCB
        MOV       R2,#`??MT_ZdoJoinCnfCB::?relay` & 0xff
        MOV       R3,#(`??MT_ZdoJoinCnfCB::?relay` >> 8) & 0xff
        MOV       R1,#0x4
        LCALL     `??ZDO_RegisterForZdoCB::?relay`; Banked call to: ZDO_RegisterForZdoCB
// 1608 
// 1609   /* Build and send back the response */
// 1610   MT_BuildAndSendZToolResponse(((uint8)MT_RPC_CMD_SRSP | (uint8)MT_RPC_SYS_ZDO), cmdId, 1, &retValue );
        ; Setup parameters for call to function MT_BuildAndSendZToolResponse
        MOV       R4,?XSP + 0
        MOV       R5,?XSP + 1
        MOV       R3,#0x1
        MOV       R2,?V0
        MOV       R1,#0x65
        LCALL     `??MT_BuildAndSendZToolResponse::?relay`; Banked call to: MT_BuildAndSendZToolResponse
// 1611 
// 1612 }
        MOV       A,#0x1
        LJMP      ?Subroutine3 & 0xFFFF
          CFI EndBlock cfiBlock193

        RSEG BANKED_CODE:HUGECODE:NOROOT(0)
?Subroutine43:
          CFI Block cfiCond194 Using cfiCommon0
          CFI Function MT_ZdoJoinReq
          CFI Conditional ??CrossCallReturnLabel_78
          CFI R6 load(1, XDATA, add(CFA_XSP16, literal(-12)))
          CFI VB load(1, XDATA, add(CFA_XSP16, literal(-11)))
          CFI V0 load(1, XDATA, add(CFA_XSP16, literal(-10)))
          CFI V1 load(1, XDATA, add(CFA_XSP16, literal(-9)))
          CFI V2 load(1, XDATA, add(CFA_XSP16, literal(-8)))
          CFI V3 load(1, XDATA, add(CFA_XSP16, literal(-7)))
          CFI R7 load(1, XDATA, add(CFA_XSP16, literal(-6)))
          CFI ?RET_LOW load(1, XDATA, add(CFA_XSP16, literal(-5)))
          CFI ?RET_HIGH load(1, XDATA, add(CFA_XSP16, literal(-4)))
          CFI ?BRET_EXT load(1, XDATA, add(CFA_XSP16, literal(-3)))
          CFI DPL0 load(1, XDATA, add(CFA_XSP16, literal(-2)))
          CFI DPH0 load(1, XDATA, add(CFA_XSP16, literal(-1)))
          CFI CFA_SP SP+-2
          CFI CFA_XSP16 add(XSP16, 13)
          CFI Block cfiCond195 Using cfiCommon0
          CFI (cfiCond195) Function MT_ZdoJoinReq
          CFI (cfiCond195) Conditional ??CrossCallReturnLabel_79
          CFI (cfiCond195) R6 load(1, XDATA, add(CFA_XSP16, literal(-12)))
          CFI (cfiCond195) VB load(1, XDATA, add(CFA_XSP16, literal(-11)))
          CFI (cfiCond195) V0 load(1, XDATA, add(CFA_XSP16, literal(-10)))
          CFI (cfiCond195) V1 load(1, XDATA, add(CFA_XSP16, literal(-9)))
          CFI (cfiCond195) V2 load(1, XDATA, add(CFA_XSP16, literal(-8)))
          CFI (cfiCond195) V3 load(1, XDATA, add(CFA_XSP16, literal(-7)))
          CFI (cfiCond195) R7 load(1, XDATA, add(CFA_XSP16, literal(-6)))
          CFI (cfiCond195) ?RET_LOW load(1, XDATA, add(CFA_XSP16, literal(-5)))
          CFI (cfiCond195) ?RET_HIGH load(1, XDATA, add(CFA_XSP16, literal(-4)))
          CFI (cfiCond195) ?BRET_EXT load(1, XDATA, add(CFA_XSP16, literal(-3)))
          CFI (cfiCond195) DPL0 load(1, XDATA, add(CFA_XSP16, literal(-2)))
          CFI (cfiCond195) DPH0 load(1, XDATA, add(CFA_XSP16, literal(-1)))
          CFI (cfiCond195) CFA_SP SP+-2
          CFI (cfiCond195) CFA_XSP16 add(XSP16, 14)
          CFI Block cfiPicker196 Using cfiCommon1
          CFI (cfiPicker196) NoFunction
          CFI (cfiPicker196) Picker
        MOV       DPL,A
        CLR       A
        ADDC      A,R7
        MOV       DPH,A
        MOVX      A,@DPTR
        MOV       ?V1,A
        MOV       R0,#?V1
        RET
          CFI EndBlock cfiCond194
          CFI EndBlock cfiCond195
          CFI EndBlock cfiPicker196
// 1613 
// 1614 /***************************************************************************************************
// 1615  * @fn          MT_ZdoNwkDiscoveryCnfCB
// 1616  *
// 1617  * @brief       Send an indication to inform host device the completion of
// 1618  *              network discovery scan
// 1619  *
// 1620  * @param       pStr - pointer to a parameter and a structure of parameters
// 1621  *
// 1622  * @return      void
// 1623  ***************************************************************************************************/

        RSEG BANKED_CODE:HUGECODE:NOROOT(0)
// 1624 void *MT_ZdoNwkDiscoveryCnfCB ( void *pStr )
MT_ZdoNwkDiscoveryCnfCB:
          CFI Block cfiBlock197 Using cfiCommon0
          CFI Function MT_ZdoNwkDiscoveryCnfCB
        CODE
// 1625 {
        FUNCALL MT_ZdoNwkDiscoveryCnfCB, ZDO_DeregisterForZdoCB
        LOCFRAME ISTACK, 0, STACK
        LOCFRAME PSTACK, 0, STACK
        LOCFRAME XSTACK, 9, STACK
        LOCFRAME IOVERLAY, 0, STATIC
        LOCFRAME DOVERLAY, 0, STATIC
        ARGFRAME ISTACK, 0, STACK
        ARGFRAME PSTACK, 0, STACK
        ARGFRAME XSTACK, 9, STACK
        ARGFRAME IOVERLAY, 0, STATIC
        ARGFRAME DOVERLAY, 0, STATIC
        FUNCALL MT_ZdoNwkDiscoveryCnfCB, ZDO_DeregisterForZdoCB
        LOCFRAME ISTACK, 0, STACK
        LOCFRAME PSTACK, 0, STACK
        LOCFRAME XSTACK, 9, STACK
        LOCFRAME IOVERLAY, 0, STATIC
        LOCFRAME DOVERLAY, 0, STATIC
        ARGFRAME ISTACK, 0, STACK
        ARGFRAME PSTACK, 0, STACK
        ARGFRAME XSTACK, 9, STACK
        ARGFRAME IOVERLAY, 0, STATIC
        ARGFRAME DOVERLAY, 0, STATIC
        FUNCALL MT_ZdoNwkDiscoveryCnfCB, MT_ZdoBeaconIndCB
        LOCFRAME ISTACK, 0, STACK
        LOCFRAME PSTACK, 0, STACK
        LOCFRAME XSTACK, 9, STACK
        LOCFRAME IOVERLAY, 0, STATIC
        LOCFRAME DOVERLAY, 0, STATIC
        ARGFRAME ISTACK, 0, STACK
        ARGFRAME PSTACK, 0, STACK
        ARGFRAME XSTACK, 9, STACK
        ARGFRAME IOVERLAY, 0, STATIC
        ARGFRAME DOVERLAY, 0, STATIC
        FUNCALL MT_ZdoNwkDiscoveryCnfCB, MT_BuildAndSendZToolResponse
        LOCFRAME ISTACK, 0, STACK
        LOCFRAME PSTACK, 0, STACK
        LOCFRAME XSTACK, 9, STACK
        LOCFRAME IOVERLAY, 0, STATIC
        LOCFRAME DOVERLAY, 0, STATIC
        ARGFRAME ISTACK, 0, STACK
        ARGFRAME PSTACK, 0, STACK
        ARGFRAME XSTACK, 9, STACK
        ARGFRAME IOVERLAY, 0, STATIC
        ARGFRAME DOVERLAY, 0, STATIC
        MOV       A,#-0x9
        LCALL     ?BANKED_ENTER_XDATA
          CFI DPH0 load(1, XDATA, add(CFA_XSP16, literal(-1)))
          CFI DPL0 load(1, XDATA, add(CFA_XSP16, literal(-2)))
          CFI ?BRET_EXT load(1, XDATA, add(CFA_XSP16, literal(-3)))
          CFI ?RET_HIGH load(1, XDATA, add(CFA_XSP16, literal(-4)))
          CFI ?RET_LOW load(1, XDATA, add(CFA_XSP16, literal(-5)))
          CFI R7 load(1, XDATA, add(CFA_XSP16, literal(-6)))
          CFI V0 load(1, XDATA, add(CFA_XSP16, literal(-7)))
          CFI VB load(1, XDATA, add(CFA_XSP16, literal(-8)))
          CFI R6 load(1, XDATA, add(CFA_XSP16, literal(-9)))
          CFI CFA_SP SP+0
          CFI CFA_XSP16 add(XSP16, 9)
        ; Saved register size: 9
        ; Auto size: 0
        MOV       A,R2
        MOV       R6,A
        MOV       A,R3
        MOV       R7,A
// 1626   /* pStr: status (uint8) */
// 1627   /* Packet Format */
// 1628   /* Status (1) */
// 1629 
// 1630   // Scan completed. De-register the callback with ZDO
// 1631   ZDO_DeregisterForZdoCB( ZDO_NWK_DISCOVERY_CNF_CBID );
        ; Setup parameters for call to function ZDO_DeregisterForZdoCB
        MOV       R1,#0x2
        LCALL     `??ZDO_DeregisterForZdoCB::?relay`; Banked call to: ZDO_DeregisterForZdoCB
// 1632   ZDO_DeregisterForZdoCB( ZDO_BEACON_NOTIFY_IND_CBID );
        ; Setup parameters for call to function ZDO_DeregisterForZdoCB
        MOV       R1,#0x3
        LCALL     `??ZDO_DeregisterForZdoCB::?relay`; Banked call to: ZDO_DeregisterForZdoCB
// 1633 
// 1634   // Send the buffered beacon indication
// 1635   MT_ZdoBeaconIndCB ( NULL );
        ; Setup parameters for call to function MT_ZdoBeaconIndCB
        MOV       R2,#0x0
        MOV       R3,#0x0
        LCALL     `??MT_ZdoBeaconIndCB::?relay`; Banked call to: MT_ZdoBeaconIndCB
// 1636 
// 1637   MT_BuildAndSendZToolResponse(((uint8)MT_RPC_CMD_AREQ | (uint8)MT_RPC_SYS_ZDO),
// 1638                                          MT_ZDO_NWK_DISCOVERY_CNF, 1, pStr);
        ; Setup parameters for call to function MT_BuildAndSendZToolResponse
        MOV       A,R6
        MOV       R4,A
        MOV       A,R7
        MOV       R5,A
        MOV       R3,#0x1
        MOV       R2,#-0x39
        MOV       R1,#0x45
        LCALL     `??MT_BuildAndSendZToolResponse::?relay`; Banked call to: MT_BuildAndSendZToolResponse
// 1639   return NULL;
        MOV       R2,#0x0
        MOV       R3,#0x0
        LJMP      ??Subroutine65_0 & 0xFFFF
// 1640 }
          CFI EndBlock cfiBlock197
// 1641 
// 1642 
// 1643 
// 1644 /***************************************************************************************************
// 1645  * @fn          MT_ZdoBeaconIndCB
// 1646  *
// 1647  * @brief       Send an indication to host device of a beacon notification
// 1648  *
// 1649  * @param       pStr -  pointer to a parameter and a structure of parameters
// 1650  *
// 1651  * @return      void
// 1652  ***************************************************************************************************/

        RSEG BANKED_CODE:HUGECODE:NOROOT(0)
// 1653 void *MT_ZdoBeaconIndCB ( void *pStr )
MT_ZdoBeaconIndCB:
          CFI Block cfiBlock198 Using cfiCommon0
          CFI Function MT_ZdoBeaconIndCB
        CODE
// 1654 {
        FUNCALL MT_ZdoBeaconIndCB, osal_mem_alloc
        LOCFRAME ISTACK, 0, STACK
        LOCFRAME PSTACK, 0, STACK
        LOCFRAME XSTACK, 11, STACK
        LOCFRAME IOVERLAY, 0, STATIC
        LOCFRAME DOVERLAY, 0, STATIC
        ARGFRAME ISTACK, 0, STACK
        ARGFRAME PSTACK, 0, STACK
        ARGFRAME XSTACK, 11, STACK
        ARGFRAME IOVERLAY, 0, STATIC
        ARGFRAME DOVERLAY, 0, STATIC
        FUNCALL MT_ZdoBeaconIndCB, osal_memcpy
        LOCFRAME ISTACK, 0, STACK
        LOCFRAME PSTACK, 0, STACK
        LOCFRAME XSTACK, 14, STACK
        LOCFRAME IOVERLAY, 0, STATIC
        LOCFRAME DOVERLAY, 0, STATIC
        ARGFRAME ISTACK, 0, STACK
        ARGFRAME PSTACK, 0, STACK
        ARGFRAME XSTACK, 14, STACK
        ARGFRAME IOVERLAY, 0, STATIC
        ARGFRAME DOVERLAY, 0, STATIC
        FUNCALL MT_ZdoBeaconIndCB, MT_BuildAndSendZToolResponse
        LOCFRAME ISTACK, 0, STACK
        LOCFRAME PSTACK, 0, STACK
        LOCFRAME XSTACK, 11, STACK
        LOCFRAME IOVERLAY, 0, STATIC
        LOCFRAME DOVERLAY, 0, STATIC
        ARGFRAME ISTACK, 0, STACK
        ARGFRAME PSTACK, 0, STACK
        ARGFRAME XSTACK, 11, STACK
        ARGFRAME IOVERLAY, 0, STATIC
        ARGFRAME DOVERLAY, 0, STATIC
        FUNCALL MT_ZdoBeaconIndCB, MT_BuildAndSendZToolResponse
        LOCFRAME ISTACK, 0, STACK
        LOCFRAME PSTACK, 0, STACK
        LOCFRAME XSTACK, 11, STACK
        LOCFRAME IOVERLAY, 0, STATIC
        LOCFRAME DOVERLAY, 0, STATIC
        ARGFRAME ISTACK, 0, STACK
        ARGFRAME PSTACK, 0, STACK
        ARGFRAME XSTACK, 11, STACK
        ARGFRAME IOVERLAY, 0, STATIC
        ARGFRAME DOVERLAY, 0, STATIC
        FUNCALL MT_ZdoBeaconIndCB, osal_mem_free
        LOCFRAME ISTACK, 0, STACK
        LOCFRAME PSTACK, 0, STACK
        LOCFRAME XSTACK, 11, STACK
        LOCFRAME IOVERLAY, 0, STATIC
        LOCFRAME DOVERLAY, 0, STATIC
        ARGFRAME ISTACK, 0, STACK
        ARGFRAME PSTACK, 0, STACK
        ARGFRAME XSTACK, 11, STACK
        ARGFRAME IOVERLAY, 0, STATIC
        ARGFRAME DOVERLAY, 0, STATIC
        REQUIRE ?V0
        REQUIRE ?V1
        REQUIRE ?V2
        MOV       A,#-0xb
        LCALL     ?BANKED_ENTER_XDATA
          CFI DPH0 load(1, XDATA, add(CFA_XSP16, literal(-1)))
          CFI DPL0 load(1, XDATA, add(CFA_XSP16, literal(-2)))
          CFI ?BRET_EXT load(1, XDATA, add(CFA_XSP16, literal(-3)))
          CFI ?RET_HIGH load(1, XDATA, add(CFA_XSP16, literal(-4)))
          CFI ?RET_LOW load(1, XDATA, add(CFA_XSP16, literal(-5)))
          CFI R7 load(1, XDATA, add(CFA_XSP16, literal(-6)))
          CFI V2 load(1, XDATA, add(CFA_XSP16, literal(-7)))
          CFI V1 load(1, XDATA, add(CFA_XSP16, literal(-8)))
          CFI V0 load(1, XDATA, add(CFA_XSP16, literal(-9)))
          CFI VB load(1, XDATA, add(CFA_XSP16, literal(-10)))
          CFI R6 load(1, XDATA, add(CFA_XSP16, literal(-11)))
          CFI CFA_SP SP+0
          CFI CFA_XSP16 add(XSP16, 11)
        ; Saved register size: 11
        ; Auto size: 0
        MOV       A,R2
        MOV       R6,A
        MOV       A,R3
        MOV       R7,A
// 1655   zdoBeaconInd_t *pBeacon = pStr;
// 1656   uint8 *pTmp;
// 1657 
// 1658   /* Packet Format */
// 1659   /* devCnt (1) | device #1 (21) | device #2 (21) |... | device #n (21) */
// 1660 
// 1661   if( pStr != NULL)
        MOV       A,R6
        ORL       A,R7
        MOV       DPTR,#pBeaconIndBuf
        JNZ       $+5
        LJMP      ??MT_ZdoBeaconIndCB_0 & 0xFFFF
// 1662   {
// 1663     if( pBeaconIndBuf == NULL )
        LCALL     ??Subroutine72_0 & 0xFFFF
??CrossCallReturnLabel_148:
        JNZ       ??MT_ZdoBeaconIndCB_1
// 1664     {
// 1665       // If pBeaconIndBuf has not been allocated yet
// 1666       // allocate memory now with MAX_UART_TX_BUFF
// 1667       if( NULL == (pBeaconIndBuf = (uint8 *)osal_mem_alloc(MT_ZDO_BEACON_IND_PACK_LEN)))
        ; Setup parameters for call to function osal_mem_alloc
        MOV       R2,#0x7b
        MOV       R3,#0x0
        LCALL     `??osal_mem_alloc::?relay`; Banked call to: osal_mem_alloc
        MOV       DPTR,#pBeaconIndBuf
        MOV       A,R2
        MOVX      @DPTR,A
        INC       DPTR
        MOV       A,R3
        MOVX      @DPTR,A
        LCALL     ?Subroutine14 & 0xFFFF
??CrossCallReturnLabel_150:
        JNZ       $+5
        LJMP      ??MT_ZdoBeaconIndCB_2 & 0xFFFF
// 1668       {
// 1669         // Memory failure
// 1670         return NULL;
// 1671       }
// 1672       pBeaconIndBuf[0] = 0; // First byte is devCnt. Initialize to 0.
        LCALL     ??Subroutine71_0 & 0xFFFF
// 1673     }
??CrossCallReturnLabel_144:
        CLR       A
        MOVX      @DPTR,A
// 1674 
// 1675     // Fill in the buffer with the beacon indication
// 1676     pTmp = pBeaconIndBuf + (1 + pBeaconIndBuf[0] * MT_ZDO_BEACON_IND_LEN);
??MT_ZdoBeaconIndCB_1:
        LCALL     ?Subroutine18 & 0xFFFF
??CrossCallReturnLabel_24:
        MOV       R0,A
        MOV       R1,B
        MOV       DPTR,#pBeaconIndBuf
        MOVX      A,@DPTR
        ADD       A,R0
        MOV       R2,A
        INC       DPTR
        MOVX      A,@DPTR
        ADDC      A,R1
        MOV       DPL,R2
        MOV       DPH,A
        INC       DPTR
        MOV       R2,DPL
        MOV       R3,DPH
// 1677     *pTmp++ = LO_UINT16(pBeacon->sourceAddr);
        MOV       DPL,R6
        MOV       DPH,R7
        MOVX      A,@DPTR
        MOV       DPL,R2
        MOV       DPH,R3
        LCALL     ?Subroutine34 & 0xFFFF
// 1678     *pTmp++ = HI_UINT16(pBeacon->sourceAddr);
??CrossCallReturnLabel_55:
        LCALL     ?Subroutine59 & 0xFFFF
??CrossCallReturnLabel_109:
        MOVX      @DPTR,A
// 1679     *pTmp++ = LO_UINT16(pBeacon->panID);
        MOV       A,R6
        ADD       A,#0x2
        MOV       R0,A
        CLR       A
        ADDC      A,R7
        MOV       R1,A
        MOV       DPL,R0
        MOV       DPH,R1
        LCALL     ?Subroutine59 & 0xFFFF
??CrossCallReturnLabel_110:
        INC       DPTR
        LCALL     ?Subroutine54 & 0xFFFF
// 1680     *pTmp++ = HI_UINT16(pBeacon->panID);
??CrossCallReturnLabel_100:
        LCALL     ?Subroutine27 & 0xFFFF
??CrossCallReturnLabel_40:
        LCALL     ?Subroutine34 & 0xFFFF
// 1681     *pTmp++ = pBeacon->logicalChannel;
??CrossCallReturnLabel_56:
        INC       DPTR
        INC       DPTR
        LCALL     ?Subroutine27 & 0xFFFF
??CrossCallReturnLabel_41:
        LCALL     ?Subroutine38 & 0xFFFF
// 1682     *pTmp++ = pBeacon->permitJoining;
??CrossCallReturnLabel_140:
        LCALL     ?Subroutine22 & 0xFFFF
??CrossCallReturnLabel_32:
        LCALL     ?Subroutine34 & 0xFFFF
// 1683     *pTmp++ = pBeacon->routerCapacity;
??CrossCallReturnLabel_57:
        LCALL     ?Subroutine22 & 0xFFFF
??CrossCallReturnLabel_33:
        LCALL     ?Subroutine38 & 0xFFFF
// 1684     *pTmp++ = pBeacon->deviceCapacity;
??CrossCallReturnLabel_141:
        LCALL     ?Subroutine19 & 0xFFFF
??CrossCallReturnLabel_26:
        LCALL     ?Subroutine34 & 0xFFFF
// 1685     *pTmp++ = pBeacon->protocolVersion;
??CrossCallReturnLabel_58:
        LCALL     ?Subroutine19 & 0xFFFF
??CrossCallReturnLabel_27:
        LCALL     ?Subroutine38 & 0xFFFF
// 1686     *pTmp++ = pBeacon->stackProfile;
??CrossCallReturnLabel_142:
        LCALL     ?Subroutine15 & 0xFFFF
??CrossCallReturnLabel_17:
        LCALL     ?Subroutine34 & 0xFFFF
// 1687     *pTmp++ = pBeacon->LQI;
??CrossCallReturnLabel_59:
        LCALL     ?Subroutine15 & 0xFFFF
??CrossCallReturnLabel_18:
        INC       DPTR
        MOVX      @DPTR,A
// 1688     *pTmp++ = pBeacon->depth;
        LCALL     ?Subroutine40 & 0xFFFF
??CrossCallReturnLabel_73:
        PUSH      A
          CFI CFA_SP SP+-1
        MOV       A,R2
        ADD       A,#0xb
        MOV       DPL,A
        CLR       A
        ADDC      A,R3
        MOV       DPH,A
        POP       A
          CFI CFA_SP SP+0
        MOVX      @DPTR,A
// 1689     *pTmp++ = pBeacon->updateID;
        LCALL     ?Subroutine41 & 0xFFFF
??CrossCallReturnLabel_75:
        PUSH      A
          CFI CFA_SP SP+-1
        MOV       A,R2
        ADD       A,#0xc
        MOV       DPL,A
        CLR       A
        ADDC      A,R3
        MOV       DPH,A
        POP       A
          CFI CFA_SP SP+0
        MOVX      @DPTR,A
// 1690     osal_memcpy( pTmp, pBeacon->extendedPanID, Z_EXTADDR_LEN);
        ; Setup parameters for call to function osal_memcpy
        MOV       A,R6
        ADD       A,#0xd
        MOV       ?V0,A
        CLR       A
        ADDC      A,R7
        MOV       ?V1,A
        MOV       ?V2,#0x0
        MOV       R0,#?V0
        LCALL     ?PUSH_XSTACK_I_THREE
          CFI CFA_XSP16 add(XSP16, 14)
        MOV       R4,#0x8
        MOV       R5,#0x0
        MOV       A,R2
        ADD       A,#0xd
        MOV       R2,A
        JNC       ??MT_ZdoBeaconIndCB_3
        INC       R3
??MT_ZdoBeaconIndCB_3:
        LCALL     `??osal_memcpy::?relay`; Banked call to: osal_memcpy
        MOV       A,#0x3
        LCALL     ?DEALLOC_XSTACK8
          CFI CFA_XSP16 add(XSP16, 11)
// 1691 
// 1692     pBeaconIndBuf[0] += 1; // Increment the devCnt
        LCALL     ?Subroutine25 & 0xFFFF
??CrossCallReturnLabel_146:
        MOVX      A,@DPTR
        INC       A
        MOVX      @DPTR,A
// 1693 
// 1694     // Check if the buffer can fit in another beacon
// 1695     if( ((pBeaconIndBuf[0] + 1) * MT_ZDO_BEACON_IND_LEN + 1) > MT_ZDO_BEACON_IND_PACK_LEN )
        LCALL     ?Subroutine18 & 0xFFFF
??CrossCallReturnLabel_25:
        MOV       R1,B
        ADD       A,#0x16
        JNC       ??MT_ZdoBeaconIndCB_4
        INC       R1
??MT_ZdoBeaconIndCB_4:
        CLR       C
        SUBB      A,#0x7c
        MOV       A,R1
        SUBB      A,#0x0
        MOV       C,0xD0 /* PSW */.2
        XRL       A,PSW
        RLC       A
        JC        ??MT_ZdoBeaconIndCB_2
// 1696     {
// 1697       // Packet full, send the packet over MT
// 1698       MT_BuildAndSendZToolResponse(((uint8)MT_RPC_CMD_AREQ | (uint8)MT_RPC_SYS_ZDO),
// 1699                                    MT_ZDO_BEACON_NOTIFY_IND,
// 1700                                    (pBeaconIndBuf[0] * MT_ZDO_BEACON_IND_LEN + 1), pBeaconIndBuf);
        ; Setup parameters for call to function MT_BuildAndSendZToolResponse
        LCALL     ?Subroutine9 & 0xFFFF
??CrossCallReturnLabel_9:
        LCALL     `??MT_BuildAndSendZToolResponse::?relay`; Banked call to: MT_BuildAndSendZToolResponse
// 1701       pBeaconIndBuf[0] = 0; // Reset the devCnt back to zero
        LCALL     ?Subroutine25 & 0xFFFF
// 1702     }
// 1703   }
??CrossCallReturnLabel_147:
        CLR       A
        SJMP      ??MT_ZdoBeaconIndCB_5
// 1704   else
// 1705   {
// 1706     if( (pBeaconIndBuf != NULL) && (pBeaconIndBuf[0] != 0) )
??MT_ZdoBeaconIndCB_0:
        LCALL     ??Subroutine72_0 & 0xFFFF
??CrossCallReturnLabel_149:
        JZ        ??MT_ZdoBeaconIndCB_2
        LCALL     ??Subroutine71_0 & 0xFFFF
??CrossCallReturnLabel_145:
        MOVX      A,@DPTR
        JZ        ??MT_ZdoBeaconIndCB_6
// 1707     {
// 1708       // End of beacon indication, send the packet over MT
// 1709       MT_BuildAndSendZToolResponse(((uint8)MT_RPC_CMD_AREQ | (uint8)MT_RPC_SYS_ZDO),
// 1710                                    MT_ZDO_BEACON_NOTIFY_IND,
// 1711                                    (pBeaconIndBuf[0] * MT_ZDO_BEACON_IND_LEN + 1), pBeaconIndBuf);
        ; Setup parameters for call to function MT_BuildAndSendZToolResponse
        LCALL     ?Subroutine9 & 0xFFFF
// 1712     }
??CrossCallReturnLabel_10:
        LCALL     `??MT_BuildAndSendZToolResponse::?relay`; Banked call to: MT_BuildAndSendZToolResponse
// 1713     // Free the allocated memory
// 1714     if(pBeaconIndBuf != NULL)
        LCALL     ?Subroutine14 & 0xFFFF
??CrossCallReturnLabel_151:
        JZ        ??MT_ZdoBeaconIndCB_2
// 1715     {
// 1716       osal_mem_free(pBeaconIndBuf);
??MT_ZdoBeaconIndCB_6:
        ; Setup parameters for call to function osal_mem_free
        MOV       DPTR,#pBeaconIndBuf
        MOVX      A,@DPTR
        MOV       R2,A
        INC       DPTR
        MOVX      A,@DPTR
        MOV       R3,A
        LCALL     `??osal_mem_free::?relay`; Banked call to: osal_mem_free
// 1717       pBeaconIndBuf = NULL;
        MOV       DPTR,#pBeaconIndBuf
        CLR       A
        MOVX      @DPTR,A
        INC       DPTR
??MT_ZdoBeaconIndCB_5:
        MOVX      @DPTR,A
// 1718     }
// 1719   }
// 1720 
// 1721   return NULL;
??MT_ZdoBeaconIndCB_2:
        MOV       R2,#0x0
        MOV       R3,#0x0
        MOV       R7,#0x3
        LJMP      ?BANKED_LEAVE_XDATA
// 1722 }
          CFI EndBlock cfiBlock198

        RSEG BANKED_CODE:HUGECODE:NOROOT(0)
?Subroutine41:
          CFI Block cfiCond199 Using cfiCommon0
          CFI Function MT_ZdoJoinReq
          CFI Conditional ??CrossCallReturnLabel_74
          CFI R6 load(1, XDATA, add(CFA_XSP16, literal(-12)))
          CFI VB load(1, XDATA, add(CFA_XSP16, literal(-11)))
          CFI V0 load(1, XDATA, add(CFA_XSP16, literal(-10)))
          CFI V1 load(1, XDATA, add(CFA_XSP16, literal(-9)))
          CFI V2 load(1, XDATA, add(CFA_XSP16, literal(-8)))
          CFI V3 load(1, XDATA, add(CFA_XSP16, literal(-7)))
          CFI R7 load(1, XDATA, add(CFA_XSP16, literal(-6)))
          CFI ?RET_LOW load(1, XDATA, add(CFA_XSP16, literal(-5)))
          CFI ?RET_HIGH load(1, XDATA, add(CFA_XSP16, literal(-4)))
          CFI ?BRET_EXT load(1, XDATA, add(CFA_XSP16, literal(-3)))
          CFI DPL0 load(1, XDATA, add(CFA_XSP16, literal(-2)))
          CFI DPH0 load(1, XDATA, add(CFA_XSP16, literal(-1)))
          CFI CFA_SP SP+-2
          CFI CFA_XSP16 add(XSP16, 15)
          CFI Block cfiCond200 Using cfiCommon0
          CFI (cfiCond200) Function MT_ZdoBeaconIndCB
          CFI (cfiCond200) Conditional ??CrossCallReturnLabel_75
          CFI (cfiCond200) R6 load(1, XDATA, add(CFA_XSP16, literal(-11)))
          CFI (cfiCond200) VB load(1, XDATA, add(CFA_XSP16, literal(-10)))
          CFI (cfiCond200) V0 load(1, XDATA, add(CFA_XSP16, literal(-9)))
          CFI (cfiCond200) V1 load(1, XDATA, add(CFA_XSP16, literal(-8)))
          CFI (cfiCond200) V2 load(1, XDATA, add(CFA_XSP16, literal(-7)))
          CFI (cfiCond200) R7 load(1, XDATA, add(CFA_XSP16, literal(-6)))
          CFI (cfiCond200) ?RET_LOW load(1, XDATA, add(CFA_XSP16, literal(-5)))
          CFI (cfiCond200) ?RET_HIGH load(1, XDATA, add(CFA_XSP16, literal(-4)))
          CFI (cfiCond200) ?BRET_EXT load(1, XDATA, add(CFA_XSP16, literal(-3)))
          CFI (cfiCond200) DPL0 load(1, XDATA, add(CFA_XSP16, literal(-2)))
          CFI (cfiCond200) DPH0 load(1, XDATA, add(CFA_XSP16, literal(-1)))
          CFI (cfiCond200) CFA_SP SP+-2
          CFI (cfiCond200) CFA_XSP16 add(XSP16, 11)
          CFI Block cfiPicker201 Using cfiCommon1
          CFI (cfiPicker201) NoFunction
          CFI (cfiPicker201) Picker
        MOV       A,R6
        ADD       A,#0xc
        MOV       DPL,A
        CLR       A
        ADDC      A,R7
        MOV       DPH,A
        MOVX      A,@DPTR
        RET
          CFI EndBlock cfiCond199
          CFI EndBlock cfiCond200
          CFI EndBlock cfiPicker201

        RSEG BANKED_CODE:HUGECODE:NOROOT(0)
?Subroutine40:
          CFI Block cfiCond202 Using cfiCommon0
          CFI Function MT_ZdoJoinReq
          CFI Conditional ??CrossCallReturnLabel_72
          CFI R6 load(1, XDATA, add(CFA_XSP16, literal(-12)))
          CFI VB load(1, XDATA, add(CFA_XSP16, literal(-11)))
          CFI V0 load(1, XDATA, add(CFA_XSP16, literal(-10)))
          CFI V1 load(1, XDATA, add(CFA_XSP16, literal(-9)))
          CFI V2 load(1, XDATA, add(CFA_XSP16, literal(-8)))
          CFI V3 load(1, XDATA, add(CFA_XSP16, literal(-7)))
          CFI R7 load(1, XDATA, add(CFA_XSP16, literal(-6)))
          CFI ?RET_LOW load(1, XDATA, add(CFA_XSP16, literal(-5)))
          CFI ?RET_HIGH load(1, XDATA, add(CFA_XSP16, literal(-4)))
          CFI ?BRET_EXT load(1, XDATA, add(CFA_XSP16, literal(-3)))
          CFI DPL0 load(1, XDATA, add(CFA_XSP16, literal(-2)))
          CFI DPH0 load(1, XDATA, add(CFA_XSP16, literal(-1)))
          CFI CFA_SP SP+-2
          CFI CFA_XSP16 add(XSP16, 15)
          CFI Block cfiCond203 Using cfiCommon0
          CFI (cfiCond203) Function MT_ZdoBeaconIndCB
          CFI (cfiCond203) Conditional ??CrossCallReturnLabel_73
          CFI (cfiCond203) R6 load(1, XDATA, add(CFA_XSP16, literal(-11)))
          CFI (cfiCond203) VB load(1, XDATA, add(CFA_XSP16, literal(-10)))
          CFI (cfiCond203) V0 load(1, XDATA, add(CFA_XSP16, literal(-9)))
          CFI (cfiCond203) V1 load(1, XDATA, add(CFA_XSP16, literal(-8)))
          CFI (cfiCond203) V2 load(1, XDATA, add(CFA_XSP16, literal(-7)))
          CFI (cfiCond203) R7 load(1, XDATA, add(CFA_XSP16, literal(-6)))
          CFI (cfiCond203) ?RET_LOW load(1, XDATA, add(CFA_XSP16, literal(-5)))
          CFI (cfiCond203) ?RET_HIGH load(1, XDATA, add(CFA_XSP16, literal(-4)))
          CFI (cfiCond203) ?BRET_EXT load(1, XDATA, add(CFA_XSP16, literal(-3)))
          CFI (cfiCond203) DPL0 load(1, XDATA, add(CFA_XSP16, literal(-2)))
          CFI (cfiCond203) DPH0 load(1, XDATA, add(CFA_XSP16, literal(-1)))
          CFI (cfiCond203) CFA_SP SP+-2
          CFI (cfiCond203) CFA_XSP16 add(XSP16, 11)
          CFI Block cfiPicker204 Using cfiCommon1
          CFI (cfiPicker204) NoFunction
          CFI (cfiPicker204) Picker
        MOV       A,R6
        ADD       A,#0xb
        MOV       DPL,A
        CLR       A
        ADDC      A,R7
        MOV       DPH,A
        MOVX      A,@DPTR
        RET
          CFI EndBlock cfiCond202
          CFI EndBlock cfiCond203
          CFI EndBlock cfiPicker204

        RSEG BANKED_CODE:HUGECODE:NOROOT(0)
?Subroutine38:
          CFI Block cfiCond205 Using cfiCommon0
          CFI Function MT_ZdoBeaconIndCB
          CFI Conditional ??CrossCallReturnLabel_140
          CFI R6 load(1, XDATA, add(CFA_XSP16, literal(-11)))
          CFI VB load(1, XDATA, add(CFA_XSP16, literal(-10)))
          CFI V0 load(1, XDATA, add(CFA_XSP16, literal(-9)))
          CFI V1 load(1, XDATA, add(CFA_XSP16, literal(-8)))
          CFI V2 load(1, XDATA, add(CFA_XSP16, literal(-7)))
          CFI R7 load(1, XDATA, add(CFA_XSP16, literal(-6)))
          CFI ?RET_LOW load(1, XDATA, add(CFA_XSP16, literal(-5)))
          CFI ?RET_HIGH load(1, XDATA, add(CFA_XSP16, literal(-4)))
          CFI ?BRET_EXT load(1, XDATA, add(CFA_XSP16, literal(-3)))
          CFI DPL0 load(1, XDATA, add(CFA_XSP16, literal(-2)))
          CFI DPH0 load(1, XDATA, add(CFA_XSP16, literal(-1)))
          CFI CFA_SP SP+-2
          CFI CFA_XSP16 add(XSP16, 11)
          CFI Block cfiCond206 Using cfiCommon0
          CFI (cfiCond206) Function MT_ZdoBeaconIndCB
          CFI (cfiCond206) Conditional ??CrossCallReturnLabel_141
          CFI (cfiCond206) R6 load(1, XDATA, add(CFA_XSP16, literal(-11)))
          CFI (cfiCond206) VB load(1, XDATA, add(CFA_XSP16, literal(-10)))
          CFI (cfiCond206) V0 load(1, XDATA, add(CFA_XSP16, literal(-9)))
          CFI (cfiCond206) V1 load(1, XDATA, add(CFA_XSP16, literal(-8)))
          CFI (cfiCond206) V2 load(1, XDATA, add(CFA_XSP16, literal(-7)))
          CFI (cfiCond206) R7 load(1, XDATA, add(CFA_XSP16, literal(-6)))
          CFI (cfiCond206) ?RET_LOW load(1, XDATA, add(CFA_XSP16, literal(-5)))
          CFI (cfiCond206) ?RET_HIGH load(1, XDATA, add(CFA_XSP16, literal(-4)))
          CFI (cfiCond206) ?BRET_EXT load(1, XDATA, add(CFA_XSP16, literal(-3)))
          CFI (cfiCond206) DPL0 load(1, XDATA, add(CFA_XSP16, literal(-2)))
          CFI (cfiCond206) DPH0 load(1, XDATA, add(CFA_XSP16, literal(-1)))
          CFI (cfiCond206) CFA_SP SP+-2
          CFI (cfiCond206) CFA_XSP16 add(XSP16, 11)
          CFI Block cfiCond207 Using cfiCommon0
          CFI (cfiCond207) Function MT_ZdoBeaconIndCB
          CFI (cfiCond207) Conditional ??CrossCallReturnLabel_142
          CFI (cfiCond207) R6 load(1, XDATA, add(CFA_XSP16, literal(-11)))
          CFI (cfiCond207) VB load(1, XDATA, add(CFA_XSP16, literal(-10)))
          CFI (cfiCond207) V0 load(1, XDATA, add(CFA_XSP16, literal(-9)))
          CFI (cfiCond207) V1 load(1, XDATA, add(CFA_XSP16, literal(-8)))
          CFI (cfiCond207) V2 load(1, XDATA, add(CFA_XSP16, literal(-7)))
          CFI (cfiCond207) R7 load(1, XDATA, add(CFA_XSP16, literal(-6)))
          CFI (cfiCond207) ?RET_LOW load(1, XDATA, add(CFA_XSP16, literal(-5)))
          CFI (cfiCond207) ?RET_HIGH load(1, XDATA, add(CFA_XSP16, literal(-4)))
          CFI (cfiCond207) ?BRET_EXT load(1, XDATA, add(CFA_XSP16, literal(-3)))
          CFI (cfiCond207) DPL0 load(1, XDATA, add(CFA_XSP16, literal(-2)))
          CFI (cfiCond207) DPH0 load(1, XDATA, add(CFA_XSP16, literal(-1)))
          CFI (cfiCond207) CFA_SP SP+-2
          CFI (cfiCond207) CFA_XSP16 add(XSP16, 11)
          CFI Block cfiPicker208 Using cfiCommon1
          CFI (cfiPicker208) NoFunction
          CFI (cfiPicker208) Picker
        INC       DPTR
          CFI EndBlock cfiCond205
          CFI EndBlock cfiCond206
          CFI EndBlock cfiCond207
          CFI EndBlock cfiPicker208
        REQUIRE ??Subroutine70_0
        ; // Fall through to label ??Subroutine70_0

        RSEG BANKED_CODE:HUGECODE:NOROOT(0)
??Subroutine70_0:
          CFI Block cfiCond209 Using cfiCommon0
          CFI Function MT_ZdoEndDevBindRequest
          CFI Conditional ??CrossCallReturnLabel_143
          CFI R6 load(1, XDATA, add(CFA_XSP16, literal(-15)))
          CFI VB load(1, XDATA, add(CFA_XSP16, literal(-14)))
          CFI V0 load(1, XDATA, add(CFA_XSP16, literal(-13)))
          CFI V1 load(1, XDATA, add(CFA_XSP16, literal(-12)))
          CFI V2 load(1, XDATA, add(CFA_XSP16, literal(-11)))
          CFI V3 load(1, XDATA, add(CFA_XSP16, literal(-10)))
          CFI V4 load(1, XDATA, add(CFA_XSP16, literal(-9)))
          CFI V5 load(1, XDATA, add(CFA_XSP16, literal(-8)))
          CFI V6 load(1, XDATA, add(CFA_XSP16, literal(-7)))
          CFI R7 load(1, XDATA, add(CFA_XSP16, literal(-6)))
          CFI ?RET_LOW load(1, XDATA, add(CFA_XSP16, literal(-5)))
          CFI ?RET_HIGH load(1, XDATA, add(CFA_XSP16, literal(-4)))
          CFI ?BRET_EXT load(1, XDATA, add(CFA_XSP16, literal(-3)))
          CFI DPL0 load(1, XDATA, add(CFA_XSP16, literal(-2)))
          CFI DPH0 load(1, XDATA, add(CFA_XSP16, literal(-1)))
          CFI CFA_SP SP+-2
          CFI CFA_XSP16 add(XSP16, 85)
          CFI Block cfiCond210 Using cfiCommon0
          CFI (cfiCond210) Function MT_ZdoBeaconIndCB
          CFI (cfiCond210) Conditional ??CrossCallReturnLabel_140
          CFI (cfiCond210) R6 load(1, XDATA, add(CFA_XSP16, literal(-11)))
          CFI (cfiCond210) VB load(1, XDATA, add(CFA_XSP16, literal(-10)))
          CFI (cfiCond210) V0 load(1, XDATA, add(CFA_XSP16, literal(-9)))
          CFI (cfiCond210) V1 load(1, XDATA, add(CFA_XSP16, literal(-8)))
          CFI (cfiCond210) V2 load(1, XDATA, add(CFA_XSP16, literal(-7)))
          CFI (cfiCond210) R7 load(1, XDATA, add(CFA_XSP16, literal(-6)))
          CFI (cfiCond210) ?RET_LOW load(1, XDATA, add(CFA_XSP16, literal(-5)))
          CFI (cfiCond210) ?RET_HIGH load(1, XDATA, add(CFA_XSP16, literal(-4)))
          CFI (cfiCond210) ?BRET_EXT load(1, XDATA, add(CFA_XSP16, literal(-3)))
          CFI (cfiCond210) DPL0 load(1, XDATA, add(CFA_XSP16, literal(-2)))
          CFI (cfiCond210) DPH0 load(1, XDATA, add(CFA_XSP16, literal(-1)))
          CFI (cfiCond210) CFA_SP SP+-2
          CFI (cfiCond210) CFA_XSP16 add(XSP16, 11)
          CFI Block cfiCond211 Using cfiCommon0
          CFI (cfiCond211) Function MT_ZdoBeaconIndCB
          CFI (cfiCond211) Conditional ??CrossCallReturnLabel_141
          CFI (cfiCond211) R6 load(1, XDATA, add(CFA_XSP16, literal(-11)))
          CFI (cfiCond211) VB load(1, XDATA, add(CFA_XSP16, literal(-10)))
          CFI (cfiCond211) V0 load(1, XDATA, add(CFA_XSP16, literal(-9)))
          CFI (cfiCond211) V1 load(1, XDATA, add(CFA_XSP16, literal(-8)))
          CFI (cfiCond211) V2 load(1, XDATA, add(CFA_XSP16, literal(-7)))
          CFI (cfiCond211) R7 load(1, XDATA, add(CFA_XSP16, literal(-6)))
          CFI (cfiCond211) ?RET_LOW load(1, XDATA, add(CFA_XSP16, literal(-5)))
          CFI (cfiCond211) ?RET_HIGH load(1, XDATA, add(CFA_XSP16, literal(-4)))
          CFI (cfiCond211) ?BRET_EXT load(1, XDATA, add(CFA_XSP16, literal(-3)))
          CFI (cfiCond211) DPL0 load(1, XDATA, add(CFA_XSP16, literal(-2)))
          CFI (cfiCond211) DPH0 load(1, XDATA, add(CFA_XSP16, literal(-1)))
          CFI (cfiCond211) CFA_SP SP+-2
          CFI (cfiCond211) CFA_XSP16 add(XSP16, 11)
          CFI Block cfiCond212 Using cfiCommon0
          CFI (cfiCond212) Function MT_ZdoBeaconIndCB
          CFI (cfiCond212) Conditional ??CrossCallReturnLabel_142
          CFI (cfiCond212) R6 load(1, XDATA, add(CFA_XSP16, literal(-11)))
          CFI (cfiCond212) VB load(1, XDATA, add(CFA_XSP16, literal(-10)))
          CFI (cfiCond212) V0 load(1, XDATA, add(CFA_XSP16, literal(-9)))
          CFI (cfiCond212) V1 load(1, XDATA, add(CFA_XSP16, literal(-8)))
          CFI (cfiCond212) V2 load(1, XDATA, add(CFA_XSP16, literal(-7)))
          CFI (cfiCond212) R7 load(1, XDATA, add(CFA_XSP16, literal(-6)))
          CFI (cfiCond212) ?RET_LOW load(1, XDATA, add(CFA_XSP16, literal(-5)))
          CFI (cfiCond212) ?RET_HIGH load(1, XDATA, add(CFA_XSP16, literal(-4)))
          CFI (cfiCond212) ?BRET_EXT load(1, XDATA, add(CFA_XSP16, literal(-3)))
          CFI (cfiCond212) DPL0 load(1, XDATA, add(CFA_XSP16, literal(-2)))
          CFI (cfiCond212) DPH0 load(1, XDATA, add(CFA_XSP16, literal(-1)))
          CFI (cfiCond212) CFA_SP SP+-2
          CFI (cfiCond212) CFA_XSP16 add(XSP16, 11)
          CFI Block cfiPicker213 Using cfiCommon1
          CFI (cfiPicker213) NoFunction
          CFI (cfiPicker213) Picker
        MOVX      @DPTR,A
        MOV       DPL,R6
        MOV       DPH,R7
        RET
          CFI EndBlock cfiCond209
          CFI EndBlock cfiCond210
          CFI EndBlock cfiCond211
          CFI EndBlock cfiCond212
          CFI EndBlock cfiPicker213

        RSEG BANKED_CODE:HUGECODE:NOROOT(0)
?Subroutine27:
          CFI Block cfiCond214 Using cfiCommon0
          CFI Function MT_ZdoBeaconIndCB
          CFI Conditional ??CrossCallReturnLabel_40
          CFI R6 load(1, XDATA, add(CFA_XSP16, literal(-11)))
          CFI VB load(1, XDATA, add(CFA_XSP16, literal(-10)))
          CFI V0 load(1, XDATA, add(CFA_XSP16, literal(-9)))
          CFI V1 load(1, XDATA, add(CFA_XSP16, literal(-8)))
          CFI V2 load(1, XDATA, add(CFA_XSP16, literal(-7)))
          CFI R7 load(1, XDATA, add(CFA_XSP16, literal(-6)))
          CFI ?RET_LOW load(1, XDATA, add(CFA_XSP16, literal(-5)))
          CFI ?RET_HIGH load(1, XDATA, add(CFA_XSP16, literal(-4)))
          CFI ?BRET_EXT load(1, XDATA, add(CFA_XSP16, literal(-3)))
          CFI DPL0 load(1, XDATA, add(CFA_XSP16, literal(-2)))
          CFI DPH0 load(1, XDATA, add(CFA_XSP16, literal(-1)))
          CFI CFA_SP SP+-2
          CFI CFA_XSP16 add(XSP16, 11)
          CFI Block cfiCond215 Using cfiCommon0
          CFI (cfiCond215) Function MT_ZdoBeaconIndCB
          CFI (cfiCond215) Conditional ??CrossCallReturnLabel_41
          CFI (cfiCond215) R6 load(1, XDATA, add(CFA_XSP16, literal(-11)))
          CFI (cfiCond215) VB load(1, XDATA, add(CFA_XSP16, literal(-10)))
          CFI (cfiCond215) V0 load(1, XDATA, add(CFA_XSP16, literal(-9)))
          CFI (cfiCond215) V1 load(1, XDATA, add(CFA_XSP16, literal(-8)))
          CFI (cfiCond215) V2 load(1, XDATA, add(CFA_XSP16, literal(-7)))
          CFI (cfiCond215) R7 load(1, XDATA, add(CFA_XSP16, literal(-6)))
          CFI (cfiCond215) ?RET_LOW load(1, XDATA, add(CFA_XSP16, literal(-5)))
          CFI (cfiCond215) ?RET_HIGH load(1, XDATA, add(CFA_XSP16, literal(-4)))
          CFI (cfiCond215) ?BRET_EXT load(1, XDATA, add(CFA_XSP16, literal(-3)))
          CFI (cfiCond215) DPL0 load(1, XDATA, add(CFA_XSP16, literal(-2)))
          CFI (cfiCond215) DPH0 load(1, XDATA, add(CFA_XSP16, literal(-1)))
          CFI (cfiCond215) CFA_SP SP+-2
          CFI (cfiCond215) CFA_XSP16 add(XSP16, 11)
          CFI Block cfiPicker216 Using cfiCommon1
          CFI (cfiPicker216) NoFunction
          CFI (cfiPicker216) Picker
        LCALL     ?Subroutine52 & 0xFFFF
??CrossCallReturnLabel_96:
        RET
          CFI EndBlock cfiCond214
          CFI EndBlock cfiCond215
          CFI EndBlock cfiPicker216

        RSEG BANKED_CODE:HUGECODE:NOROOT(0)
?Subroutine52:
          CFI Block cfiCond217 Using cfiCommon0
          CFI Function MT_ZdoBeaconIndCB
          CFI Conditional ??CrossCallReturnLabel_96, ??CrossCallReturnLabel_40
          CFI R6 load(1, XDATA, add(CFA_XSP16, literal(-11)))
          CFI VB load(1, XDATA, add(CFA_XSP16, literal(-10)))
          CFI V0 load(1, XDATA, add(CFA_XSP16, literal(-9)))
          CFI V1 load(1, XDATA, add(CFA_XSP16, literal(-8)))
          CFI V2 load(1, XDATA, add(CFA_XSP16, literal(-7)))
          CFI R7 load(1, XDATA, add(CFA_XSP16, literal(-6)))
          CFI ?RET_LOW load(1, XDATA, add(CFA_XSP16, literal(-5)))
          CFI ?RET_HIGH load(1, XDATA, add(CFA_XSP16, literal(-4)))
          CFI ?BRET_EXT load(1, XDATA, add(CFA_XSP16, literal(-3)))
          CFI DPL0 load(1, XDATA, add(CFA_XSP16, literal(-2)))
          CFI DPH0 load(1, XDATA, add(CFA_XSP16, literal(-1)))
          CFI CFA_SP SP+-4
          CFI CFA_XSP16 add(XSP16, 11)
          CFI Block cfiCond218 Using cfiCommon0
          CFI (cfiCond218) Function MT_ZdoBeaconIndCB
          CFI (cfiCond218) Conditional ??CrossCallReturnLabel_96, ??CrossCallReturnLabel_41
          CFI (cfiCond218) R6 load(1, XDATA, add(CFA_XSP16, literal(-11)))
          CFI (cfiCond218) VB load(1, XDATA, add(CFA_XSP16, literal(-10)))
          CFI (cfiCond218) V0 load(1, XDATA, add(CFA_XSP16, literal(-9)))
          CFI (cfiCond218) V1 load(1, XDATA, add(CFA_XSP16, literal(-8)))
          CFI (cfiCond218) V2 load(1, XDATA, add(CFA_XSP16, literal(-7)))
          CFI (cfiCond218) R7 load(1, XDATA, add(CFA_XSP16, literal(-6)))
          CFI (cfiCond218) ?RET_LOW load(1, XDATA, add(CFA_XSP16, literal(-5)))
          CFI (cfiCond218) ?RET_HIGH load(1, XDATA, add(CFA_XSP16, literal(-4)))
          CFI (cfiCond218) ?BRET_EXT load(1, XDATA, add(CFA_XSP16, literal(-3)))
          CFI (cfiCond218) DPL0 load(1, XDATA, add(CFA_XSP16, literal(-2)))
          CFI (cfiCond218) DPH0 load(1, XDATA, add(CFA_XSP16, literal(-1)))
          CFI (cfiCond218) CFA_SP SP+-4
          CFI (cfiCond218) CFA_XSP16 add(XSP16, 11)
          CFI Block cfiCond219 Using cfiCommon0
          CFI (cfiCond219) Function MT_ZdoBeaconIndCB
          CFI (cfiCond219) Conditional ??CrossCallReturnLabel_95, ??CrossCallReturnLabel_32
          CFI (cfiCond219) R6 load(1, XDATA, add(CFA_XSP16, literal(-11)))
          CFI (cfiCond219) VB load(1, XDATA, add(CFA_XSP16, literal(-10)))
          CFI (cfiCond219) V0 load(1, XDATA, add(CFA_XSP16, literal(-9)))
          CFI (cfiCond219) V1 load(1, XDATA, add(CFA_XSP16, literal(-8)))
          CFI (cfiCond219) V2 load(1, XDATA, add(CFA_XSP16, literal(-7)))
          CFI (cfiCond219) R7 load(1, XDATA, add(CFA_XSP16, literal(-6)))
          CFI (cfiCond219) ?RET_LOW load(1, XDATA, add(CFA_XSP16, literal(-5)))
          CFI (cfiCond219) ?RET_HIGH load(1, XDATA, add(CFA_XSP16, literal(-4)))
          CFI (cfiCond219) ?BRET_EXT load(1, XDATA, add(CFA_XSP16, literal(-3)))
          CFI (cfiCond219) DPL0 load(1, XDATA, add(CFA_XSP16, literal(-2)))
          CFI (cfiCond219) DPH0 load(1, XDATA, add(CFA_XSP16, literal(-1)))
          CFI (cfiCond219) CFA_SP SP+-4
          CFI (cfiCond219) CFA_XSP16 add(XSP16, 11)
          CFI Block cfiCond220 Using cfiCommon0
          CFI (cfiCond220) Function MT_ZdoBeaconIndCB
          CFI (cfiCond220) Conditional ??CrossCallReturnLabel_95, ??CrossCallReturnLabel_33
          CFI (cfiCond220) R6 load(1, XDATA, add(CFA_XSP16, literal(-11)))
          CFI (cfiCond220) VB load(1, XDATA, add(CFA_XSP16, literal(-10)))
          CFI (cfiCond220) V0 load(1, XDATA, add(CFA_XSP16, literal(-9)))
          CFI (cfiCond220) V1 load(1, XDATA, add(CFA_XSP16, literal(-8)))
          CFI (cfiCond220) V2 load(1, XDATA, add(CFA_XSP16, literal(-7)))
          CFI (cfiCond220) R7 load(1, XDATA, add(CFA_XSP16, literal(-6)))
          CFI (cfiCond220) ?RET_LOW load(1, XDATA, add(CFA_XSP16, literal(-5)))
          CFI (cfiCond220) ?RET_HIGH load(1, XDATA, add(CFA_XSP16, literal(-4)))
          CFI (cfiCond220) ?BRET_EXT load(1, XDATA, add(CFA_XSP16, literal(-3)))
          CFI (cfiCond220) DPL0 load(1, XDATA, add(CFA_XSP16, literal(-2)))
          CFI (cfiCond220) DPH0 load(1, XDATA, add(CFA_XSP16, literal(-1)))
          CFI (cfiCond220) CFA_SP SP+-4
          CFI (cfiCond220) CFA_XSP16 add(XSP16, 11)
          CFI Block cfiPicker221 Using cfiCommon1
          CFI (cfiPicker221) NoFunction
          CFI (cfiPicker221) Picker
        LCALL     ?Subroutine57 & 0xFFFF
??CrossCallReturnLabel_106:
        RET
          CFI EndBlock cfiCond217
          CFI EndBlock cfiCond218
          CFI EndBlock cfiCond219
          CFI EndBlock cfiCond220
          CFI EndBlock cfiPicker221

        RSEG BANKED_CODE:HUGECODE:NOROOT(0)
?Subroutine57:
          CFI Block cfiCond222 Using cfiCommon0
          CFI Function MT_ZdoBeaconIndCB
          CFI Conditional ??CrossCallReturnLabel_106, ??CrossCallReturnLabel_96, ??CrossCallReturnLabel_40
          CFI R6 load(1, XDATA, add(CFA_XSP16, literal(-11)))
          CFI VB load(1, XDATA, add(CFA_XSP16, literal(-10)))
          CFI V0 load(1, XDATA, add(CFA_XSP16, literal(-9)))
          CFI V1 load(1, XDATA, add(CFA_XSP16, literal(-8)))
          CFI V2 load(1, XDATA, add(CFA_XSP16, literal(-7)))
          CFI R7 load(1, XDATA, add(CFA_XSP16, literal(-6)))
          CFI ?RET_LOW load(1, XDATA, add(CFA_XSP16, literal(-5)))
          CFI ?RET_HIGH load(1, XDATA, add(CFA_XSP16, literal(-4)))
          CFI ?BRET_EXT load(1, XDATA, add(CFA_XSP16, literal(-3)))
          CFI DPL0 load(1, XDATA, add(CFA_XSP16, literal(-2)))
          CFI DPH0 load(1, XDATA, add(CFA_XSP16, literal(-1)))
          CFI CFA_SP SP+-6
          CFI CFA_XSP16 add(XSP16, 11)
          CFI Block cfiCond223 Using cfiCommon0
          CFI (cfiCond223) Function MT_ZdoBeaconIndCB
          CFI (cfiCond223) Conditional ??CrossCallReturnLabel_106, ??CrossCallReturnLabel_96, ??CrossCallReturnLabel_41
          CFI (cfiCond223) R6 load(1, XDATA, add(CFA_XSP16, literal(-11)))
          CFI (cfiCond223) VB load(1, XDATA, add(CFA_XSP16, literal(-10)))
          CFI (cfiCond223) V0 load(1, XDATA, add(CFA_XSP16, literal(-9)))
          CFI (cfiCond223) V1 load(1, XDATA, add(CFA_XSP16, literal(-8)))
          CFI (cfiCond223) V2 load(1, XDATA, add(CFA_XSP16, literal(-7)))
          CFI (cfiCond223) R7 load(1, XDATA, add(CFA_XSP16, literal(-6)))
          CFI (cfiCond223) ?RET_LOW load(1, XDATA, add(CFA_XSP16, literal(-5)))
          CFI (cfiCond223) ?RET_HIGH load(1, XDATA, add(CFA_XSP16, literal(-4)))
          CFI (cfiCond223) ?BRET_EXT load(1, XDATA, add(CFA_XSP16, literal(-3)))
          CFI (cfiCond223) DPL0 load(1, XDATA, add(CFA_XSP16, literal(-2)))
          CFI (cfiCond223) DPH0 load(1, XDATA, add(CFA_XSP16, literal(-1)))
          CFI (cfiCond223) CFA_SP SP+-6
          CFI (cfiCond223) CFA_XSP16 add(XSP16, 11)
          CFI Block cfiCond224 Using cfiCommon0
          CFI (cfiCond224) Function MT_ZdoBeaconIndCB
          CFI (cfiCond224) Conditional ??CrossCallReturnLabel_106, ??CrossCallReturnLabel_95, ??CrossCallReturnLabel_32
          CFI (cfiCond224) R6 load(1, XDATA, add(CFA_XSP16, literal(-11)))
          CFI (cfiCond224) VB load(1, XDATA, add(CFA_XSP16, literal(-10)))
          CFI (cfiCond224) V0 load(1, XDATA, add(CFA_XSP16, literal(-9)))
          CFI (cfiCond224) V1 load(1, XDATA, add(CFA_XSP16, literal(-8)))
          CFI (cfiCond224) V2 load(1, XDATA, add(CFA_XSP16, literal(-7)))
          CFI (cfiCond224) R7 load(1, XDATA, add(CFA_XSP16, literal(-6)))
          CFI (cfiCond224) ?RET_LOW load(1, XDATA, add(CFA_XSP16, literal(-5)))
          CFI (cfiCond224) ?RET_HIGH load(1, XDATA, add(CFA_XSP16, literal(-4)))
          CFI (cfiCond224) ?BRET_EXT load(1, XDATA, add(CFA_XSP16, literal(-3)))
          CFI (cfiCond224) DPL0 load(1, XDATA, add(CFA_XSP16, literal(-2)))
          CFI (cfiCond224) DPH0 load(1, XDATA, add(CFA_XSP16, literal(-1)))
          CFI (cfiCond224) CFA_SP SP+-6
          CFI (cfiCond224) CFA_XSP16 add(XSP16, 11)
          CFI Block cfiCond225 Using cfiCommon0
          CFI (cfiCond225) Function MT_ZdoBeaconIndCB
          CFI (cfiCond225) Conditional ??CrossCallReturnLabel_106, ??CrossCallReturnLabel_95, ??CrossCallReturnLabel_33
          CFI (cfiCond225) R6 load(1, XDATA, add(CFA_XSP16, literal(-11)))
          CFI (cfiCond225) VB load(1, XDATA, add(CFA_XSP16, literal(-10)))
          CFI (cfiCond225) V0 load(1, XDATA, add(CFA_XSP16, literal(-9)))
          CFI (cfiCond225) V1 load(1, XDATA, add(CFA_XSP16, literal(-8)))
          CFI (cfiCond225) V2 load(1, XDATA, add(CFA_XSP16, literal(-7)))
          CFI (cfiCond225) R7 load(1, XDATA, add(CFA_XSP16, literal(-6)))
          CFI (cfiCond225) ?RET_LOW load(1, XDATA, add(CFA_XSP16, literal(-5)))
          CFI (cfiCond225) ?RET_HIGH load(1, XDATA, add(CFA_XSP16, literal(-4)))
          CFI (cfiCond225) ?BRET_EXT load(1, XDATA, add(CFA_XSP16, literal(-3)))
          CFI (cfiCond225) DPL0 load(1, XDATA, add(CFA_XSP16, literal(-2)))
          CFI (cfiCond225) DPH0 load(1, XDATA, add(CFA_XSP16, literal(-1)))
          CFI (cfiCond225) CFA_SP SP+-6
          CFI (cfiCond225) CFA_XSP16 add(XSP16, 11)
          CFI Block cfiCond226 Using cfiCommon0
          CFI (cfiCond226) Function MT_ZdoBeaconIndCB
          CFI (cfiCond226) Conditional ??CrossCallReturnLabel_105, ??CrossCallReturnLabel_88, ??CrossCallReturnLabel_26
          CFI (cfiCond226) R6 load(1, XDATA, add(CFA_XSP16, literal(-11)))
          CFI (cfiCond226) VB load(1, XDATA, add(CFA_XSP16, literal(-10)))
          CFI (cfiCond226) V0 load(1, XDATA, add(CFA_XSP16, literal(-9)))
          CFI (cfiCond226) V1 load(1, XDATA, add(CFA_XSP16, literal(-8)))
          CFI (cfiCond226) V2 load(1, XDATA, add(CFA_XSP16, literal(-7)))
          CFI (cfiCond226) R7 load(1, XDATA, add(CFA_XSP16, literal(-6)))
          CFI (cfiCond226) ?RET_LOW load(1, XDATA, add(CFA_XSP16, literal(-5)))
          CFI (cfiCond226) ?RET_HIGH load(1, XDATA, add(CFA_XSP16, literal(-4)))
          CFI (cfiCond226) ?BRET_EXT load(1, XDATA, add(CFA_XSP16, literal(-3)))
          CFI (cfiCond226) DPL0 load(1, XDATA, add(CFA_XSP16, literal(-2)))
          CFI (cfiCond226) DPH0 load(1, XDATA, add(CFA_XSP16, literal(-1)))
          CFI (cfiCond226) CFA_SP SP+-6
          CFI (cfiCond226) CFA_XSP16 add(XSP16, 11)
          CFI Block cfiCond227 Using cfiCommon0
          CFI (cfiCond227) Function MT_ZdoBeaconIndCB
          CFI (cfiCond227) Conditional ??CrossCallReturnLabel_105, ??CrossCallReturnLabel_88, ??CrossCallReturnLabel_27
          CFI (cfiCond227) R6 load(1, XDATA, add(CFA_XSP16, literal(-11)))
          CFI (cfiCond227) VB load(1, XDATA, add(CFA_XSP16, literal(-10)))
          CFI (cfiCond227) V0 load(1, XDATA, add(CFA_XSP16, literal(-9)))
          CFI (cfiCond227) V1 load(1, XDATA, add(CFA_XSP16, literal(-8)))
          CFI (cfiCond227) V2 load(1, XDATA, add(CFA_XSP16, literal(-7)))
          CFI (cfiCond227) R7 load(1, XDATA, add(CFA_XSP16, literal(-6)))
          CFI (cfiCond227) ?RET_LOW load(1, XDATA, add(CFA_XSP16, literal(-5)))
          CFI (cfiCond227) ?RET_HIGH load(1, XDATA, add(CFA_XSP16, literal(-4)))
          CFI (cfiCond227) ?BRET_EXT load(1, XDATA, add(CFA_XSP16, literal(-3)))
          CFI (cfiCond227) DPL0 load(1, XDATA, add(CFA_XSP16, literal(-2)))
          CFI (cfiCond227) DPH0 load(1, XDATA, add(CFA_XSP16, literal(-1)))
          CFI (cfiCond227) CFA_SP SP+-6
          CFI (cfiCond227) CFA_XSP16 add(XSP16, 11)
          CFI Block cfiCond228 Using cfiCommon0
          CFI (cfiCond228) Function MT_ZdoBeaconIndCB
          CFI (cfiCond228) Conditional ??CrossCallReturnLabel_105, ??CrossCallReturnLabel_87, ??CrossCallReturnLabel_17
          CFI (cfiCond228) R6 load(1, XDATA, add(CFA_XSP16, literal(-11)))
          CFI (cfiCond228) VB load(1, XDATA, add(CFA_XSP16, literal(-10)))
          CFI (cfiCond228) V0 load(1, XDATA, add(CFA_XSP16, literal(-9)))
          CFI (cfiCond228) V1 load(1, XDATA, add(CFA_XSP16, literal(-8)))
          CFI (cfiCond228) V2 load(1, XDATA, add(CFA_XSP16, literal(-7)))
          CFI (cfiCond228) R7 load(1, XDATA, add(CFA_XSP16, literal(-6)))
          CFI (cfiCond228) ?RET_LOW load(1, XDATA, add(CFA_XSP16, literal(-5)))
          CFI (cfiCond228) ?RET_HIGH load(1, XDATA, add(CFA_XSP16, literal(-4)))
          CFI (cfiCond228) ?BRET_EXT load(1, XDATA, add(CFA_XSP16, literal(-3)))
          CFI (cfiCond228) DPL0 load(1, XDATA, add(CFA_XSP16, literal(-2)))
          CFI (cfiCond228) DPH0 load(1, XDATA, add(CFA_XSP16, literal(-1)))
          CFI (cfiCond228) CFA_SP SP+-6
          CFI (cfiCond228) CFA_XSP16 add(XSP16, 11)
          CFI Block cfiCond229 Using cfiCommon0
          CFI (cfiCond229) Function MT_ZdoBeaconIndCB
          CFI (cfiCond229) Conditional ??CrossCallReturnLabel_105, ??CrossCallReturnLabel_87, ??CrossCallReturnLabel_18
          CFI (cfiCond229) R6 load(1, XDATA, add(CFA_XSP16, literal(-11)))
          CFI (cfiCond229) VB load(1, XDATA, add(CFA_XSP16, literal(-10)))
          CFI (cfiCond229) V0 load(1, XDATA, add(CFA_XSP16, literal(-9)))
          CFI (cfiCond229) V1 load(1, XDATA, add(CFA_XSP16, literal(-8)))
          CFI (cfiCond229) V2 load(1, XDATA, add(CFA_XSP16, literal(-7)))
          CFI (cfiCond229) R7 load(1, XDATA, add(CFA_XSP16, literal(-6)))
          CFI (cfiCond229) ?RET_LOW load(1, XDATA, add(CFA_XSP16, literal(-5)))
          CFI (cfiCond229) ?RET_HIGH load(1, XDATA, add(CFA_XSP16, literal(-4)))
          CFI (cfiCond229) ?BRET_EXT load(1, XDATA, add(CFA_XSP16, literal(-3)))
          CFI (cfiCond229) DPL0 load(1, XDATA, add(CFA_XSP16, literal(-2)))
          CFI (cfiCond229) DPH0 load(1, XDATA, add(CFA_XSP16, literal(-1)))
          CFI (cfiCond229) CFA_SP SP+-6
          CFI (cfiCond229) CFA_XSP16 add(XSP16, 11)
          CFI Block cfiPicker230 Using cfiCommon1
          CFI (cfiPicker230) NoFunction
          CFI (cfiPicker230) Picker
        INC       DPTR
        LCALL     ?Subroutine59 & 0xFFFF
??CrossCallReturnLabel_111:
        INC       DPTR
        INC       DPTR
        RET
          CFI EndBlock cfiCond222
          CFI EndBlock cfiCond223
          CFI EndBlock cfiCond224
          CFI EndBlock cfiCond225
          CFI EndBlock cfiCond226
          CFI EndBlock cfiCond227
          CFI EndBlock cfiCond228
          CFI EndBlock cfiCond229
          CFI EndBlock cfiPicker230

        RSEG BANKED_CODE:HUGECODE:NOROOT(0)
?Subroutine59:
          CFI Block cfiCond231 Using cfiCommon0
          CFI Function MT_ZdoBeaconIndCB
          CFI Conditional ??CrossCallReturnLabel_109
          CFI R6 load(1, XDATA, add(CFA_XSP16, literal(-11)))
          CFI VB load(1, XDATA, add(CFA_XSP16, literal(-10)))
          CFI V0 load(1, XDATA, add(CFA_XSP16, literal(-9)))
          CFI V1 load(1, XDATA, add(CFA_XSP16, literal(-8)))
          CFI V2 load(1, XDATA, add(CFA_XSP16, literal(-7)))
          CFI R7 load(1, XDATA, add(CFA_XSP16, literal(-6)))
          CFI ?RET_LOW load(1, XDATA, add(CFA_XSP16, literal(-5)))
          CFI ?RET_HIGH load(1, XDATA, add(CFA_XSP16, literal(-4)))
          CFI ?BRET_EXT load(1, XDATA, add(CFA_XSP16, literal(-3)))
          CFI DPL0 load(1, XDATA, add(CFA_XSP16, literal(-2)))
          CFI DPH0 load(1, XDATA, add(CFA_XSP16, literal(-1)))
          CFI CFA_SP SP+-2
          CFI CFA_XSP16 add(XSP16, 11)
          CFI Block cfiCond232 Using cfiCommon0
          CFI (cfiCond232) Function MT_ZdoBeaconIndCB
          CFI (cfiCond232) Conditional ??CrossCallReturnLabel_110
          CFI (cfiCond232) R6 load(1, XDATA, add(CFA_XSP16, literal(-11)))
          CFI (cfiCond232) VB load(1, XDATA, add(CFA_XSP16, literal(-10)))
          CFI (cfiCond232) V0 load(1, XDATA, add(CFA_XSP16, literal(-9)))
          CFI (cfiCond232) V1 load(1, XDATA, add(CFA_XSP16, literal(-8)))
          CFI (cfiCond232) V2 load(1, XDATA, add(CFA_XSP16, literal(-7)))
          CFI (cfiCond232) R7 load(1, XDATA, add(CFA_XSP16, literal(-6)))
          CFI (cfiCond232) ?RET_LOW load(1, XDATA, add(CFA_XSP16, literal(-5)))
          CFI (cfiCond232) ?RET_HIGH load(1, XDATA, add(CFA_XSP16, literal(-4)))
          CFI (cfiCond232) ?BRET_EXT load(1, XDATA, add(CFA_XSP16, literal(-3)))
          CFI (cfiCond232) DPL0 load(1, XDATA, add(CFA_XSP16, literal(-2)))
          CFI (cfiCond232) DPH0 load(1, XDATA, add(CFA_XSP16, literal(-1)))
          CFI (cfiCond232) CFA_SP SP+-2
          CFI (cfiCond232) CFA_XSP16 add(XSP16, 11)
          CFI Block cfiCond233 Using cfiCommon0
          CFI (cfiCond233) Function MT_ZdoBeaconIndCB
          CFI (cfiCond233) Conditional ??CrossCallReturnLabel_111, ??CrossCallReturnLabel_106, ??CrossCallReturnLabel_96, ??CrossCallReturnLabel_40
          CFI (cfiCond233) R6 load(1, XDATA, add(CFA_XSP16, literal(-11)))
          CFI (cfiCond233) VB load(1, XDATA, add(CFA_XSP16, literal(-10)))
          CFI (cfiCond233) V0 load(1, XDATA, add(CFA_XSP16, literal(-9)))
          CFI (cfiCond233) V1 load(1, XDATA, add(CFA_XSP16, literal(-8)))
          CFI (cfiCond233) V2 load(1, XDATA, add(CFA_XSP16, literal(-7)))
          CFI (cfiCond233) R7 load(1, XDATA, add(CFA_XSP16, literal(-6)))
          CFI (cfiCond233) ?RET_LOW load(1, XDATA, add(CFA_XSP16, literal(-5)))
          CFI (cfiCond233) ?RET_HIGH load(1, XDATA, add(CFA_XSP16, literal(-4)))
          CFI (cfiCond233) ?BRET_EXT load(1, XDATA, add(CFA_XSP16, literal(-3)))
          CFI (cfiCond233) DPL0 load(1, XDATA, add(CFA_XSP16, literal(-2)))
          CFI (cfiCond233) DPH0 load(1, XDATA, add(CFA_XSP16, literal(-1)))
          CFI (cfiCond233) CFA_SP SP+-8
          CFI (cfiCond233) CFA_XSP16 add(XSP16, 11)
          CFI Block cfiCond234 Using cfiCommon0
          CFI (cfiCond234) Function MT_ZdoBeaconIndCB
          CFI (cfiCond234) Conditional ??CrossCallReturnLabel_111, ??CrossCallReturnLabel_106, ??CrossCallReturnLabel_96, ??CrossCallReturnLabel_41
          CFI (cfiCond234) R6 load(1, XDATA, add(CFA_XSP16, literal(-11)))
          CFI (cfiCond234) VB load(1, XDATA, add(CFA_XSP16, literal(-10)))
          CFI (cfiCond234) V0 load(1, XDATA, add(CFA_XSP16, literal(-9)))
          CFI (cfiCond234) V1 load(1, XDATA, add(CFA_XSP16, literal(-8)))
          CFI (cfiCond234) V2 load(1, XDATA, add(CFA_XSP16, literal(-7)))
          CFI (cfiCond234) R7 load(1, XDATA, add(CFA_XSP16, literal(-6)))
          CFI (cfiCond234) ?RET_LOW load(1, XDATA, add(CFA_XSP16, literal(-5)))
          CFI (cfiCond234) ?RET_HIGH load(1, XDATA, add(CFA_XSP16, literal(-4)))
          CFI (cfiCond234) ?BRET_EXT load(1, XDATA, add(CFA_XSP16, literal(-3)))
          CFI (cfiCond234) DPL0 load(1, XDATA, add(CFA_XSP16, literal(-2)))
          CFI (cfiCond234) DPH0 load(1, XDATA, add(CFA_XSP16, literal(-1)))
          CFI (cfiCond234) CFA_SP SP+-8
          CFI (cfiCond234) CFA_XSP16 add(XSP16, 11)
          CFI Block cfiCond235 Using cfiCommon0
          CFI (cfiCond235) Function MT_ZdoBeaconIndCB
          CFI (cfiCond235) Conditional ??CrossCallReturnLabel_111, ??CrossCallReturnLabel_106, ??CrossCallReturnLabel_95, ??CrossCallReturnLabel_32
          CFI (cfiCond235) R6 load(1, XDATA, add(CFA_XSP16, literal(-11)))
          CFI (cfiCond235) VB load(1, XDATA, add(CFA_XSP16, literal(-10)))
          CFI (cfiCond235) V0 load(1, XDATA, add(CFA_XSP16, literal(-9)))
          CFI (cfiCond235) V1 load(1, XDATA, add(CFA_XSP16, literal(-8)))
          CFI (cfiCond235) V2 load(1, XDATA, add(CFA_XSP16, literal(-7)))
          CFI (cfiCond235) R7 load(1, XDATA, add(CFA_XSP16, literal(-6)))
          CFI (cfiCond235) ?RET_LOW load(1, XDATA, add(CFA_XSP16, literal(-5)))
          CFI (cfiCond235) ?RET_HIGH load(1, XDATA, add(CFA_XSP16, literal(-4)))
          CFI (cfiCond235) ?BRET_EXT load(1, XDATA, add(CFA_XSP16, literal(-3)))
          CFI (cfiCond235) DPL0 load(1, XDATA, add(CFA_XSP16, literal(-2)))
          CFI (cfiCond235) DPH0 load(1, XDATA, add(CFA_XSP16, literal(-1)))
          CFI (cfiCond235) CFA_SP SP+-8
          CFI (cfiCond235) CFA_XSP16 add(XSP16, 11)
          CFI Block cfiCond236 Using cfiCommon0
          CFI (cfiCond236) Function MT_ZdoBeaconIndCB
          CFI (cfiCond236) Conditional ??CrossCallReturnLabel_111, ??CrossCallReturnLabel_106, ??CrossCallReturnLabel_95, ??CrossCallReturnLabel_33
          CFI (cfiCond236) R6 load(1, XDATA, add(CFA_XSP16, literal(-11)))
          CFI (cfiCond236) VB load(1, XDATA, add(CFA_XSP16, literal(-10)))
          CFI (cfiCond236) V0 load(1, XDATA, add(CFA_XSP16, literal(-9)))
          CFI (cfiCond236) V1 load(1, XDATA, add(CFA_XSP16, literal(-8)))
          CFI (cfiCond236) V2 load(1, XDATA, add(CFA_XSP16, literal(-7)))
          CFI (cfiCond236) R7 load(1, XDATA, add(CFA_XSP16, literal(-6)))
          CFI (cfiCond236) ?RET_LOW load(1, XDATA, add(CFA_XSP16, literal(-5)))
          CFI (cfiCond236) ?RET_HIGH load(1, XDATA, add(CFA_XSP16, literal(-4)))
          CFI (cfiCond236) ?BRET_EXT load(1, XDATA, add(CFA_XSP16, literal(-3)))
          CFI (cfiCond236) DPL0 load(1, XDATA, add(CFA_XSP16, literal(-2)))
          CFI (cfiCond236) DPH0 load(1, XDATA, add(CFA_XSP16, literal(-1)))
          CFI (cfiCond236) CFA_SP SP+-8
          CFI (cfiCond236) CFA_XSP16 add(XSP16, 11)
          CFI Block cfiCond237 Using cfiCommon0
          CFI (cfiCond237) Function MT_ZdoBeaconIndCB
          CFI (cfiCond237) Conditional ??CrossCallReturnLabel_111, ??CrossCallReturnLabel_105, ??CrossCallReturnLabel_88, ??CrossCallReturnLabel_26
          CFI (cfiCond237) R6 load(1, XDATA, add(CFA_XSP16, literal(-11)))
          CFI (cfiCond237) VB load(1, XDATA, add(CFA_XSP16, literal(-10)))
          CFI (cfiCond237) V0 load(1, XDATA, add(CFA_XSP16, literal(-9)))
          CFI (cfiCond237) V1 load(1, XDATA, add(CFA_XSP16, literal(-8)))
          CFI (cfiCond237) V2 load(1, XDATA, add(CFA_XSP16, literal(-7)))
          CFI (cfiCond237) R7 load(1, XDATA, add(CFA_XSP16, literal(-6)))
          CFI (cfiCond237) ?RET_LOW load(1, XDATA, add(CFA_XSP16, literal(-5)))
          CFI (cfiCond237) ?RET_HIGH load(1, XDATA, add(CFA_XSP16, literal(-4)))
          CFI (cfiCond237) ?BRET_EXT load(1, XDATA, add(CFA_XSP16, literal(-3)))
          CFI (cfiCond237) DPL0 load(1, XDATA, add(CFA_XSP16, literal(-2)))
          CFI (cfiCond237) DPH0 load(1, XDATA, add(CFA_XSP16, literal(-1)))
          CFI (cfiCond237) CFA_SP SP+-8
          CFI (cfiCond237) CFA_XSP16 add(XSP16, 11)
          CFI Block cfiCond238 Using cfiCommon0
          CFI (cfiCond238) Function MT_ZdoBeaconIndCB
          CFI (cfiCond238) Conditional ??CrossCallReturnLabel_111, ??CrossCallReturnLabel_105, ??CrossCallReturnLabel_88, ??CrossCallReturnLabel_27
          CFI (cfiCond238) R6 load(1, XDATA, add(CFA_XSP16, literal(-11)))
          CFI (cfiCond238) VB load(1, XDATA, add(CFA_XSP16, literal(-10)))
          CFI (cfiCond238) V0 load(1, XDATA, add(CFA_XSP16, literal(-9)))
          CFI (cfiCond238) V1 load(1, XDATA, add(CFA_XSP16, literal(-8)))
          CFI (cfiCond238) V2 load(1, XDATA, add(CFA_XSP16, literal(-7)))
          CFI (cfiCond238) R7 load(1, XDATA, add(CFA_XSP16, literal(-6)))
          CFI (cfiCond238) ?RET_LOW load(1, XDATA, add(CFA_XSP16, literal(-5)))
          CFI (cfiCond238) ?RET_HIGH load(1, XDATA, add(CFA_XSP16, literal(-4)))
          CFI (cfiCond238) ?BRET_EXT load(1, XDATA, add(CFA_XSP16, literal(-3)))
          CFI (cfiCond238) DPL0 load(1, XDATA, add(CFA_XSP16, literal(-2)))
          CFI (cfiCond238) DPH0 load(1, XDATA, add(CFA_XSP16, literal(-1)))
          CFI (cfiCond238) CFA_SP SP+-8
          CFI (cfiCond238) CFA_XSP16 add(XSP16, 11)
          CFI Block cfiCond239 Using cfiCommon0
          CFI (cfiCond239) Function MT_ZdoBeaconIndCB
          CFI (cfiCond239) Conditional ??CrossCallReturnLabel_111, ??CrossCallReturnLabel_105, ??CrossCallReturnLabel_87, ??CrossCallReturnLabel_17
          CFI (cfiCond239) R6 load(1, XDATA, add(CFA_XSP16, literal(-11)))
          CFI (cfiCond239) VB load(1, XDATA, add(CFA_XSP16, literal(-10)))
          CFI (cfiCond239) V0 load(1, XDATA, add(CFA_XSP16, literal(-9)))
          CFI (cfiCond239) V1 load(1, XDATA, add(CFA_XSP16, literal(-8)))
          CFI (cfiCond239) V2 load(1, XDATA, add(CFA_XSP16, literal(-7)))
          CFI (cfiCond239) R7 load(1, XDATA, add(CFA_XSP16, literal(-6)))
          CFI (cfiCond239) ?RET_LOW load(1, XDATA, add(CFA_XSP16, literal(-5)))
          CFI (cfiCond239) ?RET_HIGH load(1, XDATA, add(CFA_XSP16, literal(-4)))
          CFI (cfiCond239) ?BRET_EXT load(1, XDATA, add(CFA_XSP16, literal(-3)))
          CFI (cfiCond239) DPL0 load(1, XDATA, add(CFA_XSP16, literal(-2)))
          CFI (cfiCond239) DPH0 load(1, XDATA, add(CFA_XSP16, literal(-1)))
          CFI (cfiCond239) CFA_SP SP+-8
          CFI (cfiCond239) CFA_XSP16 add(XSP16, 11)
          CFI Block cfiCond240 Using cfiCommon0
          CFI (cfiCond240) Function MT_ZdoBeaconIndCB
          CFI (cfiCond240) Conditional ??CrossCallReturnLabel_111, ??CrossCallReturnLabel_105, ??CrossCallReturnLabel_87, ??CrossCallReturnLabel_18
          CFI (cfiCond240) R6 load(1, XDATA, add(CFA_XSP16, literal(-11)))
          CFI (cfiCond240) VB load(1, XDATA, add(CFA_XSP16, literal(-10)))
          CFI (cfiCond240) V0 load(1, XDATA, add(CFA_XSP16, literal(-9)))
          CFI (cfiCond240) V1 load(1, XDATA, add(CFA_XSP16, literal(-8)))
          CFI (cfiCond240) V2 load(1, XDATA, add(CFA_XSP16, literal(-7)))
          CFI (cfiCond240) R7 load(1, XDATA, add(CFA_XSP16, literal(-6)))
          CFI (cfiCond240) ?RET_LOW load(1, XDATA, add(CFA_XSP16, literal(-5)))
          CFI (cfiCond240) ?RET_HIGH load(1, XDATA, add(CFA_XSP16, literal(-4)))
          CFI (cfiCond240) ?BRET_EXT load(1, XDATA, add(CFA_XSP16, literal(-3)))
          CFI (cfiCond240) DPL0 load(1, XDATA, add(CFA_XSP16, literal(-2)))
          CFI (cfiCond240) DPH0 load(1, XDATA, add(CFA_XSP16, literal(-1)))
          CFI (cfiCond240) CFA_SP SP+-8
          CFI (cfiCond240) CFA_XSP16 add(XSP16, 11)
          CFI Block cfiPicker241 Using cfiCommon1
          CFI (cfiPicker241) NoFunction
          CFI (cfiPicker241) Picker
        MOVX      A,@DPTR
        MOV       DPL,R2
        MOV       DPH,R3
        INC       DPTR
        RET
          CFI EndBlock cfiCond231
          CFI EndBlock cfiCond232
          CFI EndBlock cfiCond233
          CFI EndBlock cfiCond234
          CFI EndBlock cfiCond235
          CFI EndBlock cfiCond236
          CFI EndBlock cfiCond237
          CFI EndBlock cfiCond238
          CFI EndBlock cfiCond239
          CFI EndBlock cfiCond240
          CFI EndBlock cfiPicker241

        RSEG BANKED_CODE:HUGECODE:NOROOT(0)
?Subroutine25:
          CFI Block cfiCond242 Using cfiCommon0
          CFI Function MT_ZdoBeaconIndCB
          CFI Conditional ??CrossCallReturnLabel_146
          CFI R6 load(1, XDATA, add(CFA_XSP16, literal(-11)))
          CFI VB load(1, XDATA, add(CFA_XSP16, literal(-10)))
          CFI V0 load(1, XDATA, add(CFA_XSP16, literal(-9)))
          CFI V1 load(1, XDATA, add(CFA_XSP16, literal(-8)))
          CFI V2 load(1, XDATA, add(CFA_XSP16, literal(-7)))
          CFI R7 load(1, XDATA, add(CFA_XSP16, literal(-6)))
          CFI ?RET_LOW load(1, XDATA, add(CFA_XSP16, literal(-5)))
          CFI ?RET_HIGH load(1, XDATA, add(CFA_XSP16, literal(-4)))
          CFI ?BRET_EXT load(1, XDATA, add(CFA_XSP16, literal(-3)))
          CFI DPL0 load(1, XDATA, add(CFA_XSP16, literal(-2)))
          CFI DPH0 load(1, XDATA, add(CFA_XSP16, literal(-1)))
          CFI CFA_SP SP+-2
          CFI CFA_XSP16 add(XSP16, 11)
          CFI Block cfiCond243 Using cfiCommon0
          CFI (cfiCond243) Function MT_ZdoBeaconIndCB
          CFI (cfiCond243) Conditional ??CrossCallReturnLabel_147
          CFI (cfiCond243) R6 load(1, XDATA, add(CFA_XSP16, literal(-11)))
          CFI (cfiCond243) VB load(1, XDATA, add(CFA_XSP16, literal(-10)))
          CFI (cfiCond243) V0 load(1, XDATA, add(CFA_XSP16, literal(-9)))
          CFI (cfiCond243) V1 load(1, XDATA, add(CFA_XSP16, literal(-8)))
          CFI (cfiCond243) V2 load(1, XDATA, add(CFA_XSP16, literal(-7)))
          CFI (cfiCond243) R7 load(1, XDATA, add(CFA_XSP16, literal(-6)))
          CFI (cfiCond243) ?RET_LOW load(1, XDATA, add(CFA_XSP16, literal(-5)))
          CFI (cfiCond243) ?RET_HIGH load(1, XDATA, add(CFA_XSP16, literal(-4)))
          CFI (cfiCond243) ?BRET_EXT load(1, XDATA, add(CFA_XSP16, literal(-3)))
          CFI (cfiCond243) DPL0 load(1, XDATA, add(CFA_XSP16, literal(-2)))
          CFI (cfiCond243) DPH0 load(1, XDATA, add(CFA_XSP16, literal(-1)))
          CFI (cfiCond243) CFA_SP SP+-2
          CFI (cfiCond243) CFA_XSP16 add(XSP16, 11)
          CFI Block cfiPicker244 Using cfiCommon1
          CFI (cfiPicker244) NoFunction
          CFI (cfiPicker244) Picker
        MOV       DPTR,#pBeaconIndBuf
        MOVX      A,@DPTR
        MOV       R0,A
        INC       DPTR
          CFI EndBlock cfiCond242
          CFI EndBlock cfiCond243
          CFI EndBlock cfiPicker244
        REQUIRE ??Subroutine71_0
        ; // Fall through to label ??Subroutine71_0

        RSEG BANKED_CODE:HUGECODE:NOROOT(0)
??Subroutine71_0:
          CFI Block cfiCond245 Using cfiCommon0
          CFI Function MT_ZdoBeaconIndCB
          CFI Conditional ??CrossCallReturnLabel_144
          CFI R6 load(1, XDATA, add(CFA_XSP16, literal(-11)))
          CFI VB load(1, XDATA, add(CFA_XSP16, literal(-10)))
          CFI V0 load(1, XDATA, add(CFA_XSP16, literal(-9)))
          CFI V1 load(1, XDATA, add(CFA_XSP16, literal(-8)))
          CFI V2 load(1, XDATA, add(CFA_XSP16, literal(-7)))
          CFI R7 load(1, XDATA, add(CFA_XSP16, literal(-6)))
          CFI ?RET_LOW load(1, XDATA, add(CFA_XSP16, literal(-5)))
          CFI ?RET_HIGH load(1, XDATA, add(CFA_XSP16, literal(-4)))
          CFI ?BRET_EXT load(1, XDATA, add(CFA_XSP16, literal(-3)))
          CFI DPL0 load(1, XDATA, add(CFA_XSP16, literal(-2)))
          CFI DPH0 load(1, XDATA, add(CFA_XSP16, literal(-1)))
          CFI CFA_SP SP+-2
          CFI CFA_XSP16 add(XSP16, 11)
          CFI Block cfiCond246 Using cfiCommon0
          CFI (cfiCond246) Function MT_ZdoBeaconIndCB
          CFI (cfiCond246) Conditional ??CrossCallReturnLabel_145
          CFI (cfiCond246) R6 load(1, XDATA, add(CFA_XSP16, literal(-11)))
          CFI (cfiCond246) VB load(1, XDATA, add(CFA_XSP16, literal(-10)))
          CFI (cfiCond246) V0 load(1, XDATA, add(CFA_XSP16, literal(-9)))
          CFI (cfiCond246) V1 load(1, XDATA, add(CFA_XSP16, literal(-8)))
          CFI (cfiCond246) V2 load(1, XDATA, add(CFA_XSP16, literal(-7)))
          CFI (cfiCond246) R7 load(1, XDATA, add(CFA_XSP16, literal(-6)))
          CFI (cfiCond246) ?RET_LOW load(1, XDATA, add(CFA_XSP16, literal(-5)))
          CFI (cfiCond246) ?RET_HIGH load(1, XDATA, add(CFA_XSP16, literal(-4)))
          CFI (cfiCond246) ?BRET_EXT load(1, XDATA, add(CFA_XSP16, literal(-3)))
          CFI (cfiCond246) DPL0 load(1, XDATA, add(CFA_XSP16, literal(-2)))
          CFI (cfiCond246) DPH0 load(1, XDATA, add(CFA_XSP16, literal(-1)))
          CFI (cfiCond246) CFA_SP SP+-2
          CFI (cfiCond246) CFA_XSP16 add(XSP16, 11)
          CFI Block cfiCond247 Using cfiCommon0
          CFI (cfiCond247) Function MT_ZdoBeaconIndCB
          CFI (cfiCond247) Conditional ??CrossCallReturnLabel_146
          CFI (cfiCond247) R6 load(1, XDATA, add(CFA_XSP16, literal(-11)))
          CFI (cfiCond247) VB load(1, XDATA, add(CFA_XSP16, literal(-10)))
          CFI (cfiCond247) V0 load(1, XDATA, add(CFA_XSP16, literal(-9)))
          CFI (cfiCond247) V1 load(1, XDATA, add(CFA_XSP16, literal(-8)))
          CFI (cfiCond247) V2 load(1, XDATA, add(CFA_XSP16, literal(-7)))
          CFI (cfiCond247) R7 load(1, XDATA, add(CFA_XSP16, literal(-6)))
          CFI (cfiCond247) ?RET_LOW load(1, XDATA, add(CFA_XSP16, literal(-5)))
          CFI (cfiCond247) ?RET_HIGH load(1, XDATA, add(CFA_XSP16, literal(-4)))
          CFI (cfiCond247) ?BRET_EXT load(1, XDATA, add(CFA_XSP16, literal(-3)))
          CFI (cfiCond247) DPL0 load(1, XDATA, add(CFA_XSP16, literal(-2)))
          CFI (cfiCond247) DPH0 load(1, XDATA, add(CFA_XSP16, literal(-1)))
          CFI (cfiCond247) CFA_SP SP+-2
          CFI (cfiCond247) CFA_XSP16 add(XSP16, 11)
          CFI Block cfiCond248 Using cfiCommon0
          CFI (cfiCond248) Function MT_ZdoBeaconIndCB
          CFI (cfiCond248) Conditional ??CrossCallReturnLabel_147
          CFI (cfiCond248) R6 load(1, XDATA, add(CFA_XSP16, literal(-11)))
          CFI (cfiCond248) VB load(1, XDATA, add(CFA_XSP16, literal(-10)))
          CFI (cfiCond248) V0 load(1, XDATA, add(CFA_XSP16, literal(-9)))
          CFI (cfiCond248) V1 load(1, XDATA, add(CFA_XSP16, literal(-8)))
          CFI (cfiCond248) V2 load(1, XDATA, add(CFA_XSP16, literal(-7)))
          CFI (cfiCond248) R7 load(1, XDATA, add(CFA_XSP16, literal(-6)))
          CFI (cfiCond248) ?RET_LOW load(1, XDATA, add(CFA_XSP16, literal(-5)))
          CFI (cfiCond248) ?RET_HIGH load(1, XDATA, add(CFA_XSP16, literal(-4)))
          CFI (cfiCond248) ?BRET_EXT load(1, XDATA, add(CFA_XSP16, literal(-3)))
          CFI (cfiCond248) DPL0 load(1, XDATA, add(CFA_XSP16, literal(-2)))
          CFI (cfiCond248) DPH0 load(1, XDATA, add(CFA_XSP16, literal(-1)))
          CFI (cfiCond248) CFA_SP SP+-2
          CFI (cfiCond248) CFA_XSP16 add(XSP16, 11)
          CFI Block cfiPicker249 Using cfiCommon1
          CFI (cfiPicker249) NoFunction
          CFI (cfiPicker249) Picker
        MOVX      A,@DPTR
        MOV       DPH,A
        MOV       DPL,R0
        RET
          CFI EndBlock cfiCond245
          CFI EndBlock cfiCond246
          CFI EndBlock cfiCond247
          CFI EndBlock cfiCond248
          CFI EndBlock cfiPicker249

        RSEG BANKED_CODE:HUGECODE:NOROOT(0)
?Subroutine22:
          CFI Block cfiCond250 Using cfiCommon0
          CFI Function MT_ZdoBeaconIndCB
          CFI Conditional ??CrossCallReturnLabel_32
          CFI R6 load(1, XDATA, add(CFA_XSP16, literal(-11)))
          CFI VB load(1, XDATA, add(CFA_XSP16, literal(-10)))
          CFI V0 load(1, XDATA, add(CFA_XSP16, literal(-9)))
          CFI V1 load(1, XDATA, add(CFA_XSP16, literal(-8)))
          CFI V2 load(1, XDATA, add(CFA_XSP16, literal(-7)))
          CFI R7 load(1, XDATA, add(CFA_XSP16, literal(-6)))
          CFI ?RET_LOW load(1, XDATA, add(CFA_XSP16, literal(-5)))
          CFI ?RET_HIGH load(1, XDATA, add(CFA_XSP16, literal(-4)))
          CFI ?BRET_EXT load(1, XDATA, add(CFA_XSP16, literal(-3)))
          CFI DPL0 load(1, XDATA, add(CFA_XSP16, literal(-2)))
          CFI DPH0 load(1, XDATA, add(CFA_XSP16, literal(-1)))
          CFI CFA_SP SP+-2
          CFI CFA_XSP16 add(XSP16, 11)
          CFI Block cfiCond251 Using cfiCommon0
          CFI (cfiCond251) Function MT_ZdoBeaconIndCB
          CFI (cfiCond251) Conditional ??CrossCallReturnLabel_33
          CFI (cfiCond251) R6 load(1, XDATA, add(CFA_XSP16, literal(-11)))
          CFI (cfiCond251) VB load(1, XDATA, add(CFA_XSP16, literal(-10)))
          CFI (cfiCond251) V0 load(1, XDATA, add(CFA_XSP16, literal(-9)))
          CFI (cfiCond251) V1 load(1, XDATA, add(CFA_XSP16, literal(-8)))
          CFI (cfiCond251) V2 load(1, XDATA, add(CFA_XSP16, literal(-7)))
          CFI (cfiCond251) R7 load(1, XDATA, add(CFA_XSP16, literal(-6)))
          CFI (cfiCond251) ?RET_LOW load(1, XDATA, add(CFA_XSP16, literal(-5)))
          CFI (cfiCond251) ?RET_HIGH load(1, XDATA, add(CFA_XSP16, literal(-4)))
          CFI (cfiCond251) ?BRET_EXT load(1, XDATA, add(CFA_XSP16, literal(-3)))
          CFI (cfiCond251) DPL0 load(1, XDATA, add(CFA_XSP16, literal(-2)))
          CFI (cfiCond251) DPH0 load(1, XDATA, add(CFA_XSP16, literal(-1)))
          CFI (cfiCond251) CFA_SP SP+-2
          CFI (cfiCond251) CFA_XSP16 add(XSP16, 11)
          CFI Block cfiPicker252 Using cfiCommon1
          CFI (cfiPicker252) NoFunction
          CFI (cfiPicker252) Picker
        INC       DPTR
        INC       DPTR
        INC       DPTR
        INC       DPTR
        LCALL     ?Subroutine52 & 0xFFFF
??CrossCallReturnLabel_95:
        INC       DPTR
        INC       DPTR
        RET
          CFI EndBlock cfiCond250
          CFI EndBlock cfiCond251
          CFI EndBlock cfiPicker252

        RSEG BANKED_CODE:HUGECODE:NOROOT(0)
?Subroutine19:
          CFI Block cfiCond253 Using cfiCommon0
          CFI Function MT_ZdoBeaconIndCB
          CFI Conditional ??CrossCallReturnLabel_26
          CFI R6 load(1, XDATA, add(CFA_XSP16, literal(-11)))
          CFI VB load(1, XDATA, add(CFA_XSP16, literal(-10)))
          CFI V0 load(1, XDATA, add(CFA_XSP16, literal(-9)))
          CFI V1 load(1, XDATA, add(CFA_XSP16, literal(-8)))
          CFI V2 load(1, XDATA, add(CFA_XSP16, literal(-7)))
          CFI R7 load(1, XDATA, add(CFA_XSP16, literal(-6)))
          CFI ?RET_LOW load(1, XDATA, add(CFA_XSP16, literal(-5)))
          CFI ?RET_HIGH load(1, XDATA, add(CFA_XSP16, literal(-4)))
          CFI ?BRET_EXT load(1, XDATA, add(CFA_XSP16, literal(-3)))
          CFI DPL0 load(1, XDATA, add(CFA_XSP16, literal(-2)))
          CFI DPH0 load(1, XDATA, add(CFA_XSP16, literal(-1)))
          CFI CFA_SP SP+-2
          CFI CFA_XSP16 add(XSP16, 11)
          CFI Block cfiCond254 Using cfiCommon0
          CFI (cfiCond254) Function MT_ZdoBeaconIndCB
          CFI (cfiCond254) Conditional ??CrossCallReturnLabel_27
          CFI (cfiCond254) R6 load(1, XDATA, add(CFA_XSP16, literal(-11)))
          CFI (cfiCond254) VB load(1, XDATA, add(CFA_XSP16, literal(-10)))
          CFI (cfiCond254) V0 load(1, XDATA, add(CFA_XSP16, literal(-9)))
          CFI (cfiCond254) V1 load(1, XDATA, add(CFA_XSP16, literal(-8)))
          CFI (cfiCond254) V2 load(1, XDATA, add(CFA_XSP16, literal(-7)))
          CFI (cfiCond254) R7 load(1, XDATA, add(CFA_XSP16, literal(-6)))
          CFI (cfiCond254) ?RET_LOW load(1, XDATA, add(CFA_XSP16, literal(-5)))
          CFI (cfiCond254) ?RET_HIGH load(1, XDATA, add(CFA_XSP16, literal(-4)))
          CFI (cfiCond254) ?BRET_EXT load(1, XDATA, add(CFA_XSP16, literal(-3)))
          CFI (cfiCond254) DPL0 load(1, XDATA, add(CFA_XSP16, literal(-2)))
          CFI (cfiCond254) DPH0 load(1, XDATA, add(CFA_XSP16, literal(-1)))
          CFI (cfiCond254) CFA_SP SP+-2
          CFI (cfiCond254) CFA_XSP16 add(XSP16, 11)
          CFI Block cfiPicker255 Using cfiCommon1
          CFI (cfiPicker255) NoFunction
          CFI (cfiPicker255) Picker
        LCALL     ?Subroutine47 & 0xFFFF
??CrossCallReturnLabel_88:
        RET
          CFI EndBlock cfiCond253
          CFI EndBlock cfiCond254
          CFI EndBlock cfiPicker255

        RSEG BANKED_CODE:HUGECODE:NOROOT(0)
?Subroutine47:
          CFI Block cfiCond256 Using cfiCommon0
          CFI Function MT_ZdoBeaconIndCB
          CFI Conditional ??CrossCallReturnLabel_88, ??CrossCallReturnLabel_26
          CFI R6 load(1, XDATA, add(CFA_XSP16, literal(-11)))
          CFI VB load(1, XDATA, add(CFA_XSP16, literal(-10)))
          CFI V0 load(1, XDATA, add(CFA_XSP16, literal(-9)))
          CFI V1 load(1, XDATA, add(CFA_XSP16, literal(-8)))
          CFI V2 load(1, XDATA, add(CFA_XSP16, literal(-7)))
          CFI R7 load(1, XDATA, add(CFA_XSP16, literal(-6)))
          CFI ?RET_LOW load(1, XDATA, add(CFA_XSP16, literal(-5)))
          CFI ?RET_HIGH load(1, XDATA, add(CFA_XSP16, literal(-4)))
          CFI ?BRET_EXT load(1, XDATA, add(CFA_XSP16, literal(-3)))
          CFI DPL0 load(1, XDATA, add(CFA_XSP16, literal(-2)))
          CFI DPH0 load(1, XDATA, add(CFA_XSP16, literal(-1)))
          CFI CFA_SP SP+-4
          CFI CFA_XSP16 add(XSP16, 11)
          CFI Block cfiCond257 Using cfiCommon0
          CFI (cfiCond257) Function MT_ZdoBeaconIndCB
          CFI (cfiCond257) Conditional ??CrossCallReturnLabel_88, ??CrossCallReturnLabel_27
          CFI (cfiCond257) R6 load(1, XDATA, add(CFA_XSP16, literal(-11)))
          CFI (cfiCond257) VB load(1, XDATA, add(CFA_XSP16, literal(-10)))
          CFI (cfiCond257) V0 load(1, XDATA, add(CFA_XSP16, literal(-9)))
          CFI (cfiCond257) V1 load(1, XDATA, add(CFA_XSP16, literal(-8)))
          CFI (cfiCond257) V2 load(1, XDATA, add(CFA_XSP16, literal(-7)))
          CFI (cfiCond257) R7 load(1, XDATA, add(CFA_XSP16, literal(-6)))
          CFI (cfiCond257) ?RET_LOW load(1, XDATA, add(CFA_XSP16, literal(-5)))
          CFI (cfiCond257) ?RET_HIGH load(1, XDATA, add(CFA_XSP16, literal(-4)))
          CFI (cfiCond257) ?BRET_EXT load(1, XDATA, add(CFA_XSP16, literal(-3)))
          CFI (cfiCond257) DPL0 load(1, XDATA, add(CFA_XSP16, literal(-2)))
          CFI (cfiCond257) DPH0 load(1, XDATA, add(CFA_XSP16, literal(-1)))
          CFI (cfiCond257) CFA_SP SP+-4
          CFI (cfiCond257) CFA_XSP16 add(XSP16, 11)
          CFI Block cfiCond258 Using cfiCommon0
          CFI (cfiCond258) Function MT_ZdoBeaconIndCB
          CFI (cfiCond258) Conditional ??CrossCallReturnLabel_87, ??CrossCallReturnLabel_17
          CFI (cfiCond258) R6 load(1, XDATA, add(CFA_XSP16, literal(-11)))
          CFI (cfiCond258) VB load(1, XDATA, add(CFA_XSP16, literal(-10)))
          CFI (cfiCond258) V0 load(1, XDATA, add(CFA_XSP16, literal(-9)))
          CFI (cfiCond258) V1 load(1, XDATA, add(CFA_XSP16, literal(-8)))
          CFI (cfiCond258) V2 load(1, XDATA, add(CFA_XSP16, literal(-7)))
          CFI (cfiCond258) R7 load(1, XDATA, add(CFA_XSP16, literal(-6)))
          CFI (cfiCond258) ?RET_LOW load(1, XDATA, add(CFA_XSP16, literal(-5)))
          CFI (cfiCond258) ?RET_HIGH load(1, XDATA, add(CFA_XSP16, literal(-4)))
          CFI (cfiCond258) ?BRET_EXT load(1, XDATA, add(CFA_XSP16, literal(-3)))
          CFI (cfiCond258) DPL0 load(1, XDATA, add(CFA_XSP16, literal(-2)))
          CFI (cfiCond258) DPH0 load(1, XDATA, add(CFA_XSP16, literal(-1)))
          CFI (cfiCond258) CFA_SP SP+-4
          CFI (cfiCond258) CFA_XSP16 add(XSP16, 11)
          CFI Block cfiCond259 Using cfiCommon0
          CFI (cfiCond259) Function MT_ZdoBeaconIndCB
          CFI (cfiCond259) Conditional ??CrossCallReturnLabel_87, ??CrossCallReturnLabel_18
          CFI (cfiCond259) R6 load(1, XDATA, add(CFA_XSP16, literal(-11)))
          CFI (cfiCond259) VB load(1, XDATA, add(CFA_XSP16, literal(-10)))
          CFI (cfiCond259) V0 load(1, XDATA, add(CFA_XSP16, literal(-9)))
          CFI (cfiCond259) V1 load(1, XDATA, add(CFA_XSP16, literal(-8)))
          CFI (cfiCond259) V2 load(1, XDATA, add(CFA_XSP16, literal(-7)))
          CFI (cfiCond259) R7 load(1, XDATA, add(CFA_XSP16, literal(-6)))
          CFI (cfiCond259) ?RET_LOW load(1, XDATA, add(CFA_XSP16, literal(-5)))
          CFI (cfiCond259) ?RET_HIGH load(1, XDATA, add(CFA_XSP16, literal(-4)))
          CFI (cfiCond259) ?BRET_EXT load(1, XDATA, add(CFA_XSP16, literal(-3)))
          CFI (cfiCond259) DPL0 load(1, XDATA, add(CFA_XSP16, literal(-2)))
          CFI (cfiCond259) DPH0 load(1, XDATA, add(CFA_XSP16, literal(-1)))
          CFI (cfiCond259) CFA_SP SP+-4
          CFI (cfiCond259) CFA_XSP16 add(XSP16, 11)
          CFI Block cfiPicker260 Using cfiCommon1
          CFI (cfiPicker260) NoFunction
          CFI (cfiPicker260) Picker
        INC       DPTR
        INC       DPTR
        INC       DPTR
        INC       DPTR
        INC       DPTR
        INC       DPTR
        LCALL     ?Subroutine57 & 0xFFFF
??CrossCallReturnLabel_105:
        INC       DPTR
        INC       DPTR
        INC       DPTR
        INC       DPTR
        RET
          CFI EndBlock cfiCond256
          CFI EndBlock cfiCond257
          CFI EndBlock cfiCond258
          CFI EndBlock cfiCond259
          CFI EndBlock cfiPicker260

        RSEG BANKED_CODE:HUGECODE:NOROOT(0)
?Subroutine18:
          CFI Block cfiCond261 Using cfiCommon0
          CFI Function MT_ZdoBeaconIndCB
          CFI Conditional ??CrossCallReturnLabel_24
          CFI R6 load(1, XDATA, add(CFA_XSP16, literal(-11)))
          CFI VB load(1, XDATA, add(CFA_XSP16, literal(-10)))
          CFI V0 load(1, XDATA, add(CFA_XSP16, literal(-9)))
          CFI V1 load(1, XDATA, add(CFA_XSP16, literal(-8)))
          CFI V2 load(1, XDATA, add(CFA_XSP16, literal(-7)))
          CFI R7 load(1, XDATA, add(CFA_XSP16, literal(-6)))
          CFI ?RET_LOW load(1, XDATA, add(CFA_XSP16, literal(-5)))
          CFI ?RET_HIGH load(1, XDATA, add(CFA_XSP16, literal(-4)))
          CFI ?BRET_EXT load(1, XDATA, add(CFA_XSP16, literal(-3)))
          CFI DPL0 load(1, XDATA, add(CFA_XSP16, literal(-2)))
          CFI DPH0 load(1, XDATA, add(CFA_XSP16, literal(-1)))
          CFI CFA_SP SP+-2
          CFI CFA_XSP16 add(XSP16, 11)
          CFI Block cfiCond262 Using cfiCommon0
          CFI (cfiCond262) Function MT_ZdoBeaconIndCB
          CFI (cfiCond262) Conditional ??CrossCallReturnLabel_25
          CFI (cfiCond262) R6 load(1, XDATA, add(CFA_XSP16, literal(-11)))
          CFI (cfiCond262) VB load(1, XDATA, add(CFA_XSP16, literal(-10)))
          CFI (cfiCond262) V0 load(1, XDATA, add(CFA_XSP16, literal(-9)))
          CFI (cfiCond262) V1 load(1, XDATA, add(CFA_XSP16, literal(-8)))
          CFI (cfiCond262) V2 load(1, XDATA, add(CFA_XSP16, literal(-7)))
          CFI (cfiCond262) R7 load(1, XDATA, add(CFA_XSP16, literal(-6)))
          CFI (cfiCond262) ?RET_LOW load(1, XDATA, add(CFA_XSP16, literal(-5)))
          CFI (cfiCond262) ?RET_HIGH load(1, XDATA, add(CFA_XSP16, literal(-4)))
          CFI (cfiCond262) ?BRET_EXT load(1, XDATA, add(CFA_XSP16, literal(-3)))
          CFI (cfiCond262) DPL0 load(1, XDATA, add(CFA_XSP16, literal(-2)))
          CFI (cfiCond262) DPH0 load(1, XDATA, add(CFA_XSP16, literal(-1)))
          CFI (cfiCond262) CFA_SP SP+-2
          CFI (cfiCond262) CFA_XSP16 add(XSP16, 11)
          CFI Block cfiPicker263 Using cfiCommon1
          CFI (cfiPicker263) NoFunction
          CFI (cfiPicker263) Picker
        MOV       DPTR,#pBeaconIndBuf
        MOVX      A,@DPTR
        MOV       R0,A
        INC       DPTR
        MOVX      A,@DPTR
        MOV       DPH,A
        MOV       DPL,R0
        MOVX      A,@DPTR
        MOV       B,#0x15
        MUL       AB
        RET
          CFI EndBlock cfiCond261
          CFI EndBlock cfiCond262
          CFI EndBlock cfiPicker263

        RSEG BANKED_CODE:HUGECODE:NOROOT(0)
?Subroutine15:
          CFI Block cfiCond264 Using cfiCommon0
          CFI Function MT_ZdoBeaconIndCB
          CFI Conditional ??CrossCallReturnLabel_17
          CFI R6 load(1, XDATA, add(CFA_XSP16, literal(-11)))
          CFI VB load(1, XDATA, add(CFA_XSP16, literal(-10)))
          CFI V0 load(1, XDATA, add(CFA_XSP16, literal(-9)))
          CFI V1 load(1, XDATA, add(CFA_XSP16, literal(-8)))
          CFI V2 load(1, XDATA, add(CFA_XSP16, literal(-7)))
          CFI R7 load(1, XDATA, add(CFA_XSP16, literal(-6)))
          CFI ?RET_LOW load(1, XDATA, add(CFA_XSP16, literal(-5)))
          CFI ?RET_HIGH load(1, XDATA, add(CFA_XSP16, literal(-4)))
          CFI ?BRET_EXT load(1, XDATA, add(CFA_XSP16, literal(-3)))
          CFI DPL0 load(1, XDATA, add(CFA_XSP16, literal(-2)))
          CFI DPH0 load(1, XDATA, add(CFA_XSP16, literal(-1)))
          CFI CFA_SP SP+-2
          CFI CFA_XSP16 add(XSP16, 11)
          CFI Block cfiCond265 Using cfiCommon0
          CFI (cfiCond265) Function MT_ZdoBeaconIndCB
          CFI (cfiCond265) Conditional ??CrossCallReturnLabel_18
          CFI (cfiCond265) R6 load(1, XDATA, add(CFA_XSP16, literal(-11)))
          CFI (cfiCond265) VB load(1, XDATA, add(CFA_XSP16, literal(-10)))
          CFI (cfiCond265) V0 load(1, XDATA, add(CFA_XSP16, literal(-9)))
          CFI (cfiCond265) V1 load(1, XDATA, add(CFA_XSP16, literal(-8)))
          CFI (cfiCond265) V2 load(1, XDATA, add(CFA_XSP16, literal(-7)))
          CFI (cfiCond265) R7 load(1, XDATA, add(CFA_XSP16, literal(-6)))
          CFI (cfiCond265) ?RET_LOW load(1, XDATA, add(CFA_XSP16, literal(-5)))
          CFI (cfiCond265) ?RET_HIGH load(1, XDATA, add(CFA_XSP16, literal(-4)))
          CFI (cfiCond265) ?BRET_EXT load(1, XDATA, add(CFA_XSP16, literal(-3)))
          CFI (cfiCond265) DPL0 load(1, XDATA, add(CFA_XSP16, literal(-2)))
          CFI (cfiCond265) DPH0 load(1, XDATA, add(CFA_XSP16, literal(-1)))
          CFI (cfiCond265) CFA_SP SP+-2
          CFI (cfiCond265) CFA_XSP16 add(XSP16, 11)
          CFI Block cfiPicker266 Using cfiCommon1
          CFI (cfiPicker266) NoFunction
          CFI (cfiPicker266) Picker
        INC       DPTR
        INC       DPTR
        LCALL     ?Subroutine47 & 0xFFFF
??CrossCallReturnLabel_87:
        INC       DPTR
        INC       DPTR
        RET
          CFI EndBlock cfiCond264
          CFI EndBlock cfiCond265
          CFI EndBlock cfiPicker266

        RSEG BANKED_CODE:HUGECODE:NOROOT(0)
?Subroutine14:
          CFI Block cfiCond267 Using cfiCommon0
          CFI Function MT_ZdoBeaconIndCB
          CFI Conditional ??CrossCallReturnLabel_150
          CFI R6 load(1, XDATA, add(CFA_XSP16, literal(-11)))
          CFI VB load(1, XDATA, add(CFA_XSP16, literal(-10)))
          CFI V0 load(1, XDATA, add(CFA_XSP16, literal(-9)))
          CFI V1 load(1, XDATA, add(CFA_XSP16, literal(-8)))
          CFI V2 load(1, XDATA, add(CFA_XSP16, literal(-7)))
          CFI R7 load(1, XDATA, add(CFA_XSP16, literal(-6)))
          CFI ?RET_LOW load(1, XDATA, add(CFA_XSP16, literal(-5)))
          CFI ?RET_HIGH load(1, XDATA, add(CFA_XSP16, literal(-4)))
          CFI ?BRET_EXT load(1, XDATA, add(CFA_XSP16, literal(-3)))
          CFI DPL0 load(1, XDATA, add(CFA_XSP16, literal(-2)))
          CFI DPH0 load(1, XDATA, add(CFA_XSP16, literal(-1)))
          CFI CFA_SP SP+-2
          CFI CFA_XSP16 add(XSP16, 11)
          CFI Block cfiCond268 Using cfiCommon0
          CFI (cfiCond268) Function MT_ZdoBeaconIndCB
          CFI (cfiCond268) Conditional ??CrossCallReturnLabel_151
          CFI (cfiCond268) R6 load(1, XDATA, add(CFA_XSP16, literal(-11)))
          CFI (cfiCond268) VB load(1, XDATA, add(CFA_XSP16, literal(-10)))
          CFI (cfiCond268) V0 load(1, XDATA, add(CFA_XSP16, literal(-9)))
          CFI (cfiCond268) V1 load(1, XDATA, add(CFA_XSP16, literal(-8)))
          CFI (cfiCond268) V2 load(1, XDATA, add(CFA_XSP16, literal(-7)))
          CFI (cfiCond268) R7 load(1, XDATA, add(CFA_XSP16, literal(-6)))
          CFI (cfiCond268) ?RET_LOW load(1, XDATA, add(CFA_XSP16, literal(-5)))
          CFI (cfiCond268) ?RET_HIGH load(1, XDATA, add(CFA_XSP16, literal(-4)))
          CFI (cfiCond268) ?BRET_EXT load(1, XDATA, add(CFA_XSP16, literal(-3)))
          CFI (cfiCond268) DPL0 load(1, XDATA, add(CFA_XSP16, literal(-2)))
          CFI (cfiCond268) DPH0 load(1, XDATA, add(CFA_XSP16, literal(-1)))
          CFI (cfiCond268) CFA_SP SP+-2
          CFI (cfiCond268) CFA_XSP16 add(XSP16, 11)
          CFI Block cfiPicker269 Using cfiCommon1
          CFI (cfiPicker269) NoFunction
          CFI (cfiPicker269) Picker
        MOV       DPTR,#pBeaconIndBuf
          CFI EndBlock cfiCond267
          CFI EndBlock cfiCond268
          CFI EndBlock cfiPicker269
        REQUIRE ??Subroutine72_0
        ; // Fall through to label ??Subroutine72_0

        RSEG BANKED_CODE:HUGECODE:NOROOT(0)
??Subroutine72_0:
          CFI Block cfiCond270 Using cfiCommon0
          CFI Function MT_ZdoBeaconIndCB
          CFI Conditional ??CrossCallReturnLabel_148
          CFI R6 load(1, XDATA, add(CFA_XSP16, literal(-11)))
          CFI VB load(1, XDATA, add(CFA_XSP16, literal(-10)))
          CFI V0 load(1, XDATA, add(CFA_XSP16, literal(-9)))
          CFI V1 load(1, XDATA, add(CFA_XSP16, literal(-8)))
          CFI V2 load(1, XDATA, add(CFA_XSP16, literal(-7)))
          CFI R7 load(1, XDATA, add(CFA_XSP16, literal(-6)))
          CFI ?RET_LOW load(1, XDATA, add(CFA_XSP16, literal(-5)))
          CFI ?RET_HIGH load(1, XDATA, add(CFA_XSP16, literal(-4)))
          CFI ?BRET_EXT load(1, XDATA, add(CFA_XSP16, literal(-3)))
          CFI DPL0 load(1, XDATA, add(CFA_XSP16, literal(-2)))
          CFI DPH0 load(1, XDATA, add(CFA_XSP16, literal(-1)))
          CFI CFA_SP SP+-2
          CFI CFA_XSP16 add(XSP16, 11)
          CFI Block cfiCond271 Using cfiCommon0
          CFI (cfiCond271) Function MT_ZdoBeaconIndCB
          CFI (cfiCond271) Conditional ??CrossCallReturnLabel_149
          CFI (cfiCond271) R6 load(1, XDATA, add(CFA_XSP16, literal(-11)))
          CFI (cfiCond271) VB load(1, XDATA, add(CFA_XSP16, literal(-10)))
          CFI (cfiCond271) V0 load(1, XDATA, add(CFA_XSP16, literal(-9)))
          CFI (cfiCond271) V1 load(1, XDATA, add(CFA_XSP16, literal(-8)))
          CFI (cfiCond271) V2 load(1, XDATA, add(CFA_XSP16, literal(-7)))
          CFI (cfiCond271) R7 load(1, XDATA, add(CFA_XSP16, literal(-6)))
          CFI (cfiCond271) ?RET_LOW load(1, XDATA, add(CFA_XSP16, literal(-5)))
          CFI (cfiCond271) ?RET_HIGH load(1, XDATA, add(CFA_XSP16, literal(-4)))
          CFI (cfiCond271) ?BRET_EXT load(1, XDATA, add(CFA_XSP16, literal(-3)))
          CFI (cfiCond271) DPL0 load(1, XDATA, add(CFA_XSP16, literal(-2)))
          CFI (cfiCond271) DPH0 load(1, XDATA, add(CFA_XSP16, literal(-1)))
          CFI (cfiCond271) CFA_SP SP+-2
          CFI (cfiCond271) CFA_XSP16 add(XSP16, 11)
          CFI Block cfiCond272 Using cfiCommon0
          CFI (cfiCond272) Function MT_ZdoBeaconIndCB
          CFI (cfiCond272) Conditional ??CrossCallReturnLabel_150
          CFI (cfiCond272) R6 load(1, XDATA, add(CFA_XSP16, literal(-11)))
          CFI (cfiCond272) VB load(1, XDATA, add(CFA_XSP16, literal(-10)))
          CFI (cfiCond272) V0 load(1, XDATA, add(CFA_XSP16, literal(-9)))
          CFI (cfiCond272) V1 load(1, XDATA, add(CFA_XSP16, literal(-8)))
          CFI (cfiCond272) V2 load(1, XDATA, add(CFA_XSP16, literal(-7)))
          CFI (cfiCond272) R7 load(1, XDATA, add(CFA_XSP16, literal(-6)))
          CFI (cfiCond272) ?RET_LOW load(1, XDATA, add(CFA_XSP16, literal(-5)))
          CFI (cfiCond272) ?RET_HIGH load(1, XDATA, add(CFA_XSP16, literal(-4)))
          CFI (cfiCond272) ?BRET_EXT load(1, XDATA, add(CFA_XSP16, literal(-3)))
          CFI (cfiCond272) DPL0 load(1, XDATA, add(CFA_XSP16, literal(-2)))
          CFI (cfiCond272) DPH0 load(1, XDATA, add(CFA_XSP16, literal(-1)))
          CFI (cfiCond272) CFA_SP SP+-2
          CFI (cfiCond272) CFA_XSP16 add(XSP16, 11)
          CFI Block cfiCond273 Using cfiCommon0
          CFI (cfiCond273) Function MT_ZdoBeaconIndCB
          CFI (cfiCond273) Conditional ??CrossCallReturnLabel_151
          CFI (cfiCond273) R6 load(1, XDATA, add(CFA_XSP16, literal(-11)))
          CFI (cfiCond273) VB load(1, XDATA, add(CFA_XSP16, literal(-10)))
          CFI (cfiCond273) V0 load(1, XDATA, add(CFA_XSP16, literal(-9)))
          CFI (cfiCond273) V1 load(1, XDATA, add(CFA_XSP16, literal(-8)))
          CFI (cfiCond273) V2 load(1, XDATA, add(CFA_XSP16, literal(-7)))
          CFI (cfiCond273) R7 load(1, XDATA, add(CFA_XSP16, literal(-6)))
          CFI (cfiCond273) ?RET_LOW load(1, XDATA, add(CFA_XSP16, literal(-5)))
          CFI (cfiCond273) ?RET_HIGH load(1, XDATA, add(CFA_XSP16, literal(-4)))
          CFI (cfiCond273) ?BRET_EXT load(1, XDATA, add(CFA_XSP16, literal(-3)))
          CFI (cfiCond273) DPL0 load(1, XDATA, add(CFA_XSP16, literal(-2)))
          CFI (cfiCond273) DPH0 load(1, XDATA, add(CFA_XSP16, literal(-1)))
          CFI (cfiCond273) CFA_SP SP+-2
          CFI (cfiCond273) CFA_XSP16 add(XSP16, 11)
          CFI Block cfiPicker274 Using cfiCommon1
          CFI (cfiPicker274) NoFunction
          CFI (cfiPicker274) Picker
        MOVX      A,@DPTR
        MOV       R0,A
        INC       DPTR
        MOVX      A,@DPTR
        MOV       R1,A
        MOV       A,R0
        ORL       A,R1
        RET
          CFI EndBlock cfiCond270
          CFI EndBlock cfiCond271
          CFI EndBlock cfiCond272
          CFI EndBlock cfiCond273
          CFI EndBlock cfiPicker274

        RSEG BANKED_CODE:HUGECODE:NOROOT(0)
?Subroutine9:
          CFI Block cfiCond275 Using cfiCommon0
          CFI Function MT_ZdoBeaconIndCB
          CFI Conditional ??CrossCallReturnLabel_9
          CFI R6 load(1, XDATA, add(CFA_XSP16, literal(-11)))
          CFI VB load(1, XDATA, add(CFA_XSP16, literal(-10)))
          CFI V0 load(1, XDATA, add(CFA_XSP16, literal(-9)))
          CFI V1 load(1, XDATA, add(CFA_XSP16, literal(-8)))
          CFI V2 load(1, XDATA, add(CFA_XSP16, literal(-7)))
          CFI R7 load(1, XDATA, add(CFA_XSP16, literal(-6)))
          CFI ?RET_LOW load(1, XDATA, add(CFA_XSP16, literal(-5)))
          CFI ?RET_HIGH load(1, XDATA, add(CFA_XSP16, literal(-4)))
          CFI ?BRET_EXT load(1, XDATA, add(CFA_XSP16, literal(-3)))
          CFI DPL0 load(1, XDATA, add(CFA_XSP16, literal(-2)))
          CFI DPH0 load(1, XDATA, add(CFA_XSP16, literal(-1)))
          CFI CFA_SP SP+-2
          CFI CFA_XSP16 add(XSP16, 11)
          CFI Block cfiCond276 Using cfiCommon0
          CFI (cfiCond276) Function MT_ZdoBeaconIndCB
          CFI (cfiCond276) Conditional ??CrossCallReturnLabel_10
          CFI (cfiCond276) R6 load(1, XDATA, add(CFA_XSP16, literal(-11)))
          CFI (cfiCond276) VB load(1, XDATA, add(CFA_XSP16, literal(-10)))
          CFI (cfiCond276) V0 load(1, XDATA, add(CFA_XSP16, literal(-9)))
          CFI (cfiCond276) V1 load(1, XDATA, add(CFA_XSP16, literal(-8)))
          CFI (cfiCond276) V2 load(1, XDATA, add(CFA_XSP16, literal(-7)))
          CFI (cfiCond276) R7 load(1, XDATA, add(CFA_XSP16, literal(-6)))
          CFI (cfiCond276) ?RET_LOW load(1, XDATA, add(CFA_XSP16, literal(-5)))
          CFI (cfiCond276) ?RET_HIGH load(1, XDATA, add(CFA_XSP16, literal(-4)))
          CFI (cfiCond276) ?BRET_EXT load(1, XDATA, add(CFA_XSP16, literal(-3)))
          CFI (cfiCond276) DPL0 load(1, XDATA, add(CFA_XSP16, literal(-2)))
          CFI (cfiCond276) DPH0 load(1, XDATA, add(CFA_XSP16, literal(-1)))
          CFI (cfiCond276) CFA_SP SP+-2
          CFI (cfiCond276) CFA_XSP16 add(XSP16, 11)
          CFI Block cfiPicker277 Using cfiCommon1
          CFI (cfiPicker277) NoFunction
          CFI (cfiPicker277) Picker
        MOV       DPTR,#pBeaconIndBuf
        LCALL     ??Subroutine60_0 & 0xFFFF
??CrossCallReturnLabel_113:
        MOV       R5,A
        MOV       B,#0x15
        MOV       DPH,A
        MOV       DPL,R0
        MOVX      A,@DPTR
        MUL       AB
        INC       A
        MOV       R3,A
        MOV       R2,#-0x3b
        MOV       R1,#0x45
        RET
          CFI EndBlock cfiCond275
          CFI EndBlock cfiCond276
          CFI EndBlock cfiPicker277
// 1723 
// 1724 
// 1725 
// 1726 /***************************************************************************************************
// 1727  * @fn          MT_ZdoJoinCnfCB
// 1728  *
// 1729  * @brief       Handle the ZDO Join Confirm from ZDO
// 1730  *
// 1731  * @param       pStr - pointer to a parameter and a structure of parameters
// 1732  *
// 1733  * @return      void
// 1734  ***************************************************************************************************/

        RSEG BANKED_CODE:HUGECODE:NOROOT(0)
// 1735 void *MT_ZdoJoinCnfCB ( void *pStr )
MT_ZdoJoinCnfCB:
          CFI Block cfiBlock278 Using cfiCommon0
          CFI Function MT_ZdoJoinCnfCB
        CODE
// 1736 {
        FUNCALL MT_ZdoJoinCnfCB, ZDO_DeregisterForZdoCB
        LOCFRAME ISTACK, 0, STACK
        LOCFRAME PSTACK, 0, STACK
        LOCFRAME XSTACK, 14, STACK
        LOCFRAME IOVERLAY, 0, STATIC
        LOCFRAME DOVERLAY, 0, STATIC
        ARGFRAME ISTACK, 0, STACK
        ARGFRAME PSTACK, 0, STACK
        ARGFRAME XSTACK, 14, STACK
        ARGFRAME IOVERLAY, 0, STATIC
        ARGFRAME DOVERLAY, 0, STATIC
        FUNCALL MT_ZdoJoinCnfCB, MT_BuildAndSendZToolResponse
        LOCFRAME ISTACK, 0, STACK
        LOCFRAME PSTACK, 0, STACK
        LOCFRAME XSTACK, 14, STACK
        LOCFRAME IOVERLAY, 0, STATIC
        LOCFRAME DOVERLAY, 0, STATIC
        ARGFRAME ISTACK, 0, STACK
        ARGFRAME PSTACK, 0, STACK
        ARGFRAME XSTACK, 14, STACK
        ARGFRAME IOVERLAY, 0, STATIC
        ARGFRAME DOVERLAY, 0, STATIC
        MOV       A,#-0x9
        LCALL     ?BANKED_ENTER_XDATA
          CFI DPH0 load(1, XDATA, add(CFA_XSP16, literal(-1)))
          CFI DPL0 load(1, XDATA, add(CFA_XSP16, literal(-2)))
          CFI ?BRET_EXT load(1, XDATA, add(CFA_XSP16, literal(-3)))
          CFI ?RET_HIGH load(1, XDATA, add(CFA_XSP16, literal(-4)))
          CFI ?RET_LOW load(1, XDATA, add(CFA_XSP16, literal(-5)))
          CFI R7 load(1, XDATA, add(CFA_XSP16, literal(-6)))
          CFI V0 load(1, XDATA, add(CFA_XSP16, literal(-7)))
          CFI VB load(1, XDATA, add(CFA_XSP16, literal(-8)))
          CFI R6 load(1, XDATA, add(CFA_XSP16, literal(-9)))
          CFI CFA_SP SP+0
          CFI CFA_XSP16 add(XSP16, 9)
        ; Saved register size: 9
        ; Auto size: 5
        MOV       A,#-0x5
        LCALL     ?ALLOC_XSTACK8
          CFI CFA_XSP16 add(XSP16, 14)
        MOV       A,R2
        MOV       R6,A
        MOV       A,R3
        MOV       R7,A
// 1737   /* pStr: zdoJoinCnf_t* */
// 1738   /* Packet Format */
// 1739   /* Status (1) | device addr (2) | parent addr (2) */
// 1740 
// 1741   uint8 buf[MT_ZDO_JOIN_CNF_LEN];
// 1742   zdoJoinCnf_t *joinCnf = pStr;
// 1743 
// 1744   /* Join Complete. De-register the callback with ZDO */
// 1745   ZDO_DeregisterForZdoCB( ZDO_JOIN_CNF_CBID );
        ; Setup parameters for call to function ZDO_DeregisterForZdoCB
        MOV       R1,#0x4
        LCALL     `??ZDO_DeregisterForZdoCB::?relay`; Banked call to: ZDO_DeregisterForZdoCB
// 1746 
// 1747   buf[0] = joinCnf->status;
        MOV       DPL,R6
        MOV       DPH,R7
        MOVX      A,@DPTR
        MOV       DPL,?XSP + 0
        MOV       DPH,?XSP + 1
        LCALL     ?Subroutine34 & 0xFFFF
// 1748   buf[1] = LO_UINT16( joinCnf->deviceAddr );
??CrossCallReturnLabel_60:
        MOV       R0,DPL
        MOV       R1,DPH
        MOVX      A,@DPTR
        PUSH      A
          CFI CFA_SP SP+-1
        MOV       A,#0x1
        LCALL     ?XSTACK_DISP0_8
        POP       A
          CFI CFA_SP SP+0
        LCALL     ?Subroutine35 & 0xFFFF
// 1749   buf[2] = HI_UINT16( joinCnf->deviceAddr );
??CrossCallReturnLabel_61:
        PUSH      A
          CFI CFA_SP SP+-1
        MOV       A,#0x2
        LCALL     ?XSTACK_DISP0_8
        POP       A
          CFI CFA_SP SP+0
        MOVX      @DPTR,A
// 1750   buf[3] = LO_UINT16( joinCnf->parentAddr );
        MOV       A,R6
        ADD       A,#0x3
        MOV       R0,A
        CLR       A
        ADDC      A,R7
        MOV       R1,A
        MOV       DPL,R0
        MOV       DPH,R1
        MOVX      A,@DPTR
        PUSH      A
          CFI CFA_SP SP+-1
        MOV       A,#0x3
        LCALL     ?XSTACK_DISP0_8
        POP       A
          CFI CFA_SP SP+0
        LCALL     ?Subroutine35 & 0xFFFF
// 1751   buf[4] = HI_UINT16( joinCnf->parentAddr );
??CrossCallReturnLabel_62:
        PUSH      A
          CFI CFA_SP SP+-1
        MOV       A,#0x4
        LCALL     ?XSTACK_DISP0_8
        POP       A
          CFI CFA_SP SP+0
        MOVX      @DPTR,A
// 1752 
// 1753   MT_BuildAndSendZToolResponse(((uint8)MT_RPC_CMD_AREQ | (uint8)MT_RPC_SYS_ZDO),
// 1754                                MT_ZDO_JOIN_CNF, MT_ZDO_JOIN_CNF_LEN, buf);
        ; Setup parameters for call to function MT_BuildAndSendZToolResponse
        MOV       R4,?XSP + 0
        MOV       R5,?XSP + 1
        MOV       R3,#0x5
        MOV       R2,#-0x3a
        MOV       R1,#0x45
        LCALL     `??MT_BuildAndSendZToolResponse::?relay`; Banked call to: MT_BuildAndSendZToolResponse
// 1755 
// 1756   return NULL;
        MOV       R2,#0x0
        MOV       R3,#0x0
        MOV       A,#0x5
        LJMP      ??Subroutine64_0 & 0xFFFF
// 1757 }
          CFI EndBlock cfiBlock278

        RSEG BANKED_CODE:HUGECODE:NOROOT(0)
?Subroutine34:
          CFI Block cfiCond279 Using cfiCommon0
          CFI Function MT_ZdoBeaconIndCB
          CFI Conditional ??CrossCallReturnLabel_55
          CFI R6 load(1, XDATA, add(CFA_XSP16, literal(-11)))
          CFI VB load(1, XDATA, add(CFA_XSP16, literal(-10)))
          CFI V0 load(1, XDATA, add(CFA_XSP16, literal(-9)))
          CFI V1 load(1, XDATA, add(CFA_XSP16, literal(-8)))
          CFI V2 load(1, XDATA, add(CFA_XSP16, literal(-7)))
          CFI R7 load(1, XDATA, add(CFA_XSP16, literal(-6)))
          CFI ?RET_LOW load(1, XDATA, add(CFA_XSP16, literal(-5)))
          CFI ?RET_HIGH load(1, XDATA, add(CFA_XSP16, literal(-4)))
          CFI ?BRET_EXT load(1, XDATA, add(CFA_XSP16, literal(-3)))
          CFI DPL0 load(1, XDATA, add(CFA_XSP16, literal(-2)))
          CFI DPH0 load(1, XDATA, add(CFA_XSP16, literal(-1)))
          CFI CFA_SP SP+-2
          CFI CFA_XSP16 add(XSP16, 11)
          CFI Block cfiCond280 Using cfiCommon0
          CFI (cfiCond280) Function MT_ZdoBeaconIndCB
          CFI (cfiCond280) Conditional ??CrossCallReturnLabel_56
          CFI (cfiCond280) R6 load(1, XDATA, add(CFA_XSP16, literal(-11)))
          CFI (cfiCond280) VB load(1, XDATA, add(CFA_XSP16, literal(-10)))
          CFI (cfiCond280) V0 load(1, XDATA, add(CFA_XSP16, literal(-9)))
          CFI (cfiCond280) V1 load(1, XDATA, add(CFA_XSP16, literal(-8)))
          CFI (cfiCond280) V2 load(1, XDATA, add(CFA_XSP16, literal(-7)))
          CFI (cfiCond280) R7 load(1, XDATA, add(CFA_XSP16, literal(-6)))
          CFI (cfiCond280) ?RET_LOW load(1, XDATA, add(CFA_XSP16, literal(-5)))
          CFI (cfiCond280) ?RET_HIGH load(1, XDATA, add(CFA_XSP16, literal(-4)))
          CFI (cfiCond280) ?BRET_EXT load(1, XDATA, add(CFA_XSP16, literal(-3)))
          CFI (cfiCond280) DPL0 load(1, XDATA, add(CFA_XSP16, literal(-2)))
          CFI (cfiCond280) DPH0 load(1, XDATA, add(CFA_XSP16, literal(-1)))
          CFI (cfiCond280) CFA_SP SP+-2
          CFI (cfiCond280) CFA_XSP16 add(XSP16, 11)
          CFI Block cfiCond281 Using cfiCommon0
          CFI (cfiCond281) Function MT_ZdoBeaconIndCB
          CFI (cfiCond281) Conditional ??CrossCallReturnLabel_57
          CFI (cfiCond281) R6 load(1, XDATA, add(CFA_XSP16, literal(-11)))
          CFI (cfiCond281) VB load(1, XDATA, add(CFA_XSP16, literal(-10)))
          CFI (cfiCond281) V0 load(1, XDATA, add(CFA_XSP16, literal(-9)))
          CFI (cfiCond281) V1 load(1, XDATA, add(CFA_XSP16, literal(-8)))
          CFI (cfiCond281) V2 load(1, XDATA, add(CFA_XSP16, literal(-7)))
          CFI (cfiCond281) R7 load(1, XDATA, add(CFA_XSP16, literal(-6)))
          CFI (cfiCond281) ?RET_LOW load(1, XDATA, add(CFA_XSP16, literal(-5)))
          CFI (cfiCond281) ?RET_HIGH load(1, XDATA, add(CFA_XSP16, literal(-4)))
          CFI (cfiCond281) ?BRET_EXT load(1, XDATA, add(CFA_XSP16, literal(-3)))
          CFI (cfiCond281) DPL0 load(1, XDATA, add(CFA_XSP16, literal(-2)))
          CFI (cfiCond281) DPH0 load(1, XDATA, add(CFA_XSP16, literal(-1)))
          CFI (cfiCond281) CFA_SP SP+-2
          CFI (cfiCond281) CFA_XSP16 add(XSP16, 11)
          CFI Block cfiCond282 Using cfiCommon0
          CFI (cfiCond282) Function MT_ZdoBeaconIndCB
          CFI (cfiCond282) Conditional ??CrossCallReturnLabel_58
          CFI (cfiCond282) R6 load(1, XDATA, add(CFA_XSP16, literal(-11)))
          CFI (cfiCond282) VB load(1, XDATA, add(CFA_XSP16, literal(-10)))
          CFI (cfiCond282) V0 load(1, XDATA, add(CFA_XSP16, literal(-9)))
          CFI (cfiCond282) V1 load(1, XDATA, add(CFA_XSP16, literal(-8)))
          CFI (cfiCond282) V2 load(1, XDATA, add(CFA_XSP16, literal(-7)))
          CFI (cfiCond282) R7 load(1, XDATA, add(CFA_XSP16, literal(-6)))
          CFI (cfiCond282) ?RET_LOW load(1, XDATA, add(CFA_XSP16, literal(-5)))
          CFI (cfiCond282) ?RET_HIGH load(1, XDATA, add(CFA_XSP16, literal(-4)))
          CFI (cfiCond282) ?BRET_EXT load(1, XDATA, add(CFA_XSP16, literal(-3)))
          CFI (cfiCond282) DPL0 load(1, XDATA, add(CFA_XSP16, literal(-2)))
          CFI (cfiCond282) DPH0 load(1, XDATA, add(CFA_XSP16, literal(-1)))
          CFI (cfiCond282) CFA_SP SP+-2
          CFI (cfiCond282) CFA_XSP16 add(XSP16, 11)
          CFI Block cfiCond283 Using cfiCommon0
          CFI (cfiCond283) Function MT_ZdoBeaconIndCB
          CFI (cfiCond283) Conditional ??CrossCallReturnLabel_59
          CFI (cfiCond283) R6 load(1, XDATA, add(CFA_XSP16, literal(-11)))
          CFI (cfiCond283) VB load(1, XDATA, add(CFA_XSP16, literal(-10)))
          CFI (cfiCond283) V0 load(1, XDATA, add(CFA_XSP16, literal(-9)))
          CFI (cfiCond283) V1 load(1, XDATA, add(CFA_XSP16, literal(-8)))
          CFI (cfiCond283) V2 load(1, XDATA, add(CFA_XSP16, literal(-7)))
          CFI (cfiCond283) R7 load(1, XDATA, add(CFA_XSP16, literal(-6)))
          CFI (cfiCond283) ?RET_LOW load(1, XDATA, add(CFA_XSP16, literal(-5)))
          CFI (cfiCond283) ?RET_HIGH load(1, XDATA, add(CFA_XSP16, literal(-4)))
          CFI (cfiCond283) ?BRET_EXT load(1, XDATA, add(CFA_XSP16, literal(-3)))
          CFI (cfiCond283) DPL0 load(1, XDATA, add(CFA_XSP16, literal(-2)))
          CFI (cfiCond283) DPH0 load(1, XDATA, add(CFA_XSP16, literal(-1)))
          CFI (cfiCond283) CFA_SP SP+-2
          CFI (cfiCond283) CFA_XSP16 add(XSP16, 11)
          CFI Block cfiCond284 Using cfiCommon0
          CFI (cfiCond284) Function MT_ZdoJoinCnfCB
          CFI (cfiCond284) Conditional ??CrossCallReturnLabel_60
          CFI (cfiCond284) R6 load(1, XDATA, add(CFA_XSP16, literal(-9)))
          CFI (cfiCond284) VB load(1, XDATA, add(CFA_XSP16, literal(-8)))
          CFI (cfiCond284) V0 load(1, XDATA, add(CFA_XSP16, literal(-7)))
          CFI (cfiCond284) R7 load(1, XDATA, add(CFA_XSP16, literal(-6)))
          CFI (cfiCond284) ?RET_LOW load(1, XDATA, add(CFA_XSP16, literal(-5)))
          CFI (cfiCond284) ?RET_HIGH load(1, XDATA, add(CFA_XSP16, literal(-4)))
          CFI (cfiCond284) ?BRET_EXT load(1, XDATA, add(CFA_XSP16, literal(-3)))
          CFI (cfiCond284) DPL0 load(1, XDATA, add(CFA_XSP16, literal(-2)))
          CFI (cfiCond284) DPH0 load(1, XDATA, add(CFA_XSP16, literal(-1)))
          CFI (cfiCond284) CFA_SP SP+-2
          CFI (cfiCond284) CFA_XSP16 add(XSP16, 14)
          CFI Block cfiPicker285 Using cfiCommon1
          CFI (cfiPicker285) NoFunction
          CFI (cfiPicker285) Picker
        MOVX      @DPTR,A
        MOV       DPL,R6
        MOV       DPH,R7
        INC       DPTR
        RET
          CFI EndBlock cfiCond279
          CFI EndBlock cfiCond280
          CFI EndBlock cfiCond281
          CFI EndBlock cfiCond282
          CFI EndBlock cfiCond283
          CFI EndBlock cfiCond284
          CFI EndBlock cfiPicker285
// 1758 
// 1759 /*************************************************************************************************
// 1760  * @fn      MT_ZdoRegisterForZDOMsg(pBuf);
// 1761  *
// 1762  * @brief   MT proxy for ZDO_RegisterForZDOMsg.
// 1763  *
// 1764  * @param   pBuf  - MT message data
// 1765  *
// 1766  * @return  void
// 1767  *************************************************************************************************/

        RSEG BANKED_CODE:HUGECODE:NOROOT(0)
// 1768 void MT_ZdoRegisterForZDOMsg(uint8 *pBuf)
MT_ZdoRegisterForZDOMsg:
          CFI Block cfiBlock286 Using cfiCommon0
          CFI Function MT_ZdoRegisterForZDOMsg
        CODE
// 1769 {
        FUNCALL MT_ZdoRegisterForZDOMsg, ZDO_RegisterForZDOMsg
        LOCFRAME ISTACK, 0, STACK
        LOCFRAME PSTACK, 0, STACK
        LOCFRAME XSTACK, 10, STACK
        LOCFRAME IOVERLAY, 0, STATIC
        LOCFRAME DOVERLAY, 0, STATIC
        ARGFRAME ISTACK, 0, STACK
        ARGFRAME PSTACK, 0, STACK
        ARGFRAME XSTACK, 10, STACK
        ARGFRAME IOVERLAY, 0, STATIC
        ARGFRAME DOVERLAY, 0, STATIC
        FUNCALL MT_ZdoRegisterForZDOMsg, MT_BuildAndSendZToolResponse
        LOCFRAME ISTACK, 0, STACK
        LOCFRAME PSTACK, 0, STACK
        LOCFRAME XSTACK, 10, STACK
        LOCFRAME IOVERLAY, 0, STATIC
        LOCFRAME DOVERLAY, 0, STATIC
        ARGFRAME ISTACK, 0, STACK
        ARGFRAME PSTACK, 0, STACK
        ARGFRAME XSTACK, 10, STACK
        ARGFRAME IOVERLAY, 0, STATIC
        ARGFRAME DOVERLAY, 0, STATIC
        MOV       A,#-0x9
        LCALL     ?BANKED_ENTER_XDATA
          CFI DPH0 load(1, XDATA, add(CFA_XSP16, literal(-1)))
          CFI DPL0 load(1, XDATA, add(CFA_XSP16, literal(-2)))
          CFI ?BRET_EXT load(1, XDATA, add(CFA_XSP16, literal(-3)))
          CFI ?RET_HIGH load(1, XDATA, add(CFA_XSP16, literal(-4)))
          CFI ?RET_LOW load(1, XDATA, add(CFA_XSP16, literal(-5)))
          CFI R7 load(1, XDATA, add(CFA_XSP16, literal(-6)))
          CFI V0 load(1, XDATA, add(CFA_XSP16, literal(-7)))
          CFI VB load(1, XDATA, add(CFA_XSP16, literal(-8)))
          CFI R6 load(1, XDATA, add(CFA_XSP16, literal(-9)))
          CFI CFA_SP SP+0
          CFI CFA_XSP16 add(XSP16, 9)
        ; Saved register size: 9
        ; Auto size: 1
        MOV       A,#-0x1
        LCALL     ?ALLOC_XSTACK8
          CFI CFA_XSP16 add(XSP16, 10)
// 1770   uint8 cmd0, cmd1, tmp;
// 1771   uint16 cId;
// 1772 
// 1773   /* parse header */
// 1774   cmd0 = pBuf[MT_RPC_POS_CMD0];
        LCALL     ?Subroutine8 & 0xFFFF
// 1775   cmd1 = pBuf[MT_RPC_POS_CMD1];
// 1776   pBuf += MT_RPC_FRAME_HDR_SZ;
??CrossCallReturnLabel_118:
        JNC       ??MT_ZdoRegisterForZDOMsg_0
        INC       R3
// 1777 
// 1778   cId = BUILD_UINT16(pBuf[0], pBuf[1]);
// 1779   tmp = ZDO_RegisterForZDOMsg(MT_TaskID, cId);
??MT_ZdoRegisterForZDOMsg_0:
        ; Setup parameters for call to function ZDO_RegisterForZDOMsg
        LCALL     ?Subroutine11 & 0xFFFF
??CrossCallReturnLabel_13:
        LCALL     `??ZDO_RegisterForZDOMsg::?relay`; Banked call to: ZDO_RegisterForZDOMsg
        LCALL     ?Subroutine39 & 0xFFFF
// 1780 
// 1781   if (MT_RPC_CMD_SREQ == (cmd0 & MT_RPC_CMD_TYPE_MASK))
??CrossCallReturnLabel_70:
        JNZ       ??MT_ZdoRegisterForZDOMsg_1
// 1782   {
// 1783     MT_BuildAndSendZToolResponse(((uint8)MT_RPC_CMD_SRSP|(uint8)MT_RPC_SYS_ZDO), cmd1, 1, &tmp);
        ; Setup parameters for call to function MT_BuildAndSendZToolResponse
        MOV       R4,?XSP + 0
        MOV       R5,?XSP + 1
        MOV       R3,#0x1
        MOV       A,R6
        MOV       R2,A
        MOV       R1,#0x65
        LCALL     `??MT_BuildAndSendZToolResponse::?relay`; Banked call to: MT_BuildAndSendZToolResponse
// 1784   }
// 1785 }
??MT_ZdoRegisterForZDOMsg_1:
        LJMP      ??Subroutine68_0 & 0xFFFF
          CFI EndBlock cfiBlock286

        RSEG BANKED_CODE:HUGECODE:NOROOT(0)
?Subroutine39:
          CFI Block cfiCond287 Using cfiCommon0
          CFI Function MT_ZdoStartupFromApp
          CFI Conditional ??CrossCallReturnLabel_69
          CFI R6 load(1, XDATA, add(CFA_XSP16, literal(-9)))
          CFI VB load(1, XDATA, add(CFA_XSP16, literal(-8)))
          CFI V0 load(1, XDATA, add(CFA_XSP16, literal(-7)))
          CFI R7 load(1, XDATA, add(CFA_XSP16, literal(-6)))
          CFI ?RET_LOW load(1, XDATA, add(CFA_XSP16, literal(-5)))
          CFI ?RET_HIGH load(1, XDATA, add(CFA_XSP16, literal(-4)))
          CFI ?BRET_EXT load(1, XDATA, add(CFA_XSP16, literal(-3)))
          CFI DPL0 load(1, XDATA, add(CFA_XSP16, literal(-2)))
          CFI DPH0 load(1, XDATA, add(CFA_XSP16, literal(-1)))
          CFI CFA_SP SP+-2
          CFI CFA_XSP16 add(XSP16, 10)
          CFI Block cfiCond288 Using cfiCommon0
          CFI (cfiCond288) Function MT_ZdoRegisterForZDOMsg
          CFI (cfiCond288) Conditional ??CrossCallReturnLabel_70
          CFI (cfiCond288) R6 load(1, XDATA, add(CFA_XSP16, literal(-9)))
          CFI (cfiCond288) VB load(1, XDATA, add(CFA_XSP16, literal(-8)))
          CFI (cfiCond288) V0 load(1, XDATA, add(CFA_XSP16, literal(-7)))
          CFI (cfiCond288) R7 load(1, XDATA, add(CFA_XSP16, literal(-6)))
          CFI (cfiCond288) ?RET_LOW load(1, XDATA, add(CFA_XSP16, literal(-5)))
          CFI (cfiCond288) ?RET_HIGH load(1, XDATA, add(CFA_XSP16, literal(-4)))
          CFI (cfiCond288) ?BRET_EXT load(1, XDATA, add(CFA_XSP16, literal(-3)))
          CFI (cfiCond288) DPL0 load(1, XDATA, add(CFA_XSP16, literal(-2)))
          CFI (cfiCond288) DPH0 load(1, XDATA, add(CFA_XSP16, literal(-1)))
          CFI (cfiCond288) CFA_SP SP+-2
          CFI (cfiCond288) CFA_XSP16 add(XSP16, 10)
          CFI Block cfiCond289 Using cfiCommon0
          CFI (cfiCond289) Function MT_ZdoRemoveRegisteredCB
          CFI (cfiCond289) Conditional ??CrossCallReturnLabel_71
          CFI (cfiCond289) R6 load(1, XDATA, add(CFA_XSP16, literal(-9)))
          CFI (cfiCond289) VB load(1, XDATA, add(CFA_XSP16, literal(-8)))
          CFI (cfiCond289) V0 load(1, XDATA, add(CFA_XSP16, literal(-7)))
          CFI (cfiCond289) R7 load(1, XDATA, add(CFA_XSP16, literal(-6)))
          CFI (cfiCond289) ?RET_LOW load(1, XDATA, add(CFA_XSP16, literal(-5)))
          CFI (cfiCond289) ?RET_HIGH load(1, XDATA, add(CFA_XSP16, literal(-4)))
          CFI (cfiCond289) ?BRET_EXT load(1, XDATA, add(CFA_XSP16, literal(-3)))
          CFI (cfiCond289) DPL0 load(1, XDATA, add(CFA_XSP16, literal(-2)))
          CFI (cfiCond289) DPH0 load(1, XDATA, add(CFA_XSP16, literal(-1)))
          CFI (cfiCond289) CFA_SP SP+-2
          CFI (cfiCond289) CFA_XSP16 add(XSP16, 10)
          CFI Block cfiPicker290 Using cfiCommon1
          CFI (cfiPicker290) NoFunction
          CFI (cfiPicker290) Picker
        MOV       A,R1
        MOV       DPL,?XSP + 0
        MOV       DPH,?XSP + 1
        MOVX      @DPTR,A
        MOV       A,#-0x20
        ANL       A,R7
        XRL       A,#0x20
        RET
          CFI EndBlock cfiCond287
          CFI EndBlock cfiCond288
          CFI EndBlock cfiCond289
          CFI EndBlock cfiPicker290
// 1786 
// 1787 /*************************************************************************************************
// 1788  * @fn      MT_ZdoRemoveRegisteredCB(pBuf);
// 1789  *
// 1790  * @brief   MT proxy for ZDO_RemoveRegisteredCB.
// 1791  *
// 1792  * @param   pBuf  - MT message data
// 1793  *
// 1794  * @return  void
// 1795  *************************************************************************************************/

        RSEG BANKED_CODE:HUGECODE:NOROOT(0)
// 1796 void MT_ZdoRemoveRegisteredCB(uint8 *pBuf)
MT_ZdoRemoveRegisteredCB:
          CFI Block cfiBlock291 Using cfiCommon0
          CFI Function MT_ZdoRemoveRegisteredCB
        CODE
// 1797 {
        FUNCALL MT_ZdoRemoveRegisteredCB, ZDO_RemoveRegisteredCB
        LOCFRAME ISTACK, 0, STACK
        LOCFRAME PSTACK, 0, STACK
        LOCFRAME XSTACK, 10, STACK
        LOCFRAME IOVERLAY, 0, STATIC
        LOCFRAME DOVERLAY, 0, STATIC
        ARGFRAME ISTACK, 0, STACK
        ARGFRAME PSTACK, 0, STACK
        ARGFRAME XSTACK, 10, STACK
        ARGFRAME IOVERLAY, 0, STATIC
        ARGFRAME DOVERLAY, 0, STATIC
        FUNCALL MT_ZdoRemoveRegisteredCB, MT_BuildAndSendZToolResponse
        LOCFRAME ISTACK, 0, STACK
        LOCFRAME PSTACK, 0, STACK
        LOCFRAME XSTACK, 10, STACK
        LOCFRAME IOVERLAY, 0, STATIC
        LOCFRAME DOVERLAY, 0, STATIC
        ARGFRAME ISTACK, 0, STACK
        ARGFRAME PSTACK, 0, STACK
        ARGFRAME XSTACK, 10, STACK
        ARGFRAME IOVERLAY, 0, STATIC
        ARGFRAME DOVERLAY, 0, STATIC
        MOV       A,#-0x9
        LCALL     ?BANKED_ENTER_XDATA
          CFI DPH0 load(1, XDATA, add(CFA_XSP16, literal(-1)))
          CFI DPL0 load(1, XDATA, add(CFA_XSP16, literal(-2)))
          CFI ?BRET_EXT load(1, XDATA, add(CFA_XSP16, literal(-3)))
          CFI ?RET_HIGH load(1, XDATA, add(CFA_XSP16, literal(-4)))
          CFI ?RET_LOW load(1, XDATA, add(CFA_XSP16, literal(-5)))
          CFI R7 load(1, XDATA, add(CFA_XSP16, literal(-6)))
          CFI V0 load(1, XDATA, add(CFA_XSP16, literal(-7)))
          CFI VB load(1, XDATA, add(CFA_XSP16, literal(-8)))
          CFI R6 load(1, XDATA, add(CFA_XSP16, literal(-9)))
          CFI CFA_SP SP+0
          CFI CFA_XSP16 add(XSP16, 9)
        ; Saved register size: 9
        ; Auto size: 1
        MOV       A,#-0x1
        LCALL     ?ALLOC_XSTACK8
          CFI CFA_XSP16 add(XSP16, 10)
// 1798   uint8 cmd0, cmd1, tmp;
// 1799   uint16 cId;
// 1800 
// 1801   /* parse header */
// 1802   cmd0 = pBuf[MT_RPC_POS_CMD0];
        LCALL     ?Subroutine8 & 0xFFFF
// 1803   cmd1 = pBuf[MT_RPC_POS_CMD1];
// 1804   pBuf += MT_RPC_FRAME_HDR_SZ;
??CrossCallReturnLabel_119:
        JNC       ??MT_ZdoRemoveRegisteredCB_0
        INC       R3
// 1805 
// 1806   cId = BUILD_UINT16(pBuf[0], pBuf[1]);
// 1807   tmp = ZDO_RemoveRegisteredCB(MT_TaskID, cId);
??MT_ZdoRemoveRegisteredCB_0:
        ; Setup parameters for call to function ZDO_RemoveRegisteredCB
        LCALL     ?Subroutine11 & 0xFFFF
??CrossCallReturnLabel_14:
        LCALL     `??ZDO_RemoveRegisteredCB::?relay`; Banked call to: ZDO_RemoveRegisteredCB
        LCALL     ?Subroutine39 & 0xFFFF
// 1808 
// 1809   if (MT_RPC_CMD_SREQ == (cmd0 & MT_RPC_CMD_TYPE_MASK))
??CrossCallReturnLabel_71:
        JNZ       ??MT_ZdoRemoveRegisteredCB_1
// 1810   {
// 1811     MT_BuildAndSendZToolResponse(((uint8)MT_RPC_CMD_SRSP|(uint8)MT_RPC_SYS_ZDO), cmd1, 1, &tmp);
        ; Setup parameters for call to function MT_BuildAndSendZToolResponse
        MOV       R4,?XSP + 0
        MOV       R5,?XSP + 1
        MOV       R3,#0x1
        MOV       A,R6
        MOV       R2,A
        MOV       R1,#0x65
        LCALL     `??MT_BuildAndSendZToolResponse::?relay`; Banked call to: MT_BuildAndSendZToolResponse
// 1812   }
// 1813 }
??MT_ZdoRemoveRegisteredCB_1:
        LJMP      ??Subroutine68_0 & 0xFFFF
          CFI EndBlock cfiBlock291

        RSEG BANKED_CODE:HUGECODE:NOROOT(0)
?Subroutine11:
          CFI Block cfiCond292 Using cfiCommon0
          CFI Function MT_ZdoRegisterForZDOMsg
          CFI Conditional ??CrossCallReturnLabel_13
          CFI R6 load(1, XDATA, add(CFA_XSP16, literal(-9)))
          CFI VB load(1, XDATA, add(CFA_XSP16, literal(-8)))
          CFI V0 load(1, XDATA, add(CFA_XSP16, literal(-7)))
          CFI R7 load(1, XDATA, add(CFA_XSP16, literal(-6)))
          CFI ?RET_LOW load(1, XDATA, add(CFA_XSP16, literal(-5)))
          CFI ?RET_HIGH load(1, XDATA, add(CFA_XSP16, literal(-4)))
          CFI ?BRET_EXT load(1, XDATA, add(CFA_XSP16, literal(-3)))
          CFI DPL0 load(1, XDATA, add(CFA_XSP16, literal(-2)))
          CFI DPH0 load(1, XDATA, add(CFA_XSP16, literal(-1)))
          CFI CFA_SP SP+-2
          CFI CFA_XSP16 add(XSP16, 10)
          CFI Block cfiCond293 Using cfiCommon0
          CFI (cfiCond293) Function MT_ZdoRemoveRegisteredCB
          CFI (cfiCond293) Conditional ??CrossCallReturnLabel_14
          CFI (cfiCond293) R6 load(1, XDATA, add(CFA_XSP16, literal(-9)))
          CFI (cfiCond293) VB load(1, XDATA, add(CFA_XSP16, literal(-8)))
          CFI (cfiCond293) V0 load(1, XDATA, add(CFA_XSP16, literal(-7)))
          CFI (cfiCond293) R7 load(1, XDATA, add(CFA_XSP16, literal(-6)))
          CFI (cfiCond293) ?RET_LOW load(1, XDATA, add(CFA_XSP16, literal(-5)))
          CFI (cfiCond293) ?RET_HIGH load(1, XDATA, add(CFA_XSP16, literal(-4)))
          CFI (cfiCond293) ?BRET_EXT load(1, XDATA, add(CFA_XSP16, literal(-3)))
          CFI (cfiCond293) DPL0 load(1, XDATA, add(CFA_XSP16, literal(-2)))
          CFI (cfiCond293) DPH0 load(1, XDATA, add(CFA_XSP16, literal(-1)))
          CFI (cfiCond293) CFA_SP SP+-2
          CFI (cfiCond293) CFA_XSP16 add(XSP16, 10)
          CFI Block cfiPicker294 Using cfiCommon1
          CFI (cfiPicker294) NoFunction
          CFI (cfiPicker294) Picker
        LCALL     ?Subroutine50 & 0xFFFF
??CrossCallReturnLabel_92:
        MOV       R2,A
        CLR       A
        ADDC      A,R1
        MOV       R3,A
        MOV       DPTR,#MT_TaskID
        MOVX      A,@DPTR
        MOV       R1,A
        RET
          CFI EndBlock cfiCond292
          CFI EndBlock cfiCond293
          CFI EndBlock cfiPicker294

        RSEG BANKED_CODE:HUGECODE:NOROOT(0)
?Subroutine50:
          CFI Block cfiCond295 Using cfiCommon0
          CFI Function MT_ZdoUserDescSet
          CFI Conditional ??CrossCallReturnLabel_91
          CFI R6 load(1, XDATA, add(CFA_XSP16, literal(-12)))
          CFI VB load(1, XDATA, add(CFA_XSP16, literal(-11)))
          CFI V0 load(1, XDATA, add(CFA_XSP16, literal(-10)))
          CFI V1 load(1, XDATA, add(CFA_XSP16, literal(-9)))
          CFI V2 load(1, XDATA, add(CFA_XSP16, literal(-8)))
          CFI V3 load(1, XDATA, add(CFA_XSP16, literal(-7)))
          CFI R7 load(1, XDATA, add(CFA_XSP16, literal(-6)))
          CFI ?RET_LOW load(1, XDATA, add(CFA_XSP16, literal(-5)))
          CFI ?RET_HIGH load(1, XDATA, add(CFA_XSP16, literal(-4)))
          CFI ?BRET_EXT load(1, XDATA, add(CFA_XSP16, literal(-3)))
          CFI DPL0 load(1, XDATA, add(CFA_XSP16, literal(-2)))
          CFI DPH0 load(1, XDATA, add(CFA_XSP16, literal(-1)))
          CFI CFA_SP SP+-2
          CFI CFA_XSP16 add(XSP16, 39)
          CFI Block cfiCond296 Using cfiCommon0
          CFI (cfiCond296) Function MT_ZdoRegisterForZDOMsg
          CFI (cfiCond296) Conditional ??CrossCallReturnLabel_92, ??CrossCallReturnLabel_13
          CFI (cfiCond296) R6 load(1, XDATA, add(CFA_XSP16, literal(-9)))
          CFI (cfiCond296) VB load(1, XDATA, add(CFA_XSP16, literal(-8)))
          CFI (cfiCond296) V0 load(1, XDATA, add(CFA_XSP16, literal(-7)))
          CFI (cfiCond296) R7 load(1, XDATA, add(CFA_XSP16, literal(-6)))
          CFI (cfiCond296) ?RET_LOW load(1, XDATA, add(CFA_XSP16, literal(-5)))
          CFI (cfiCond296) ?RET_HIGH load(1, XDATA, add(CFA_XSP16, literal(-4)))
          CFI (cfiCond296) ?BRET_EXT load(1, XDATA, add(CFA_XSP16, literal(-3)))
          CFI (cfiCond296) DPL0 load(1, XDATA, add(CFA_XSP16, literal(-2)))
          CFI (cfiCond296) DPH0 load(1, XDATA, add(CFA_XSP16, literal(-1)))
          CFI (cfiCond296) CFA_SP SP+-4
          CFI (cfiCond296) CFA_XSP16 add(XSP16, 10)
          CFI Block cfiCond297 Using cfiCommon0
          CFI (cfiCond297) Function MT_ZdoRemoveRegisteredCB
          CFI (cfiCond297) Conditional ??CrossCallReturnLabel_92, ??CrossCallReturnLabel_14
          CFI (cfiCond297) R6 load(1, XDATA, add(CFA_XSP16, literal(-9)))
          CFI (cfiCond297) VB load(1, XDATA, add(CFA_XSP16, literal(-8)))
          CFI (cfiCond297) V0 load(1, XDATA, add(CFA_XSP16, literal(-7)))
          CFI (cfiCond297) R7 load(1, XDATA, add(CFA_XSP16, literal(-6)))
          CFI (cfiCond297) ?RET_LOW load(1, XDATA, add(CFA_XSP16, literal(-5)))
          CFI (cfiCond297) ?RET_HIGH load(1, XDATA, add(CFA_XSP16, literal(-4)))
          CFI (cfiCond297) ?BRET_EXT load(1, XDATA, add(CFA_XSP16, literal(-3)))
          CFI (cfiCond297) DPL0 load(1, XDATA, add(CFA_XSP16, literal(-2)))
          CFI (cfiCond297) DPH0 load(1, XDATA, add(CFA_XSP16, literal(-1)))
          CFI (cfiCond297) CFA_SP SP+-4
          CFI (cfiCond297) CFA_XSP16 add(XSP16, 10)
          CFI Block cfiPicker298 Using cfiCommon1
          CFI (cfiPicker298) NoFunction
          CFI (cfiPicker298) Picker
        LCALL     ?Subroutine56 & 0xFFFF
??CrossCallReturnLabel_117:
        MOV       R0,A
        CLR       A
        XCH       A,R0
        MOV       R1,A
        MOV       A,R4
        ADD       A,R0
        RET
          CFI EndBlock cfiCond295
          CFI EndBlock cfiCond296
          CFI EndBlock cfiCond297
          CFI EndBlock cfiPicker298
// 1814 
// 1815 #endif /* MT_ZDO_FUNC */
// 1816 
// 1817 
// 1818 /***************************************************************************************************
// 1819  * Callback handling function
// 1820  ***************************************************************************************************/
// 1821 
// 1822 #if defined (MT_ZDO_CB_FUNC)
// 1823 
// 1824 /***************************************************************************************************
// 1825  * @fn      MT_ZdoStateChangeCB
// 1826  *
// 1827  * @brief   Handle state change OSAL message from ZDO.
// 1828  *
// 1829  * @param   pMsg  - Message data
// 1830  *
// 1831  * @return  void
// 1832  */
// 1833 void MT_ZdoStateChangeCB(osal_event_hdr_t *pMsg)
// 1834 {
// 1835   MT_BuildAndSendZToolResponse(((uint8)MT_RPC_CMD_AREQ | (uint8)MT_RPC_SYS_ZDO),
// 1836                                        MT_ZDO_STATE_CHANGE_IND, 1, &pMsg->status);
// 1837 }
// 1838 
// 1839 /***************************************************************************************************
// 1840  * @fn     MT_ZdoDirectCB()
// 1841  *
// 1842  * @brief  ZDO direct callback.  Build an MT message directly from the
// 1843  *         over-the-air ZDO message.
// 1844  *
// 1845  * @param  pData - Incoming AF frame.
// 1846  *
// 1847  * @return  none
// 1848  ***************************************************************************************************/
// 1849 void MT_ZdoDirectCB( afIncomingMSGPacket_t *pData, zdoIncomingMsg_t *inMsg )
// 1850 {
// 1851   uint8 len, *pBuf;
// 1852   uint16 origClusterId;
// 1853 
// 1854   // save original value because MT_ZdoHandleExceptions() function could modify pData->clusterId
// 1855   origClusterId = pData->clusterId;
// 1856 
// 1857   // Is the message an exception or not a response?
// 1858   if ( MT_ZdoHandleExceptions( pData, inMsg ) || ( (origClusterId & ZDO_RESPONSE_BIT) == 0 ) )
// 1859   {
// 1860     return;  // Handled somewhere else or not needed.
// 1861   }
// 1862 
// 1863   /* ZDO data starts after one-byte sequence number and the msg buffer length includes
// 1864    * two bytes for srcAddr.
// 1865    */
// 1866   len = pData->cmd.DataLength - 1 + sizeof(uint16);
// 1867 
// 1868   if (NULL != (pBuf = (uint8 *)osal_mem_alloc(len)))
// 1869   {
// 1870     uint8 id = MT_ZDO_CID_TO_AREQ_ID(pData->clusterId);
// 1871 
// 1872     pBuf[0] = LO_UINT16(pData->srcAddr.addr.shortAddr);
// 1873     pBuf[1] = HI_UINT16(pData->srcAddr.addr.shortAddr);
// 1874 
// 1875     /* copy ZDO data, skipping one-byte sequence number */
// 1876     osal_memcpy(pBuf+2, (pData->cmd.Data + 1), pData->cmd.DataLength-1);
// 1877 
// 1878     MT_BuildAndSendZToolResponse(((uint8)MT_RPC_CMD_AREQ | (uint8)MT_RPC_SYS_ZDO), id, len, pBuf);
// 1879     osal_mem_free(pBuf);
// 1880   }
// 1881 }
// 1882 
// 1883 /***************************************************************************************************
// 1884  * @fn     MT_ZdoHandleExceptions()
// 1885  *
// 1886  * @brief  Handles all messages that are an exception to the generic MT ZDO Response.
// 1887  *
// 1888  * @param  pData - Incoming AF frame.
// 1889  *
// 1890  * @return  TRUE if handled by this function, FALSE if not
// 1891  ***************************************************************************************************/
// 1892 uint8 MT_ZdoHandleExceptions( afIncomingMSGPacket_t *pData, zdoIncomingMsg_t *inMsg )
// 1893 {
// 1894   uint8 ret = TRUE;
// 1895   ZDO_NwkIEEEAddrResp_t *nwkRsp;
// 1896   ZDO_DeviceAnnce_t devAnnce;
// 1897   uint8 doDefault = FALSE;
// 1898 
// 1899   switch ( inMsg->clusterID )
// 1900   {
// 1901     case NWK_addr_rsp:
// 1902     case IEEE_addr_rsp:
// 1903       if ( NULL != (nwkRsp = ZDO_ParseAddrRsp(inMsg)) )
// 1904       {
// 1905         if ( nwkRsp->status == ZDO_SUCCESS )
// 1906         {
// 1907           MT_ZdoAddrRspCB( nwkRsp, inMsg->clusterID );
// 1908         }
// 1909         osal_mem_free( nwkRsp );
// 1910       }
// 1911       break;
// 1912 
// 1913     case Device_annce:
// 1914       ZDO_ParseDeviceAnnce( inMsg, &devAnnce );
// 1915       MT_ZdoEndDevAnnceCB( &devAnnce, inMsg->srcAddr.addr.shortAddr );
// 1916       break;
// 1917 
// 1918     case Simple_Desc_rsp:
// 1919       if ( pData->cmd.DataLength > 5 )
// 1920       {
// 1921         ret = FALSE;
// 1922       }
// 1923       else
// 1924       {
// 1925         doDefault = TRUE;
// 1926       }
// 1927       break;
// 1928 
// 1929     default:
// 1930       ret = FALSE;
// 1931       break;
// 1932   }
// 1933 
// 1934   if ( doDefault )
// 1935   {
// 1936     ret = FALSE;
// 1937     pData->clusterId = MtZdoDef_rsp;
// 1938     pData->cmd.DataLength = 2;
// 1939   }
// 1940 
// 1941   return ( ret );
// 1942 }
// 1943 
// 1944 /***************************************************************************************************
// 1945  * @fn      MT_ZdoAddrRspCB
// 1946  *
// 1947  * @brief   Handle IEEE or nwk address response OSAL message from ZDO.
// 1948  *
// 1949  * @param   pMsg  - Message data
// 1950  *
// 1951  * @return  void
// 1952  */
// 1953 void MT_ZdoAddrRspCB( ZDO_NwkIEEEAddrResp_t *pMsg, uint16 clusterID )
// 1954 {
// 1955   uint8   listLen, len, *pBuf;
// 1956 
// 1957   /* both ZDO_NwkAddrResp_t and ZDO_IEEEAddrResp_t must be the same */
// 1958 
// 1959   /* get length, sanity check length */
// 1960   listLen = pMsg->numAssocDevs;
// 1961 
// 1962   /* calculate msg length */
// 1963   len = MT_ZDO_ADDR_RSP_LEN + (listLen * sizeof(uint16));
// 1964 
// 1965   /* get buffer */
// 1966   if (NULL != (pBuf = (uint8 *)osal_mem_alloc(len)))
// 1967   {
// 1968     uint8 id = MT_ZDO_CID_TO_AREQ_ID(clusterID);
// 1969     uint8 *pTmp = pBuf;
// 1970 
// 1971     *pTmp++ = pMsg->status;
// 1972 
// 1973     osal_cpyExtAddr(pTmp, pMsg->extAddr);
// 1974     pTmp += Z_EXTADDR_LEN;
// 1975 
// 1976     *pTmp++ = LO_UINT16(pMsg->nwkAddr);
// 1977     *pTmp++ = HI_UINT16(pMsg->nwkAddr);
// 1978 
// 1979     *pTmp++ = pMsg->startIndex;
// 1980     *pTmp++ = listLen;
// 1981 
// 1982     MT_Word2Buf(pTmp, pMsg->devList, listLen);
// 1983 
// 1984     MT_BuildAndSendZToolResponse(((uint8)MT_RPC_CMD_AREQ | (uint8)MT_RPC_SYS_ZDO), id, len, pBuf);
// 1985     osal_mem_free(pBuf);
// 1986   }
// 1987 }
// 1988 
// 1989 /***************************************************************************************************
// 1990  * @fn      MT_ZdoEndDevAnnceCB
// 1991  *
// 1992  * @brief   Handle end device announce OSAL message from ZDO.
// 1993  *
// 1994  * @param   pMsg  - Message data
// 1995  *
// 1996  * @return  void
// 1997  */
// 1998 void MT_ZdoEndDevAnnceCB( ZDO_DeviceAnnce_t *pMsg, uint16 srcAddr )
// 1999 {
// 2000   uint8 *pBuf;
// 2001 
// 2002   if (NULL != (pBuf = (uint8 *)osal_mem_alloc(MT_ZDO_END_DEVICE_ANNCE_IND_LEN)))
// 2003   {
// 2004     uint8 *pTmp = pBuf;
// 2005 
// 2006     *pTmp++ = LO_UINT16(srcAddr);
// 2007     *pTmp++ = HI_UINT16(srcAddr);
// 2008 
// 2009     *pTmp++ = LO_UINT16(pMsg->nwkAddr);
// 2010     *pTmp++ = HI_UINT16(pMsg->nwkAddr);
// 2011 
// 2012     osal_cpyExtAddr(pTmp, pMsg->extAddr);
// 2013     pTmp += Z_EXTADDR_LEN;
// 2014 
// 2015     *pTmp = pMsg->capabilities;
// 2016 
// 2017     MT_BuildAndSendZToolResponse(((uint8)MT_RPC_CMD_AREQ | (uint8)MT_RPC_SYS_ZDO),
// 2018                                          MT_ZDO_END_DEVICE_ANNCE_IND,
// 2019                                          MT_ZDO_END_DEVICE_ANNCE_IND_LEN, pBuf);
// 2020     osal_mem_free(pBuf);
// 2021   }
// 2022 }
// 2023 
// 2024 /***************************************************************************************************
// 2025  * @fn      MT_ZdoSrcRtgCB
// 2026  *
// 2027  * @brief   Handle Src Route from ZDO.
// 2028  *
// 2029  * @param   pStr  - pointer to the data structure for the src route
// 2030  *
// 2031  * @return  void*
// 2032  */
// 2033 void* MT_ZdoSrcRtgCB( void *pStr )
// 2034 {
// 2035   uint8 len, *pBuf;
// 2036   zdoSrcRtg_t *pSrcRtg = pStr;
// 2037 
// 2038   // srcAddr (2) + relayCnt (1) + relayList( relaycnt * 2 )
// 2039   len = 2 + 1 + pSrcRtg->relayCnt * sizeof(uint16);
// 2040 
// 2041   if (NULL != (pBuf = (uint8 *)osal_mem_alloc(len)))
// 2042   {
// 2043     uint8 idx, *pTmp = pBuf;
// 2044     uint16 *pRelay;
// 2045 
// 2046     // Packet payload
// 2047     *pTmp++ = LO_UINT16(pSrcRtg->srcAddr);
// 2048     *pTmp++ = HI_UINT16(pSrcRtg->srcAddr);
// 2049     *pTmp++ = pSrcRtg->relayCnt;
// 2050 
// 2051     // Relay List
// 2052     if( ( pRelay = pSrcRtg->pRelayList ) != NULL )
// 2053     {
// 2054       for( idx = 0; idx < pSrcRtg->relayCnt; idx ++ )
// 2055       {
// 2056         *pTmp++ = LO_UINT16(*pRelay);
// 2057         *pTmp++ = HI_UINT16(*pRelay);
// 2058         pRelay++;
// 2059       }
// 2060     }
// 2061     MT_BuildAndSendZToolResponse(((uint8)MT_RPC_CMD_AREQ | (uint8)MT_RPC_SYS_ZDO),
// 2062                                          MT_ZDO_SRC_RTG_IND, len, pBuf);
// 2063     osal_mem_free(pBuf);
// 2064   }
// 2065 
// 2066   return NULL;
// 2067 }
// 2068 
// 2069 /***************************************************************************************************
// 2070  * @fn          MT_ZdoConcentratorIndCB
// 2071  *
// 2072  * @brief       Handle the ZDO Concentrator Indication callback from the ZDO.
// 2073  *
// 2074  * @param       pStr - pointer to a parameter and a structure of parameters
// 2075  *
// 2076  * @return      NULL
// 2077  ***************************************************************************************************/
// 2078 static void *MT_ZdoConcentratorIndCB(void *pStr)
// 2079 {
// 2080   uint8 buf[MT_ZDO_CONCENTRATOR_IND_LEN], *pTmp = buf;
// 2081   zdoConcentratorInd_t *pInd = (zdoConcentratorInd_t *)pStr;
// 2082 
// 2083   *pTmp++ = LO_UINT16(pInd->nwkAddr);
// 2084   *pTmp++ = HI_UINT16(pInd->nwkAddr);
// 2085   pTmp = osal_memcpy(pTmp, pInd->extAddr, Z_EXTADDR_LEN);
// 2086   *pTmp = pInd->pktCost;
// 2087 
// 2088   MT_BuildAndSendZToolResponse(((uint8)MT_RPC_CMD_AREQ | (uint8)MT_RPC_SYS_ZDO),
// 2089                                     MT_ZDO_CONCENTRATOR_IND_CB, MT_ZDO_CONCENTRATOR_IND_LEN, buf);
// 2090   return NULL;
// 2091 }
// 2092 
// 2093 /***************************************************************************************************
// 2094  * @fn          MT_ZdoLeaveInd
// 2095  *
// 2096  * @brief       Handle the ZDO Leave Indication callback from the ZDO.
// 2097  *
// 2098  * @param       vPtr - Pointer to the received Leave Indication message.
// 2099  *
// 2100  * @return      NULL
// 2101  ***************************************************************************************************/
// 2102 static void *MT_ZdoLeaveInd(void *vPtr)
// 2103 {
// 2104   NLME_LeaveInd_t *pInd = (NLME_LeaveInd_t *)vPtr;
// 2105   uint8 buf[sizeof(NLME_LeaveInd_t)];
// 2106 
// 2107   buf[0] = LO_UINT16(pInd->srcAddr);
// 2108   buf[1] = HI_UINT16(pInd->srcAddr);
// 2109   (void)osal_memcpy(buf+2, pInd->extAddr, Z_EXTADDR_LEN);
// 2110   buf[2+Z_EXTADDR_LEN] = pInd->request;
// 2111   buf[3+Z_EXTADDR_LEN] = pInd->removeChildren;
// 2112   buf[4+Z_EXTADDR_LEN] = pInd->rejoin;
// 2113 
// 2114   MT_BuildAndSendZToolResponse(((uint8)MT_RPC_CMD_AREQ | (uint8)MT_RPC_SYS_ZDO),
// 2115                                        MT_ZDO_LEAVE_IND, 5+Z_EXTADDR_LEN, buf);
// 2116   return NULL;
// 2117 }
// 2118 #endif // MT_ZDO_CB_FUNC
// 2119 
// 2120 /***************************************************************************************************
// 2121  * @fn      MT_ZdoSendMsgCB
// 2122  *
// 2123  * @brief   Proxy the ZDO_SendMsgCBs one message at a time.
// 2124  *
// 2125  * @param   pMsg  - Message data
// 2126  *
// 2127  * @return  void
// 2128  */

        RSEG BANKED_CODE:HUGECODE:NOROOT(0)
// 2129 void MT_ZdoSendMsgCB(zdoIncomingMsg_t *pMsg)
MT_ZdoSendMsgCB:
          CFI Block cfiBlock299 Using cfiCommon0
          CFI Function MT_ZdoSendMsgCB
        CODE
// 2130 {
        FUNCALL MT_ZdoSendMsgCB, osal_mem_alloc
        LOCFRAME ISTACK, 0, STACK
        LOCFRAME PSTACK, 0, STACK
        LOCFRAME XSTACK, 14, STACK
        LOCFRAME IOVERLAY, 0, STATIC
        LOCFRAME DOVERLAY, 0, STATIC
        ARGFRAME ISTACK, 0, STACK
        ARGFRAME PSTACK, 0, STACK
        ARGFRAME XSTACK, 14, STACK
        ARGFRAME IOVERLAY, 0, STATIC
        ARGFRAME DOVERLAY, 0, STATIC
        FUNCALL MT_ZdoSendMsgCB, osal_memcpy
        LOCFRAME ISTACK, 0, STACK
        LOCFRAME PSTACK, 0, STACK
        LOCFRAME XSTACK, 17, STACK
        LOCFRAME IOVERLAY, 0, STATIC
        LOCFRAME DOVERLAY, 0, STATIC
        ARGFRAME ISTACK, 0, STACK
        ARGFRAME PSTACK, 0, STACK
        ARGFRAME XSTACK, 17, STACK
        ARGFRAME IOVERLAY, 0, STATIC
        ARGFRAME DOVERLAY, 0, STATIC
        FUNCALL MT_ZdoSendMsgCB, MT_BuildAndSendZToolResponse
        LOCFRAME ISTACK, 0, STACK
        LOCFRAME PSTACK, 0, STACK
        LOCFRAME XSTACK, 14, STACK
        LOCFRAME IOVERLAY, 0, STATIC
        LOCFRAME DOVERLAY, 0, STATIC
        ARGFRAME ISTACK, 0, STACK
        ARGFRAME PSTACK, 0, STACK
        ARGFRAME XSTACK, 14, STACK
        ARGFRAME IOVERLAY, 0, STATIC
        ARGFRAME DOVERLAY, 0, STATIC
        FUNCALL MT_ZdoSendMsgCB, osal_mem_free
        LOCFRAME ISTACK, 0, STACK
        LOCFRAME PSTACK, 0, STACK
        LOCFRAME XSTACK, 14, STACK
        LOCFRAME IOVERLAY, 0, STATIC
        LOCFRAME DOVERLAY, 0, STATIC
        ARGFRAME ISTACK, 0, STACK
        ARGFRAME PSTACK, 0, STACK
        ARGFRAME XSTACK, 14, STACK
        ARGFRAME IOVERLAY, 0, STATIC
        ARGFRAME DOVERLAY, 0, STATIC
        REQUIRE ?V0
        REQUIRE ?V1
        REQUIRE ?V2
        REQUIRE ?V3
        REQUIRE ?V4
        REQUIRE ?V5
        MOV       A,#-0xe
        LCALL     ?BANKED_ENTER_XDATA
          CFI DPH0 load(1, XDATA, add(CFA_XSP16, literal(-1)))
          CFI DPL0 load(1, XDATA, add(CFA_XSP16, literal(-2)))
          CFI ?BRET_EXT load(1, XDATA, add(CFA_XSP16, literal(-3)))
          CFI ?RET_HIGH load(1, XDATA, add(CFA_XSP16, literal(-4)))
          CFI ?RET_LOW load(1, XDATA, add(CFA_XSP16, literal(-5)))
          CFI R7 load(1, XDATA, add(CFA_XSP16, literal(-6)))
          CFI V5 load(1, XDATA, add(CFA_XSP16, literal(-7)))
          CFI V4 load(1, XDATA, add(CFA_XSP16, literal(-8)))
          CFI V3 load(1, XDATA, add(CFA_XSP16, literal(-9)))
          CFI V2 load(1, XDATA, add(CFA_XSP16, literal(-10)))
          CFI V1 load(1, XDATA, add(CFA_XSP16, literal(-11)))
          CFI V0 load(1, XDATA, add(CFA_XSP16, literal(-12)))
          CFI VB load(1, XDATA, add(CFA_XSP16, literal(-13)))
          CFI R6 load(1, XDATA, add(CFA_XSP16, literal(-14)))
          CFI CFA_SP SP+0
          CFI CFA_XSP16 add(XSP16, 14)
        ; Saved register size: 14
        ; Auto size: 0
        MOV       ?V4,R2
        MOV       ?V5,R3
// 2131   uint8 len = pMsg->asduLen + 9;
        MOV       A,R2
        LCALL     ?Subroutine45 & 0xFFFF
??CrossCallReturnLabel_83:
        ADD       A,#0x9
        MOV       ?V3,A
// 2132   uint8 *pBuf = (uint8 *)osal_mem_alloc(len);
        ; Setup parameters for call to function osal_mem_alloc
        MOV       R2,A
        MOV       R3,#0x0
        LCALL     `??osal_mem_alloc::?relay`; Banked call to: osal_mem_alloc
        MOV       ?V0,R2
        MOV       ?V1,R3
        MOV       R6,?V0
        MOV       R7,?V1
// 2133 
// 2134   if (pBuf != NULL)
        MOV       A,R6
        ORL       A,R7
        JNZ       $+5
        LJMP      ??MT_ZdoSendMsgCB_0 & 0xFFFF
// 2135   {
// 2136     uint8 *pTmp = pBuf;
// 2137 
// 2138     // Assuming exclusive use of network short addresses.
// 2139     *pTmp++ = LO_UINT16(pMsg->srcAddr.addr.shortAddr);
        MOV       A,?V4
        ADD       A,#0x2
        LCALL     ?Subroutine44 & 0xFFFF
??CrossCallReturnLabel_80:
        MOVX      A,@DPTR
        MOV       DPL,R6
        MOV       DPH,R7
        LCALL     ?Subroutine35 & 0xFFFF
// 2140     *pTmp++ = HI_UINT16(pMsg->srcAddr.addr.shortAddr);
??CrossCallReturnLabel_63:
        MOV       DPL,R6
        MOV       DPH,R7
        INC       DPTR
        MOVX      @DPTR,A
// 2141     *pTmp++ = pMsg->wasBroadcast;
        MOV       A,?V4
        ADD       A,#0xb
        MOV       DPL,A
        CLR       A
        ADDC      A,?V5
        MOV       DPH,A
        MOVX      A,@DPTR
        MOV       DPL,R6
        MOV       DPH,R7
        INC       DPTR
        INC       DPTR
        MOVX      @DPTR,A
// 2142     *pTmp++ = LO_UINT16(pMsg->clusterID);
        MOV       A,?V4
        ADD       A,#0xc
        LCALL     ?Subroutine44 & 0xFFFF
??CrossCallReturnLabel_81:
        LCALL     ?Subroutine28 & 0xFFFF
??CrossCallReturnLabel_42:
        LCALL     ?Subroutine37 & 0xFFFF
// 2143     *pTmp++ = HI_UINT16(pMsg->clusterID);
??CrossCallReturnLabel_67:
        LCALL     ?Subroutine28 & 0xFFFF
??CrossCallReturnLabel_43:
        INC       DPTR
        MOVX      @DPTR,A
// 2144     *pTmp++ = pMsg->SecurityUse;
        MOV       A,?V4
        ADD       A,#0xe
        LCALL     ?Subroutine23 & 0xFFFF
??CrossCallReturnLabel_34:
        MOVX      @DPTR,A
// 2145     *pTmp++ = pMsg->TransSeq;
        MOV       A,?V4
        ADD       A,#0xf
        LCALL     ?Subroutine23 & 0xFFFF
??CrossCallReturnLabel_35:
        INC       DPTR
        MOVX      @DPTR,A
// 2146     // Skipping asduLen since it can be deduced from the RPC packet length.
// 2147     *pTmp++ = LO_UINT16(pMsg->macDestAddr);
        MOV       A,?V4
        ADD       A,#0x11
        LCALL     ?Subroutine44 & 0xFFFF
??CrossCallReturnLabel_82:
        LCALL     ?Subroutine20 & 0xFFFF
??CrossCallReturnLabel_28:
        LCALL     ?Subroutine37 & 0xFFFF
// 2148     *pTmp++ = HI_UINT16(pMsg->macDestAddr);
??CrossCallReturnLabel_68:
        LCALL     ?Subroutine20 & 0xFFFF
??CrossCallReturnLabel_29:
        INC       DPTR
        MOVX      @DPTR,A
// 2149     (void)osal_memcpy(pTmp, pMsg->asdu, pMsg->asduLen);
        ; Setup parameters for call to function osal_memcpy
        MOV       A,?V4
        ADD       A,#0x13
        MOV       DPL,A
        CLR       A
        ADDC      A,?V5
        MOV       DPH,A
        MOVX      A,@DPTR
        MOV       ?V0,A
        INC       DPTR
        MOVX      A,@DPTR
        MOV       ?V1,A
        MOV       ?V2,#0x0
        MOV       R0,#?V0
        LCALL     ?PUSH_XSTACK_I_THREE
          CFI CFA_XSP16 add(XSP16, 17)
        MOV       A,?V4
        LCALL     ?Subroutine45 & 0xFFFF
??CrossCallReturnLabel_84:
        MOV       R4,A
        MOV       R5,#0x0
        MOV       A,R6
        ADD       A,#0x9
        MOV       R2,A
        CLR       A
        ADDC      A,R7
        MOV       R3,A
        LCALL     `??osal_memcpy::?relay`; Banked call to: osal_memcpy
        MOV       A,#0x3
        LCALL     ?DEALLOC_XSTACK8
          CFI CFA_XSP16 add(XSP16, 14)
// 2150 
// 2151     MT_BuildAndSendZToolResponse(((uint8)MT_RPC_CMD_AREQ | (uint8)MT_RPC_SYS_ZDO),
// 2152                                          MT_ZDO_MSG_CB_INCOMING, len, pBuf);
        ; Setup parameters for call to function MT_BuildAndSendZToolResponse
        MOV       A,R6
        MOV       R4,A
        MOV       A,R7
        MOV       R5,A
        MOV       R3,?V3
        MOV       R2,#-0x1
        MOV       R1,#0x45
        LCALL     `??MT_BuildAndSendZToolResponse::?relay`; Banked call to: MT_BuildAndSendZToolResponse
// 2153 
// 2154     osal_mem_free(pBuf);
        ; Setup parameters for call to function osal_mem_free
        MOV       A,R6
        MOV       R2,A
        MOV       A,R7
        MOV       R3,A
        LCALL     `??osal_mem_free::?relay`; Banked call to: osal_mem_free
// 2155   }
// 2156 }
??MT_ZdoSendMsgCB_0:
        LJMP      ?Subroutine2 & 0xFFFF
          CFI EndBlock cfiBlock299

        RSEG BANKED_CODE:HUGECODE:NOROOT(0)
?Subroutine45:
          CFI Block cfiCond300 Using cfiCommon0
          CFI Function MT_ZdoSendMsgCB
          CFI Conditional ??CrossCallReturnLabel_83
          CFI R6 load(1, XDATA, add(CFA_XSP16, literal(-14)))
          CFI VB load(1, XDATA, add(CFA_XSP16, literal(-13)))
          CFI V0 load(1, XDATA, add(CFA_XSP16, literal(-12)))
          CFI V1 load(1, XDATA, add(CFA_XSP16, literal(-11)))
          CFI V2 load(1, XDATA, add(CFA_XSP16, literal(-10)))
          CFI V3 load(1, XDATA, add(CFA_XSP16, literal(-9)))
          CFI V4 load(1, XDATA, add(CFA_XSP16, literal(-8)))
          CFI V5 load(1, XDATA, add(CFA_XSP16, literal(-7)))
          CFI R7 load(1, XDATA, add(CFA_XSP16, literal(-6)))
          CFI ?RET_LOW load(1, XDATA, add(CFA_XSP16, literal(-5)))
          CFI ?RET_HIGH load(1, XDATA, add(CFA_XSP16, literal(-4)))
          CFI ?BRET_EXT load(1, XDATA, add(CFA_XSP16, literal(-3)))
          CFI DPL0 load(1, XDATA, add(CFA_XSP16, literal(-2)))
          CFI DPH0 load(1, XDATA, add(CFA_XSP16, literal(-1)))
          CFI CFA_SP SP+-2
          CFI CFA_XSP16 add(XSP16, 14)
          CFI Block cfiCond301 Using cfiCommon0
          CFI (cfiCond301) Function MT_ZdoSendMsgCB
          CFI (cfiCond301) Conditional ??CrossCallReturnLabel_84
          CFI (cfiCond301) R6 load(1, XDATA, add(CFA_XSP16, literal(-14)))
          CFI (cfiCond301) VB load(1, XDATA, add(CFA_XSP16, literal(-13)))
          CFI (cfiCond301) V0 load(1, XDATA, add(CFA_XSP16, literal(-12)))
          CFI (cfiCond301) V1 load(1, XDATA, add(CFA_XSP16, literal(-11)))
          CFI (cfiCond301) V2 load(1, XDATA, add(CFA_XSP16, literal(-10)))
          CFI (cfiCond301) V3 load(1, XDATA, add(CFA_XSP16, literal(-9)))
          CFI (cfiCond301) V4 load(1, XDATA, add(CFA_XSP16, literal(-8)))
          CFI (cfiCond301) V5 load(1, XDATA, add(CFA_XSP16, literal(-7)))
          CFI (cfiCond301) R7 load(1, XDATA, add(CFA_XSP16, literal(-6)))
          CFI (cfiCond301) ?RET_LOW load(1, XDATA, add(CFA_XSP16, literal(-5)))
          CFI (cfiCond301) ?RET_HIGH load(1, XDATA, add(CFA_XSP16, literal(-4)))
          CFI (cfiCond301) ?BRET_EXT load(1, XDATA, add(CFA_XSP16, literal(-3)))
          CFI (cfiCond301) DPL0 load(1, XDATA, add(CFA_XSP16, literal(-2)))
          CFI (cfiCond301) DPH0 load(1, XDATA, add(CFA_XSP16, literal(-1)))
          CFI (cfiCond301) CFA_SP SP+-2
          CFI (cfiCond301) CFA_XSP16 add(XSP16, 17)
          CFI Block cfiPicker302 Using cfiCommon1
          CFI (cfiPicker302) NoFunction
          CFI (cfiPicker302) Picker
        ADD       A,#0x10
        MOV       DPL,A
        CLR       A
        ADDC      A,?V5
        MOV       DPH,A
        MOVX      A,@DPTR
        RET
          CFI EndBlock cfiCond300
          CFI EndBlock cfiCond301
          CFI EndBlock cfiPicker302

        RSEG BANKED_CODE:HUGECODE:NOROOT(0)
?Subroutine44:
          CFI Block cfiCond303 Using cfiCommon0
          CFI Function MT_ZdoSendMsgCB
          CFI Conditional ??CrossCallReturnLabel_80
          CFI R6 load(1, XDATA, add(CFA_XSP16, literal(-14)))
          CFI VB load(1, XDATA, add(CFA_XSP16, literal(-13)))
          CFI V0 load(1, XDATA, add(CFA_XSP16, literal(-12)))
          CFI V1 load(1, XDATA, add(CFA_XSP16, literal(-11)))
          CFI V2 load(1, XDATA, add(CFA_XSP16, literal(-10)))
          CFI V3 load(1, XDATA, add(CFA_XSP16, literal(-9)))
          CFI V4 load(1, XDATA, add(CFA_XSP16, literal(-8)))
          CFI V5 load(1, XDATA, add(CFA_XSP16, literal(-7)))
          CFI R7 load(1, XDATA, add(CFA_XSP16, literal(-6)))
          CFI ?RET_LOW load(1, XDATA, add(CFA_XSP16, literal(-5)))
          CFI ?RET_HIGH load(1, XDATA, add(CFA_XSP16, literal(-4)))
          CFI ?BRET_EXT load(1, XDATA, add(CFA_XSP16, literal(-3)))
          CFI DPL0 load(1, XDATA, add(CFA_XSP16, literal(-2)))
          CFI DPH0 load(1, XDATA, add(CFA_XSP16, literal(-1)))
          CFI CFA_SP SP+-2
          CFI CFA_XSP16 add(XSP16, 14)
          CFI Block cfiCond304 Using cfiCommon0
          CFI (cfiCond304) Function MT_ZdoSendMsgCB
          CFI (cfiCond304) Conditional ??CrossCallReturnLabel_81
          CFI (cfiCond304) R6 load(1, XDATA, add(CFA_XSP16, literal(-14)))
          CFI (cfiCond304) VB load(1, XDATA, add(CFA_XSP16, literal(-13)))
          CFI (cfiCond304) V0 load(1, XDATA, add(CFA_XSP16, literal(-12)))
          CFI (cfiCond304) V1 load(1, XDATA, add(CFA_XSP16, literal(-11)))
          CFI (cfiCond304) V2 load(1, XDATA, add(CFA_XSP16, literal(-10)))
          CFI (cfiCond304) V3 load(1, XDATA, add(CFA_XSP16, literal(-9)))
          CFI (cfiCond304) V4 load(1, XDATA, add(CFA_XSP16, literal(-8)))
          CFI (cfiCond304) V5 load(1, XDATA, add(CFA_XSP16, literal(-7)))
          CFI (cfiCond304) R7 load(1, XDATA, add(CFA_XSP16, literal(-6)))
          CFI (cfiCond304) ?RET_LOW load(1, XDATA, add(CFA_XSP16, literal(-5)))
          CFI (cfiCond304) ?RET_HIGH load(1, XDATA, add(CFA_XSP16, literal(-4)))
          CFI (cfiCond304) ?BRET_EXT load(1, XDATA, add(CFA_XSP16, literal(-3)))
          CFI (cfiCond304) DPL0 load(1, XDATA, add(CFA_XSP16, literal(-2)))
          CFI (cfiCond304) DPH0 load(1, XDATA, add(CFA_XSP16, literal(-1)))
          CFI (cfiCond304) CFA_SP SP+-2
          CFI (cfiCond304) CFA_XSP16 add(XSP16, 14)
          CFI Block cfiCond305 Using cfiCommon0
          CFI (cfiCond305) Function MT_ZdoSendMsgCB
          CFI (cfiCond305) Conditional ??CrossCallReturnLabel_82
          CFI (cfiCond305) R6 load(1, XDATA, add(CFA_XSP16, literal(-14)))
          CFI (cfiCond305) VB load(1, XDATA, add(CFA_XSP16, literal(-13)))
          CFI (cfiCond305) V0 load(1, XDATA, add(CFA_XSP16, literal(-12)))
          CFI (cfiCond305) V1 load(1, XDATA, add(CFA_XSP16, literal(-11)))
          CFI (cfiCond305) V2 load(1, XDATA, add(CFA_XSP16, literal(-10)))
          CFI (cfiCond305) V3 load(1, XDATA, add(CFA_XSP16, literal(-9)))
          CFI (cfiCond305) V4 load(1, XDATA, add(CFA_XSP16, literal(-8)))
          CFI (cfiCond305) V5 load(1, XDATA, add(CFA_XSP16, literal(-7)))
          CFI (cfiCond305) R7 load(1, XDATA, add(CFA_XSP16, literal(-6)))
          CFI (cfiCond305) ?RET_LOW load(1, XDATA, add(CFA_XSP16, literal(-5)))
          CFI (cfiCond305) ?RET_HIGH load(1, XDATA, add(CFA_XSP16, literal(-4)))
          CFI (cfiCond305) ?BRET_EXT load(1, XDATA, add(CFA_XSP16, literal(-3)))
          CFI (cfiCond305) DPL0 load(1, XDATA, add(CFA_XSP16, literal(-2)))
          CFI (cfiCond305) DPH0 load(1, XDATA, add(CFA_XSP16, literal(-1)))
          CFI (cfiCond305) CFA_SP SP+-2
          CFI (cfiCond305) CFA_XSP16 add(XSP16, 14)
          CFI Block cfiPicker306 Using cfiCommon1
          CFI (cfiPicker306) NoFunction
          CFI (cfiPicker306) Picker
        MOV       R0,A
        CLR       A
        ADDC      A,?V5
        MOV       R1,A
        MOV       DPL,R0
        MOV       DPH,R1
        RET
          CFI EndBlock cfiCond303
          CFI EndBlock cfiCond304
          CFI EndBlock cfiCond305
          CFI EndBlock cfiPicker306

        RSEG BANKED_CODE:HUGECODE:NOROOT(0)
?Subroutine37:
          CFI Block cfiCond307 Using cfiCommon0
          CFI Function MT_ZdoMatchDescRequest
          CFI Conditional ??CrossCallReturnLabel_66
          CFI R6 load(1, XDATA, add(CFA_XSP16, literal(-14)))
          CFI VB load(1, XDATA, add(CFA_XSP16, literal(-13)))
          CFI V0 load(1, XDATA, add(CFA_XSP16, literal(-12)))
          CFI V1 load(1, XDATA, add(CFA_XSP16, literal(-11)))
          CFI V2 load(1, XDATA, add(CFA_XSP16, literal(-10)))
          CFI V3 load(1, XDATA, add(CFA_XSP16, literal(-9)))
          CFI V4 load(1, XDATA, add(CFA_XSP16, literal(-8)))
          CFI V5 load(1, XDATA, add(CFA_XSP16, literal(-7)))
          CFI R7 load(1, XDATA, add(CFA_XSP16, literal(-6)))
          CFI ?RET_LOW load(1, XDATA, add(CFA_XSP16, literal(-5)))
          CFI ?RET_HIGH load(1, XDATA, add(CFA_XSP16, literal(-4)))
          CFI ?BRET_EXT load(1, XDATA, add(CFA_XSP16, literal(-3)))
          CFI DPL0 load(1, XDATA, add(CFA_XSP16, literal(-2)))
          CFI DPH0 load(1, XDATA, add(CFA_XSP16, literal(-1)))
          CFI CFA_SP SP+-2
          CFI CFA_XSP16 add(XSP16, 88)
          CFI Block cfiCond308 Using cfiCommon0
          CFI (cfiCond308) Function MT_ZdoSendMsgCB
          CFI (cfiCond308) Conditional ??CrossCallReturnLabel_67
          CFI (cfiCond308) R6 load(1, XDATA, add(CFA_XSP16, literal(-14)))
          CFI (cfiCond308) VB load(1, XDATA, add(CFA_XSP16, literal(-13)))
          CFI (cfiCond308) V0 load(1, XDATA, add(CFA_XSP16, literal(-12)))
          CFI (cfiCond308) V1 load(1, XDATA, add(CFA_XSP16, literal(-11)))
          CFI (cfiCond308) V2 load(1, XDATA, add(CFA_XSP16, literal(-10)))
          CFI (cfiCond308) V3 load(1, XDATA, add(CFA_XSP16, literal(-9)))
          CFI (cfiCond308) V4 load(1, XDATA, add(CFA_XSP16, literal(-8)))
          CFI (cfiCond308) V5 load(1, XDATA, add(CFA_XSP16, literal(-7)))
          CFI (cfiCond308) R7 load(1, XDATA, add(CFA_XSP16, literal(-6)))
          CFI (cfiCond308) ?RET_LOW load(1, XDATA, add(CFA_XSP16, literal(-5)))
          CFI (cfiCond308) ?RET_HIGH load(1, XDATA, add(CFA_XSP16, literal(-4)))
          CFI (cfiCond308) ?BRET_EXT load(1, XDATA, add(CFA_XSP16, literal(-3)))
          CFI (cfiCond308) DPL0 load(1, XDATA, add(CFA_XSP16, literal(-2)))
          CFI (cfiCond308) DPH0 load(1, XDATA, add(CFA_XSP16, literal(-1)))
          CFI (cfiCond308) CFA_SP SP+-2
          CFI (cfiCond308) CFA_XSP16 add(XSP16, 14)
          CFI Block cfiCond309 Using cfiCommon0
          CFI (cfiCond309) Function MT_ZdoSendMsgCB
          CFI (cfiCond309) Conditional ??CrossCallReturnLabel_68
          CFI (cfiCond309) R6 load(1, XDATA, add(CFA_XSP16, literal(-14)))
          CFI (cfiCond309) VB load(1, XDATA, add(CFA_XSP16, literal(-13)))
          CFI (cfiCond309) V0 load(1, XDATA, add(CFA_XSP16, literal(-12)))
          CFI (cfiCond309) V1 load(1, XDATA, add(CFA_XSP16, literal(-11)))
          CFI (cfiCond309) V2 load(1, XDATA, add(CFA_XSP16, literal(-10)))
          CFI (cfiCond309) V3 load(1, XDATA, add(CFA_XSP16, literal(-9)))
          CFI (cfiCond309) V4 load(1, XDATA, add(CFA_XSP16, literal(-8)))
          CFI (cfiCond309) V5 load(1, XDATA, add(CFA_XSP16, literal(-7)))
          CFI (cfiCond309) R7 load(1, XDATA, add(CFA_XSP16, literal(-6)))
          CFI (cfiCond309) ?RET_LOW load(1, XDATA, add(CFA_XSP16, literal(-5)))
          CFI (cfiCond309) ?RET_HIGH load(1, XDATA, add(CFA_XSP16, literal(-4)))
          CFI (cfiCond309) ?BRET_EXT load(1, XDATA, add(CFA_XSP16, literal(-3)))
          CFI (cfiCond309) DPL0 load(1, XDATA, add(CFA_XSP16, literal(-2)))
          CFI (cfiCond309) DPH0 load(1, XDATA, add(CFA_XSP16, literal(-1)))
          CFI (cfiCond309) CFA_SP SP+-2
          CFI (cfiCond309) CFA_XSP16 add(XSP16, 14)
          CFI Block cfiPicker310 Using cfiCommon1
          CFI (cfiPicker310) NoFunction
          CFI (cfiPicker310) Picker
        LCALL     ?Subroutine54 & 0xFFFF
??CrossCallReturnLabel_101:
        INC       DPTR
        RET
          CFI EndBlock cfiCond307
          CFI EndBlock cfiCond308
          CFI EndBlock cfiCond309
          CFI EndBlock cfiPicker310

        RSEG BANKED_CODE:HUGECODE:NOROOT(0)
?Subroutine54:
          CFI Block cfiCond311 Using cfiCommon0
          CFI Function MT_ZdoMatchDescRequest
          CFI Conditional ??CrossCallReturnLabel_99
          CFI R6 load(1, XDATA, add(CFA_XSP16, literal(-14)))
          CFI VB load(1, XDATA, add(CFA_XSP16, literal(-13)))
          CFI V0 load(1, XDATA, add(CFA_XSP16, literal(-12)))
          CFI V1 load(1, XDATA, add(CFA_XSP16, literal(-11)))
          CFI V2 load(1, XDATA, add(CFA_XSP16, literal(-10)))
          CFI V3 load(1, XDATA, add(CFA_XSP16, literal(-9)))
          CFI V4 load(1, XDATA, add(CFA_XSP16, literal(-8)))
          CFI V5 load(1, XDATA, add(CFA_XSP16, literal(-7)))
          CFI R7 load(1, XDATA, add(CFA_XSP16, literal(-6)))
          CFI ?RET_LOW load(1, XDATA, add(CFA_XSP16, literal(-5)))
          CFI ?RET_HIGH load(1, XDATA, add(CFA_XSP16, literal(-4)))
          CFI ?BRET_EXT load(1, XDATA, add(CFA_XSP16, literal(-3)))
          CFI DPL0 load(1, XDATA, add(CFA_XSP16, literal(-2)))
          CFI DPH0 load(1, XDATA, add(CFA_XSP16, literal(-1)))
          CFI CFA_SP SP+-2
          CFI CFA_XSP16 add(XSP16, 88)
          CFI Block cfiCond312 Using cfiCommon0
          CFI (cfiCond312) Function MT_ZdoBeaconIndCB
          CFI (cfiCond312) Conditional ??CrossCallReturnLabel_100
          CFI (cfiCond312) R6 load(1, XDATA, add(CFA_XSP16, literal(-11)))
          CFI (cfiCond312) VB load(1, XDATA, add(CFA_XSP16, literal(-10)))
          CFI (cfiCond312) V0 load(1, XDATA, add(CFA_XSP16, literal(-9)))
          CFI (cfiCond312) V1 load(1, XDATA, add(CFA_XSP16, literal(-8)))
          CFI (cfiCond312) V2 load(1, XDATA, add(CFA_XSP16, literal(-7)))
          CFI (cfiCond312) R7 load(1, XDATA, add(CFA_XSP16, literal(-6)))
          CFI (cfiCond312) ?RET_LOW load(1, XDATA, add(CFA_XSP16, literal(-5)))
          CFI (cfiCond312) ?RET_HIGH load(1, XDATA, add(CFA_XSP16, literal(-4)))
          CFI (cfiCond312) ?BRET_EXT load(1, XDATA, add(CFA_XSP16, literal(-3)))
          CFI (cfiCond312) DPL0 load(1, XDATA, add(CFA_XSP16, literal(-2)))
          CFI (cfiCond312) DPH0 load(1, XDATA, add(CFA_XSP16, literal(-1)))
          CFI (cfiCond312) CFA_SP SP+-2
          CFI (cfiCond312) CFA_XSP16 add(XSP16, 11)
          CFI Block cfiCond313 Using cfiCommon0
          CFI (cfiCond313) Function MT_ZdoMatchDescRequest
          CFI (cfiCond313) Conditional ??CrossCallReturnLabel_101, ??CrossCallReturnLabel_66
          CFI (cfiCond313) R6 load(1, XDATA, add(CFA_XSP16, literal(-14)))
          CFI (cfiCond313) VB load(1, XDATA, add(CFA_XSP16, literal(-13)))
          CFI (cfiCond313) V0 load(1, XDATA, add(CFA_XSP16, literal(-12)))
          CFI (cfiCond313) V1 load(1, XDATA, add(CFA_XSP16, literal(-11)))
          CFI (cfiCond313) V2 load(1, XDATA, add(CFA_XSP16, literal(-10)))
          CFI (cfiCond313) V3 load(1, XDATA, add(CFA_XSP16, literal(-9)))
          CFI (cfiCond313) V4 load(1, XDATA, add(CFA_XSP16, literal(-8)))
          CFI (cfiCond313) V5 load(1, XDATA, add(CFA_XSP16, literal(-7)))
          CFI (cfiCond313) R7 load(1, XDATA, add(CFA_XSP16, literal(-6)))
          CFI (cfiCond313) ?RET_LOW load(1, XDATA, add(CFA_XSP16, literal(-5)))
          CFI (cfiCond313) ?RET_HIGH load(1, XDATA, add(CFA_XSP16, literal(-4)))
          CFI (cfiCond313) ?BRET_EXT load(1, XDATA, add(CFA_XSP16, literal(-3)))
          CFI (cfiCond313) DPL0 load(1, XDATA, add(CFA_XSP16, literal(-2)))
          CFI (cfiCond313) DPH0 load(1, XDATA, add(CFA_XSP16, literal(-1)))
          CFI (cfiCond313) CFA_SP SP+-4
          CFI (cfiCond313) CFA_XSP16 add(XSP16, 88)
          CFI Block cfiCond314 Using cfiCommon0
          CFI (cfiCond314) Function MT_ZdoSendMsgCB
          CFI (cfiCond314) Conditional ??CrossCallReturnLabel_101, ??CrossCallReturnLabel_67
          CFI (cfiCond314) R6 load(1, XDATA, add(CFA_XSP16, literal(-14)))
          CFI (cfiCond314) VB load(1, XDATA, add(CFA_XSP16, literal(-13)))
          CFI (cfiCond314) V0 load(1, XDATA, add(CFA_XSP16, literal(-12)))
          CFI (cfiCond314) V1 load(1, XDATA, add(CFA_XSP16, literal(-11)))
          CFI (cfiCond314) V2 load(1, XDATA, add(CFA_XSP16, literal(-10)))
          CFI (cfiCond314) V3 load(1, XDATA, add(CFA_XSP16, literal(-9)))
          CFI (cfiCond314) V4 load(1, XDATA, add(CFA_XSP16, literal(-8)))
          CFI (cfiCond314) V5 load(1, XDATA, add(CFA_XSP16, literal(-7)))
          CFI (cfiCond314) R7 load(1, XDATA, add(CFA_XSP16, literal(-6)))
          CFI (cfiCond314) ?RET_LOW load(1, XDATA, add(CFA_XSP16, literal(-5)))
          CFI (cfiCond314) ?RET_HIGH load(1, XDATA, add(CFA_XSP16, literal(-4)))
          CFI (cfiCond314) ?BRET_EXT load(1, XDATA, add(CFA_XSP16, literal(-3)))
          CFI (cfiCond314) DPL0 load(1, XDATA, add(CFA_XSP16, literal(-2)))
          CFI (cfiCond314) DPH0 load(1, XDATA, add(CFA_XSP16, literal(-1)))
          CFI (cfiCond314) CFA_SP SP+-4
          CFI (cfiCond314) CFA_XSP16 add(XSP16, 14)
          CFI Block cfiCond315 Using cfiCommon0
          CFI (cfiCond315) Function MT_ZdoSendMsgCB
          CFI (cfiCond315) Conditional ??CrossCallReturnLabel_101, ??CrossCallReturnLabel_68
          CFI (cfiCond315) R6 load(1, XDATA, add(CFA_XSP16, literal(-14)))
          CFI (cfiCond315) VB load(1, XDATA, add(CFA_XSP16, literal(-13)))
          CFI (cfiCond315) V0 load(1, XDATA, add(CFA_XSP16, literal(-12)))
          CFI (cfiCond315) V1 load(1, XDATA, add(CFA_XSP16, literal(-11)))
          CFI (cfiCond315) V2 load(1, XDATA, add(CFA_XSP16, literal(-10)))
          CFI (cfiCond315) V3 load(1, XDATA, add(CFA_XSP16, literal(-9)))
          CFI (cfiCond315) V4 load(1, XDATA, add(CFA_XSP16, literal(-8)))
          CFI (cfiCond315) V5 load(1, XDATA, add(CFA_XSP16, literal(-7)))
          CFI (cfiCond315) R7 load(1, XDATA, add(CFA_XSP16, literal(-6)))
          CFI (cfiCond315) ?RET_LOW load(1, XDATA, add(CFA_XSP16, literal(-5)))
          CFI (cfiCond315) ?RET_HIGH load(1, XDATA, add(CFA_XSP16, literal(-4)))
          CFI (cfiCond315) ?BRET_EXT load(1, XDATA, add(CFA_XSP16, literal(-3)))
          CFI (cfiCond315) DPL0 load(1, XDATA, add(CFA_XSP16, literal(-2)))
          CFI (cfiCond315) DPH0 load(1, XDATA, add(CFA_XSP16, literal(-1)))
          CFI (cfiCond315) CFA_SP SP+-4
          CFI (cfiCond315) CFA_XSP16 add(XSP16, 14)
          CFI Block cfiCond316 Using cfiCommon0
          CFI (cfiCond316) Function MT_ZdoJoinCnfCB
          CFI (cfiCond316) Conditional ??CrossCallReturnLabel_102, ??CrossCallReturnLabel_61
          CFI (cfiCond316) R6 load(1, XDATA, add(CFA_XSP16, literal(-9)))
          CFI (cfiCond316) VB load(1, XDATA, add(CFA_XSP16, literal(-8)))
          CFI (cfiCond316) V0 load(1, XDATA, add(CFA_XSP16, literal(-7)))
          CFI (cfiCond316) R7 load(1, XDATA, add(CFA_XSP16, literal(-6)))
          CFI (cfiCond316) ?RET_LOW load(1, XDATA, add(CFA_XSP16, literal(-5)))
          CFI (cfiCond316) ?RET_HIGH load(1, XDATA, add(CFA_XSP16, literal(-4)))
          CFI (cfiCond316) ?BRET_EXT load(1, XDATA, add(CFA_XSP16, literal(-3)))
          CFI (cfiCond316) DPL0 load(1, XDATA, add(CFA_XSP16, literal(-2)))
          CFI (cfiCond316) DPH0 load(1, XDATA, add(CFA_XSP16, literal(-1)))
          CFI (cfiCond316) CFA_SP SP+-4
          CFI (cfiCond316) CFA_XSP16 add(XSP16, 14)
          CFI Block cfiCond317 Using cfiCommon0
          CFI (cfiCond317) Function MT_ZdoJoinCnfCB
          CFI (cfiCond317) Conditional ??CrossCallReturnLabel_102, ??CrossCallReturnLabel_62
          CFI (cfiCond317) R6 load(1, XDATA, add(CFA_XSP16, literal(-9)))
          CFI (cfiCond317) VB load(1, XDATA, add(CFA_XSP16, literal(-8)))
          CFI (cfiCond317) V0 load(1, XDATA, add(CFA_XSP16, literal(-7)))
          CFI (cfiCond317) R7 load(1, XDATA, add(CFA_XSP16, literal(-6)))
          CFI (cfiCond317) ?RET_LOW load(1, XDATA, add(CFA_XSP16, literal(-5)))
          CFI (cfiCond317) ?RET_HIGH load(1, XDATA, add(CFA_XSP16, literal(-4)))
          CFI (cfiCond317) ?BRET_EXT load(1, XDATA, add(CFA_XSP16, literal(-3)))
          CFI (cfiCond317) DPL0 load(1, XDATA, add(CFA_XSP16, literal(-2)))
          CFI (cfiCond317) DPH0 load(1, XDATA, add(CFA_XSP16, literal(-1)))
          CFI (cfiCond317) CFA_SP SP+-4
          CFI (cfiCond317) CFA_XSP16 add(XSP16, 14)
          CFI Block cfiCond318 Using cfiCommon0
          CFI (cfiCond318) Function MT_ZdoSendMsgCB
          CFI (cfiCond318) Conditional ??CrossCallReturnLabel_102, ??CrossCallReturnLabel_63
          CFI (cfiCond318) R6 load(1, XDATA, add(CFA_XSP16, literal(-14)))
          CFI (cfiCond318) VB load(1, XDATA, add(CFA_XSP16, literal(-13)))
          CFI (cfiCond318) V0 load(1, XDATA, add(CFA_XSP16, literal(-12)))
          CFI (cfiCond318) V1 load(1, XDATA, add(CFA_XSP16, literal(-11)))
          CFI (cfiCond318) V2 load(1, XDATA, add(CFA_XSP16, literal(-10)))
          CFI (cfiCond318) V3 load(1, XDATA, add(CFA_XSP16, literal(-9)))
          CFI (cfiCond318) V4 load(1, XDATA, add(CFA_XSP16, literal(-8)))
          CFI (cfiCond318) V5 load(1, XDATA, add(CFA_XSP16, literal(-7)))
          CFI (cfiCond318) R7 load(1, XDATA, add(CFA_XSP16, literal(-6)))
          CFI (cfiCond318) ?RET_LOW load(1, XDATA, add(CFA_XSP16, literal(-5)))
          CFI (cfiCond318) ?RET_HIGH load(1, XDATA, add(CFA_XSP16, literal(-4)))
          CFI (cfiCond318) ?BRET_EXT load(1, XDATA, add(CFA_XSP16, literal(-3)))
          CFI (cfiCond318) DPL0 load(1, XDATA, add(CFA_XSP16, literal(-2)))
          CFI (cfiCond318) DPH0 load(1, XDATA, add(CFA_XSP16, literal(-1)))
          CFI (cfiCond318) CFA_SP SP+-4
          CFI (cfiCond318) CFA_XSP16 add(XSP16, 14)
          CFI Block cfiPicker319 Using cfiCommon1
          CFI (cfiPicker319) NoFunction
          CFI (cfiPicker319) Picker
        MOVX      @DPTR,A
        MOV       DPL,R0
        MOV       DPH,R1
        RET
          CFI EndBlock cfiCond311
          CFI EndBlock cfiCond312
          CFI EndBlock cfiCond313
          CFI EndBlock cfiCond314
          CFI EndBlock cfiCond315
          CFI EndBlock cfiCond316
          CFI EndBlock cfiCond317
          CFI EndBlock cfiCond318
          CFI EndBlock cfiPicker319

        RSEG BANKED_CODE:HUGECODE:NOROOT(0)
?Subroutine35:
          CFI Block cfiCond320 Using cfiCommon0
          CFI Function MT_ZdoJoinCnfCB
          CFI Conditional ??CrossCallReturnLabel_61
          CFI R6 load(1, XDATA, add(CFA_XSP16, literal(-9)))
          CFI VB load(1, XDATA, add(CFA_XSP16, literal(-8)))
          CFI V0 load(1, XDATA, add(CFA_XSP16, literal(-7)))
          CFI R7 load(1, XDATA, add(CFA_XSP16, literal(-6)))
          CFI ?RET_LOW load(1, XDATA, add(CFA_XSP16, literal(-5)))
          CFI ?RET_HIGH load(1, XDATA, add(CFA_XSP16, literal(-4)))
          CFI ?BRET_EXT load(1, XDATA, add(CFA_XSP16, literal(-3)))
          CFI DPL0 load(1, XDATA, add(CFA_XSP16, literal(-2)))
          CFI DPH0 load(1, XDATA, add(CFA_XSP16, literal(-1)))
          CFI CFA_SP SP+-2
          CFI CFA_XSP16 add(XSP16, 14)
          CFI Block cfiCond321 Using cfiCommon0
          CFI (cfiCond321) Function MT_ZdoJoinCnfCB
          CFI (cfiCond321) Conditional ??CrossCallReturnLabel_62
          CFI (cfiCond321) R6 load(1, XDATA, add(CFA_XSP16, literal(-9)))
          CFI (cfiCond321) VB load(1, XDATA, add(CFA_XSP16, literal(-8)))
          CFI (cfiCond321) V0 load(1, XDATA, add(CFA_XSP16, literal(-7)))
          CFI (cfiCond321) R7 load(1, XDATA, add(CFA_XSP16, literal(-6)))
          CFI (cfiCond321) ?RET_LOW load(1, XDATA, add(CFA_XSP16, literal(-5)))
          CFI (cfiCond321) ?RET_HIGH load(1, XDATA, add(CFA_XSP16, literal(-4)))
          CFI (cfiCond321) ?BRET_EXT load(1, XDATA, add(CFA_XSP16, literal(-3)))
          CFI (cfiCond321) DPL0 load(1, XDATA, add(CFA_XSP16, literal(-2)))
          CFI (cfiCond321) DPH0 load(1, XDATA, add(CFA_XSP16, literal(-1)))
          CFI (cfiCond321) CFA_SP SP+-2
          CFI (cfiCond321) CFA_XSP16 add(XSP16, 14)
          CFI Block cfiCond322 Using cfiCommon0
          CFI (cfiCond322) Function MT_ZdoSendMsgCB
          CFI (cfiCond322) Conditional ??CrossCallReturnLabel_63
          CFI (cfiCond322) R6 load(1, XDATA, add(CFA_XSP16, literal(-14)))
          CFI (cfiCond322) VB load(1, XDATA, add(CFA_XSP16, literal(-13)))
          CFI (cfiCond322) V0 load(1, XDATA, add(CFA_XSP16, literal(-12)))
          CFI (cfiCond322) V1 load(1, XDATA, add(CFA_XSP16, literal(-11)))
          CFI (cfiCond322) V2 load(1, XDATA, add(CFA_XSP16, literal(-10)))
          CFI (cfiCond322) V3 load(1, XDATA, add(CFA_XSP16, literal(-9)))
          CFI (cfiCond322) V4 load(1, XDATA, add(CFA_XSP16, literal(-8)))
          CFI (cfiCond322) V5 load(1, XDATA, add(CFA_XSP16, literal(-7)))
          CFI (cfiCond322) R7 load(1, XDATA, add(CFA_XSP16, literal(-6)))
          CFI (cfiCond322) ?RET_LOW load(1, XDATA, add(CFA_XSP16, literal(-5)))
          CFI (cfiCond322) ?RET_HIGH load(1, XDATA, add(CFA_XSP16, literal(-4)))
          CFI (cfiCond322) ?BRET_EXT load(1, XDATA, add(CFA_XSP16, literal(-3)))
          CFI (cfiCond322) DPL0 load(1, XDATA, add(CFA_XSP16, literal(-2)))
          CFI (cfiCond322) DPH0 load(1, XDATA, add(CFA_XSP16, literal(-1)))
          CFI (cfiCond322) CFA_SP SP+-2
          CFI (cfiCond322) CFA_XSP16 add(XSP16, 14)
          CFI Block cfiPicker323 Using cfiCommon1
          CFI (cfiPicker323) NoFunction
          CFI (cfiPicker323) Picker
        LCALL     ?Subroutine54 & 0xFFFF
??CrossCallReturnLabel_102:
        INC       DPTR
        MOVX      A,@DPTR
        RET
          CFI EndBlock cfiCond320
          CFI EndBlock cfiCond321
          CFI EndBlock cfiCond322
          CFI EndBlock cfiPicker323

        RSEG BANKED_CODE:HUGECODE:NOROOT(0)
?Subroutine28:
          CFI Block cfiCond324 Using cfiCommon0
          CFI Function MT_ZdoSendMsgCB
          CFI Conditional ??CrossCallReturnLabel_42
          CFI R6 load(1, XDATA, add(CFA_XSP16, literal(-14)))
          CFI VB load(1, XDATA, add(CFA_XSP16, literal(-13)))
          CFI V0 load(1, XDATA, add(CFA_XSP16, literal(-12)))
          CFI V1 load(1, XDATA, add(CFA_XSP16, literal(-11)))
          CFI V2 load(1, XDATA, add(CFA_XSP16, literal(-10)))
          CFI V3 load(1, XDATA, add(CFA_XSP16, literal(-9)))
          CFI V4 load(1, XDATA, add(CFA_XSP16, literal(-8)))
          CFI V5 load(1, XDATA, add(CFA_XSP16, literal(-7)))
          CFI R7 load(1, XDATA, add(CFA_XSP16, literal(-6)))
          CFI ?RET_LOW load(1, XDATA, add(CFA_XSP16, literal(-5)))
          CFI ?RET_HIGH load(1, XDATA, add(CFA_XSP16, literal(-4)))
          CFI ?BRET_EXT load(1, XDATA, add(CFA_XSP16, literal(-3)))
          CFI DPL0 load(1, XDATA, add(CFA_XSP16, literal(-2)))
          CFI DPH0 load(1, XDATA, add(CFA_XSP16, literal(-1)))
          CFI CFA_SP SP+-2
          CFI CFA_XSP16 add(XSP16, 14)
          CFI Block cfiCond325 Using cfiCommon0
          CFI (cfiCond325) Function MT_ZdoSendMsgCB
          CFI (cfiCond325) Conditional ??CrossCallReturnLabel_43
          CFI (cfiCond325) R6 load(1, XDATA, add(CFA_XSP16, literal(-14)))
          CFI (cfiCond325) VB load(1, XDATA, add(CFA_XSP16, literal(-13)))
          CFI (cfiCond325) V0 load(1, XDATA, add(CFA_XSP16, literal(-12)))
          CFI (cfiCond325) V1 load(1, XDATA, add(CFA_XSP16, literal(-11)))
          CFI (cfiCond325) V2 load(1, XDATA, add(CFA_XSP16, literal(-10)))
          CFI (cfiCond325) V3 load(1, XDATA, add(CFA_XSP16, literal(-9)))
          CFI (cfiCond325) V4 load(1, XDATA, add(CFA_XSP16, literal(-8)))
          CFI (cfiCond325) V5 load(1, XDATA, add(CFA_XSP16, literal(-7)))
          CFI (cfiCond325) R7 load(1, XDATA, add(CFA_XSP16, literal(-6)))
          CFI (cfiCond325) ?RET_LOW load(1, XDATA, add(CFA_XSP16, literal(-5)))
          CFI (cfiCond325) ?RET_HIGH load(1, XDATA, add(CFA_XSP16, literal(-4)))
          CFI (cfiCond325) ?BRET_EXT load(1, XDATA, add(CFA_XSP16, literal(-3)))
          CFI (cfiCond325) DPL0 load(1, XDATA, add(CFA_XSP16, literal(-2)))
          CFI (cfiCond325) DPH0 load(1, XDATA, add(CFA_XSP16, literal(-1)))
          CFI (cfiCond325) CFA_SP SP+-2
          CFI (cfiCond325) CFA_XSP16 add(XSP16, 14)
          CFI Block cfiPicker326 Using cfiCommon1
          CFI (cfiPicker326) NoFunction
          CFI (cfiPicker326) Picker
        LCALL     ?Subroutine58 & 0xFFFF
??CrossCallReturnLabel_107:
        RET
          CFI EndBlock cfiCond324
          CFI EndBlock cfiCond325
          CFI EndBlock cfiPicker326

        RSEG BANKED_CODE:HUGECODE:NOROOT(0)
?Subroutine58:
          CFI Block cfiCond327 Using cfiCommon0
          CFI Function MT_ZdoSendMsgCB
          CFI Conditional ??CrossCallReturnLabel_107, ??CrossCallReturnLabel_42
          CFI R6 load(1, XDATA, add(CFA_XSP16, literal(-14)))
          CFI VB load(1, XDATA, add(CFA_XSP16, literal(-13)))
          CFI V0 load(1, XDATA, add(CFA_XSP16, literal(-12)))
          CFI V1 load(1, XDATA, add(CFA_XSP16, literal(-11)))
          CFI V2 load(1, XDATA, add(CFA_XSP16, literal(-10)))
          CFI V3 load(1, XDATA, add(CFA_XSP16, literal(-9)))
          CFI V4 load(1, XDATA, add(CFA_XSP16, literal(-8)))
          CFI V5 load(1, XDATA, add(CFA_XSP16, literal(-7)))
          CFI R7 load(1, XDATA, add(CFA_XSP16, literal(-6)))
          CFI ?RET_LOW load(1, XDATA, add(CFA_XSP16, literal(-5)))
          CFI ?RET_HIGH load(1, XDATA, add(CFA_XSP16, literal(-4)))
          CFI ?BRET_EXT load(1, XDATA, add(CFA_XSP16, literal(-3)))
          CFI DPL0 load(1, XDATA, add(CFA_XSP16, literal(-2)))
          CFI DPH0 load(1, XDATA, add(CFA_XSP16, literal(-1)))
          CFI CFA_SP SP+-4
          CFI CFA_XSP16 add(XSP16, 14)
          CFI Block cfiCond328 Using cfiCommon0
          CFI (cfiCond328) Function MT_ZdoSendMsgCB
          CFI (cfiCond328) Conditional ??CrossCallReturnLabel_107, ??CrossCallReturnLabel_43
          CFI (cfiCond328) R6 load(1, XDATA, add(CFA_XSP16, literal(-14)))
          CFI (cfiCond328) VB load(1, XDATA, add(CFA_XSP16, literal(-13)))
          CFI (cfiCond328) V0 load(1, XDATA, add(CFA_XSP16, literal(-12)))
          CFI (cfiCond328) V1 load(1, XDATA, add(CFA_XSP16, literal(-11)))
          CFI (cfiCond328) V2 load(1, XDATA, add(CFA_XSP16, literal(-10)))
          CFI (cfiCond328) V3 load(1, XDATA, add(CFA_XSP16, literal(-9)))
          CFI (cfiCond328) V4 load(1, XDATA, add(CFA_XSP16, literal(-8)))
          CFI (cfiCond328) V5 load(1, XDATA, add(CFA_XSP16, literal(-7)))
          CFI (cfiCond328) R7 load(1, XDATA, add(CFA_XSP16, literal(-6)))
          CFI (cfiCond328) ?RET_LOW load(1, XDATA, add(CFA_XSP16, literal(-5)))
          CFI (cfiCond328) ?RET_HIGH load(1, XDATA, add(CFA_XSP16, literal(-4)))
          CFI (cfiCond328) ?BRET_EXT load(1, XDATA, add(CFA_XSP16, literal(-3)))
          CFI (cfiCond328) DPL0 load(1, XDATA, add(CFA_XSP16, literal(-2)))
          CFI (cfiCond328) DPH0 load(1, XDATA, add(CFA_XSP16, literal(-1)))
          CFI (cfiCond328) CFA_SP SP+-4
          CFI (cfiCond328) CFA_XSP16 add(XSP16, 14)
          CFI Block cfiCond329 Using cfiCommon0
          CFI (cfiCond329) Function MT_ZdoSendMsgCB
          CFI (cfiCond329) Conditional ??CrossCallReturnLabel_108, ??CrossCallReturnLabel_94, ??CrossCallReturnLabel_34
          CFI (cfiCond329) R6 load(1, XDATA, add(CFA_XSP16, literal(-14)))
          CFI (cfiCond329) VB load(1, XDATA, add(CFA_XSP16, literal(-13)))
          CFI (cfiCond329) V0 load(1, XDATA, add(CFA_XSP16, literal(-12)))
          CFI (cfiCond329) V1 load(1, XDATA, add(CFA_XSP16, literal(-11)))
          CFI (cfiCond329) V2 load(1, XDATA, add(CFA_XSP16, literal(-10)))
          CFI (cfiCond329) V3 load(1, XDATA, add(CFA_XSP16, literal(-9)))
          CFI (cfiCond329) V4 load(1, XDATA, add(CFA_XSP16, literal(-8)))
          CFI (cfiCond329) V5 load(1, XDATA, add(CFA_XSP16, literal(-7)))
          CFI (cfiCond329) R7 load(1, XDATA, add(CFA_XSP16, literal(-6)))
          CFI (cfiCond329) ?RET_LOW load(1, XDATA, add(CFA_XSP16, literal(-5)))
          CFI (cfiCond329) ?RET_HIGH load(1, XDATA, add(CFA_XSP16, literal(-4)))
          CFI (cfiCond329) ?BRET_EXT load(1, XDATA, add(CFA_XSP16, literal(-3)))
          CFI (cfiCond329) DPL0 load(1, XDATA, add(CFA_XSP16, literal(-2)))
          CFI (cfiCond329) DPH0 load(1, XDATA, add(CFA_XSP16, literal(-1)))
          CFI (cfiCond329) CFA_SP SP+-6
          CFI (cfiCond329) CFA_XSP16 add(XSP16, 14)
          CFI Block cfiCond330 Using cfiCommon0
          CFI (cfiCond330) Function MT_ZdoSendMsgCB
          CFI (cfiCond330) Conditional ??CrossCallReturnLabel_108, ??CrossCallReturnLabel_94, ??CrossCallReturnLabel_35
          CFI (cfiCond330) R6 load(1, XDATA, add(CFA_XSP16, literal(-14)))
          CFI (cfiCond330) VB load(1, XDATA, add(CFA_XSP16, literal(-13)))
          CFI (cfiCond330) V0 load(1, XDATA, add(CFA_XSP16, literal(-12)))
          CFI (cfiCond330) V1 load(1, XDATA, add(CFA_XSP16, literal(-11)))
          CFI (cfiCond330) V2 load(1, XDATA, add(CFA_XSP16, literal(-10)))
          CFI (cfiCond330) V3 load(1, XDATA, add(CFA_XSP16, literal(-9)))
          CFI (cfiCond330) V4 load(1, XDATA, add(CFA_XSP16, literal(-8)))
          CFI (cfiCond330) V5 load(1, XDATA, add(CFA_XSP16, literal(-7)))
          CFI (cfiCond330) R7 load(1, XDATA, add(CFA_XSP16, literal(-6)))
          CFI (cfiCond330) ?RET_LOW load(1, XDATA, add(CFA_XSP16, literal(-5)))
          CFI (cfiCond330) ?RET_HIGH load(1, XDATA, add(CFA_XSP16, literal(-4)))
          CFI (cfiCond330) ?BRET_EXT load(1, XDATA, add(CFA_XSP16, literal(-3)))
          CFI (cfiCond330) DPL0 load(1, XDATA, add(CFA_XSP16, literal(-2)))
          CFI (cfiCond330) DPH0 load(1, XDATA, add(CFA_XSP16, literal(-1)))
          CFI (cfiCond330) CFA_SP SP+-6
          CFI (cfiCond330) CFA_XSP16 add(XSP16, 14)
          CFI Block cfiCond331 Using cfiCommon0
          CFI (cfiCond331) Function MT_ZdoSendMsgCB
          CFI (cfiCond331) Conditional ??CrossCallReturnLabel_108, ??CrossCallReturnLabel_93, ??CrossCallReturnLabel_28
          CFI (cfiCond331) R6 load(1, XDATA, add(CFA_XSP16, literal(-14)))
          CFI (cfiCond331) VB load(1, XDATA, add(CFA_XSP16, literal(-13)))
          CFI (cfiCond331) V0 load(1, XDATA, add(CFA_XSP16, literal(-12)))
          CFI (cfiCond331) V1 load(1, XDATA, add(CFA_XSP16, literal(-11)))
          CFI (cfiCond331) V2 load(1, XDATA, add(CFA_XSP16, literal(-10)))
          CFI (cfiCond331) V3 load(1, XDATA, add(CFA_XSP16, literal(-9)))
          CFI (cfiCond331) V4 load(1, XDATA, add(CFA_XSP16, literal(-8)))
          CFI (cfiCond331) V5 load(1, XDATA, add(CFA_XSP16, literal(-7)))
          CFI (cfiCond331) R7 load(1, XDATA, add(CFA_XSP16, literal(-6)))
          CFI (cfiCond331) ?RET_LOW load(1, XDATA, add(CFA_XSP16, literal(-5)))
          CFI (cfiCond331) ?RET_HIGH load(1, XDATA, add(CFA_XSP16, literal(-4)))
          CFI (cfiCond331) ?BRET_EXT load(1, XDATA, add(CFA_XSP16, literal(-3)))
          CFI (cfiCond331) DPL0 load(1, XDATA, add(CFA_XSP16, literal(-2)))
          CFI (cfiCond331) DPH0 load(1, XDATA, add(CFA_XSP16, literal(-1)))
          CFI (cfiCond331) CFA_SP SP+-6
          CFI (cfiCond331) CFA_XSP16 add(XSP16, 14)
          CFI Block cfiCond332 Using cfiCommon0
          CFI (cfiCond332) Function MT_ZdoSendMsgCB
          CFI (cfiCond332) Conditional ??CrossCallReturnLabel_108, ??CrossCallReturnLabel_93, ??CrossCallReturnLabel_29
          CFI (cfiCond332) R6 load(1, XDATA, add(CFA_XSP16, literal(-14)))
          CFI (cfiCond332) VB load(1, XDATA, add(CFA_XSP16, literal(-13)))
          CFI (cfiCond332) V0 load(1, XDATA, add(CFA_XSP16, literal(-12)))
          CFI (cfiCond332) V1 load(1, XDATA, add(CFA_XSP16, literal(-11)))
          CFI (cfiCond332) V2 load(1, XDATA, add(CFA_XSP16, literal(-10)))
          CFI (cfiCond332) V3 load(1, XDATA, add(CFA_XSP16, literal(-9)))
          CFI (cfiCond332) V4 load(1, XDATA, add(CFA_XSP16, literal(-8)))
          CFI (cfiCond332) V5 load(1, XDATA, add(CFA_XSP16, literal(-7)))
          CFI (cfiCond332) R7 load(1, XDATA, add(CFA_XSP16, literal(-6)))
          CFI (cfiCond332) ?RET_LOW load(1, XDATA, add(CFA_XSP16, literal(-5)))
          CFI (cfiCond332) ?RET_HIGH load(1, XDATA, add(CFA_XSP16, literal(-4)))
          CFI (cfiCond332) ?BRET_EXT load(1, XDATA, add(CFA_XSP16, literal(-3)))
          CFI (cfiCond332) DPL0 load(1, XDATA, add(CFA_XSP16, literal(-2)))
          CFI (cfiCond332) DPH0 load(1, XDATA, add(CFA_XSP16, literal(-1)))
          CFI (cfiCond332) CFA_SP SP+-6
          CFI (cfiCond332) CFA_XSP16 add(XSP16, 14)
          CFI Block cfiPicker333 Using cfiCommon1
          CFI (cfiPicker333) NoFunction
          CFI (cfiPicker333) Picker
        MOVX      A,@DPTR
        MOV       DPL,R6
        MOV       DPH,R7
        INC       DPTR
        INC       DPTR
        INC       DPTR
        RET
          CFI EndBlock cfiCond327
          CFI EndBlock cfiCond328
          CFI EndBlock cfiCond329
          CFI EndBlock cfiCond330
          CFI EndBlock cfiCond331
          CFI EndBlock cfiCond332
          CFI EndBlock cfiPicker333

        RSEG BANKED_CODE:HUGECODE:NOROOT(0)
?Subroutine23:
          CFI Block cfiCond334 Using cfiCommon0
          CFI Function MT_ZdoSendMsgCB
          CFI Conditional ??CrossCallReturnLabel_34
          CFI R6 load(1, XDATA, add(CFA_XSP16, literal(-14)))
          CFI VB load(1, XDATA, add(CFA_XSP16, literal(-13)))
          CFI V0 load(1, XDATA, add(CFA_XSP16, literal(-12)))
          CFI V1 load(1, XDATA, add(CFA_XSP16, literal(-11)))
          CFI V2 load(1, XDATA, add(CFA_XSP16, literal(-10)))
          CFI V3 load(1, XDATA, add(CFA_XSP16, literal(-9)))
          CFI V4 load(1, XDATA, add(CFA_XSP16, literal(-8)))
          CFI V5 load(1, XDATA, add(CFA_XSP16, literal(-7)))
          CFI R7 load(1, XDATA, add(CFA_XSP16, literal(-6)))
          CFI ?RET_LOW load(1, XDATA, add(CFA_XSP16, literal(-5)))
          CFI ?RET_HIGH load(1, XDATA, add(CFA_XSP16, literal(-4)))
          CFI ?BRET_EXT load(1, XDATA, add(CFA_XSP16, literal(-3)))
          CFI DPL0 load(1, XDATA, add(CFA_XSP16, literal(-2)))
          CFI DPH0 load(1, XDATA, add(CFA_XSP16, literal(-1)))
          CFI CFA_SP SP+-2
          CFI CFA_XSP16 add(XSP16, 14)
          CFI Block cfiCond335 Using cfiCommon0
          CFI (cfiCond335) Function MT_ZdoSendMsgCB
          CFI (cfiCond335) Conditional ??CrossCallReturnLabel_35
          CFI (cfiCond335) R6 load(1, XDATA, add(CFA_XSP16, literal(-14)))
          CFI (cfiCond335) VB load(1, XDATA, add(CFA_XSP16, literal(-13)))
          CFI (cfiCond335) V0 load(1, XDATA, add(CFA_XSP16, literal(-12)))
          CFI (cfiCond335) V1 load(1, XDATA, add(CFA_XSP16, literal(-11)))
          CFI (cfiCond335) V2 load(1, XDATA, add(CFA_XSP16, literal(-10)))
          CFI (cfiCond335) V3 load(1, XDATA, add(CFA_XSP16, literal(-9)))
          CFI (cfiCond335) V4 load(1, XDATA, add(CFA_XSP16, literal(-8)))
          CFI (cfiCond335) V5 load(1, XDATA, add(CFA_XSP16, literal(-7)))
          CFI (cfiCond335) R7 load(1, XDATA, add(CFA_XSP16, literal(-6)))
          CFI (cfiCond335) ?RET_LOW load(1, XDATA, add(CFA_XSP16, literal(-5)))
          CFI (cfiCond335) ?RET_HIGH load(1, XDATA, add(CFA_XSP16, literal(-4)))
          CFI (cfiCond335) ?BRET_EXT load(1, XDATA, add(CFA_XSP16, literal(-3)))
          CFI (cfiCond335) DPL0 load(1, XDATA, add(CFA_XSP16, literal(-2)))
          CFI (cfiCond335) DPH0 load(1, XDATA, add(CFA_XSP16, literal(-1)))
          CFI (cfiCond335) CFA_SP SP+-2
          CFI (cfiCond335) CFA_XSP16 add(XSP16, 14)
          CFI Block cfiPicker336 Using cfiCommon1
          CFI (cfiPicker336) NoFunction
          CFI (cfiPicker336) Picker
        MOV       DPL,A
        CLR       A
        ADDC      A,?V5
        MOV       DPH,A
        LCALL     ?Subroutine51 & 0xFFFF
??CrossCallReturnLabel_94:
        RET
          CFI EndBlock cfiCond334
          CFI EndBlock cfiCond335
          CFI EndBlock cfiPicker336

        RSEG BANKED_CODE:HUGECODE:NOROOT(0)
?Subroutine51:
          CFI Block cfiCond337 Using cfiCommon0
          CFI Function MT_ZdoSendMsgCB
          CFI Conditional ??CrossCallReturnLabel_94, ??CrossCallReturnLabel_34
          CFI R6 load(1, XDATA, add(CFA_XSP16, literal(-14)))
          CFI VB load(1, XDATA, add(CFA_XSP16, literal(-13)))
          CFI V0 load(1, XDATA, add(CFA_XSP16, literal(-12)))
          CFI V1 load(1, XDATA, add(CFA_XSP16, literal(-11)))
          CFI V2 load(1, XDATA, add(CFA_XSP16, literal(-10)))
          CFI V3 load(1, XDATA, add(CFA_XSP16, literal(-9)))
          CFI V4 load(1, XDATA, add(CFA_XSP16, literal(-8)))
          CFI V5 load(1, XDATA, add(CFA_XSP16, literal(-7)))
          CFI R7 load(1, XDATA, add(CFA_XSP16, literal(-6)))
          CFI ?RET_LOW load(1, XDATA, add(CFA_XSP16, literal(-5)))
          CFI ?RET_HIGH load(1, XDATA, add(CFA_XSP16, literal(-4)))
          CFI ?BRET_EXT load(1, XDATA, add(CFA_XSP16, literal(-3)))
          CFI DPL0 load(1, XDATA, add(CFA_XSP16, literal(-2)))
          CFI DPH0 load(1, XDATA, add(CFA_XSP16, literal(-1)))
          CFI CFA_SP SP+-4
          CFI CFA_XSP16 add(XSP16, 14)
          CFI Block cfiCond338 Using cfiCommon0
          CFI (cfiCond338) Function MT_ZdoSendMsgCB
          CFI (cfiCond338) Conditional ??CrossCallReturnLabel_94, ??CrossCallReturnLabel_35
          CFI (cfiCond338) R6 load(1, XDATA, add(CFA_XSP16, literal(-14)))
          CFI (cfiCond338) VB load(1, XDATA, add(CFA_XSP16, literal(-13)))
          CFI (cfiCond338) V0 load(1, XDATA, add(CFA_XSP16, literal(-12)))
          CFI (cfiCond338) V1 load(1, XDATA, add(CFA_XSP16, literal(-11)))
          CFI (cfiCond338) V2 load(1, XDATA, add(CFA_XSP16, literal(-10)))
          CFI (cfiCond338) V3 load(1, XDATA, add(CFA_XSP16, literal(-9)))
          CFI (cfiCond338) V4 load(1, XDATA, add(CFA_XSP16, literal(-8)))
          CFI (cfiCond338) V5 load(1, XDATA, add(CFA_XSP16, literal(-7)))
          CFI (cfiCond338) R7 load(1, XDATA, add(CFA_XSP16, literal(-6)))
          CFI (cfiCond338) ?RET_LOW load(1, XDATA, add(CFA_XSP16, literal(-5)))
          CFI (cfiCond338) ?RET_HIGH load(1, XDATA, add(CFA_XSP16, literal(-4)))
          CFI (cfiCond338) ?BRET_EXT load(1, XDATA, add(CFA_XSP16, literal(-3)))
          CFI (cfiCond338) DPL0 load(1, XDATA, add(CFA_XSP16, literal(-2)))
          CFI (cfiCond338) DPH0 load(1, XDATA, add(CFA_XSP16, literal(-1)))
          CFI (cfiCond338) CFA_SP SP+-4
          CFI (cfiCond338) CFA_XSP16 add(XSP16, 14)
          CFI Block cfiCond339 Using cfiCommon0
          CFI (cfiCond339) Function MT_ZdoSendMsgCB
          CFI (cfiCond339) Conditional ??CrossCallReturnLabel_93, ??CrossCallReturnLabel_28
          CFI (cfiCond339) R6 load(1, XDATA, add(CFA_XSP16, literal(-14)))
          CFI (cfiCond339) VB load(1, XDATA, add(CFA_XSP16, literal(-13)))
          CFI (cfiCond339) V0 load(1, XDATA, add(CFA_XSP16, literal(-12)))
          CFI (cfiCond339) V1 load(1, XDATA, add(CFA_XSP16, literal(-11)))
          CFI (cfiCond339) V2 load(1, XDATA, add(CFA_XSP16, literal(-10)))
          CFI (cfiCond339) V3 load(1, XDATA, add(CFA_XSP16, literal(-9)))
          CFI (cfiCond339) V4 load(1, XDATA, add(CFA_XSP16, literal(-8)))
          CFI (cfiCond339) V5 load(1, XDATA, add(CFA_XSP16, literal(-7)))
          CFI (cfiCond339) R7 load(1, XDATA, add(CFA_XSP16, literal(-6)))
          CFI (cfiCond339) ?RET_LOW load(1, XDATA, add(CFA_XSP16, literal(-5)))
          CFI (cfiCond339) ?RET_HIGH load(1, XDATA, add(CFA_XSP16, literal(-4)))
          CFI (cfiCond339) ?BRET_EXT load(1, XDATA, add(CFA_XSP16, literal(-3)))
          CFI (cfiCond339) DPL0 load(1, XDATA, add(CFA_XSP16, literal(-2)))
          CFI (cfiCond339) DPH0 load(1, XDATA, add(CFA_XSP16, literal(-1)))
          CFI (cfiCond339) CFA_SP SP+-4
          CFI (cfiCond339) CFA_XSP16 add(XSP16, 14)
          CFI Block cfiCond340 Using cfiCommon0
          CFI (cfiCond340) Function MT_ZdoSendMsgCB
          CFI (cfiCond340) Conditional ??CrossCallReturnLabel_93, ??CrossCallReturnLabel_29
          CFI (cfiCond340) R6 load(1, XDATA, add(CFA_XSP16, literal(-14)))
          CFI (cfiCond340) VB load(1, XDATA, add(CFA_XSP16, literal(-13)))
          CFI (cfiCond340) V0 load(1, XDATA, add(CFA_XSP16, literal(-12)))
          CFI (cfiCond340) V1 load(1, XDATA, add(CFA_XSP16, literal(-11)))
          CFI (cfiCond340) V2 load(1, XDATA, add(CFA_XSP16, literal(-10)))
          CFI (cfiCond340) V3 load(1, XDATA, add(CFA_XSP16, literal(-9)))
          CFI (cfiCond340) V4 load(1, XDATA, add(CFA_XSP16, literal(-8)))
          CFI (cfiCond340) V5 load(1, XDATA, add(CFA_XSP16, literal(-7)))
          CFI (cfiCond340) R7 load(1, XDATA, add(CFA_XSP16, literal(-6)))
          CFI (cfiCond340) ?RET_LOW load(1, XDATA, add(CFA_XSP16, literal(-5)))
          CFI (cfiCond340) ?RET_HIGH load(1, XDATA, add(CFA_XSP16, literal(-4)))
          CFI (cfiCond340) ?BRET_EXT load(1, XDATA, add(CFA_XSP16, literal(-3)))
          CFI (cfiCond340) DPL0 load(1, XDATA, add(CFA_XSP16, literal(-2)))
          CFI (cfiCond340) DPH0 load(1, XDATA, add(CFA_XSP16, literal(-1)))
          CFI (cfiCond340) CFA_SP SP+-4
          CFI (cfiCond340) CFA_XSP16 add(XSP16, 14)
          CFI Block cfiPicker341 Using cfiCommon1
          CFI (cfiPicker341) NoFunction
          CFI (cfiPicker341) Picker
        LCALL     ?Subroutine58 & 0xFFFF
??CrossCallReturnLabel_108:
        INC       DPTR
        INC       DPTR
        RET
          CFI EndBlock cfiCond337
          CFI EndBlock cfiCond338
          CFI EndBlock cfiCond339
          CFI EndBlock cfiCond340
          CFI EndBlock cfiPicker341

        RSEG BANKED_CODE:HUGECODE:NOROOT(0)
?Subroutine20:
          CFI Block cfiCond342 Using cfiCommon0
          CFI Function MT_ZdoSendMsgCB
          CFI Conditional ??CrossCallReturnLabel_28
          CFI R6 load(1, XDATA, add(CFA_XSP16, literal(-14)))
          CFI VB load(1, XDATA, add(CFA_XSP16, literal(-13)))
          CFI V0 load(1, XDATA, add(CFA_XSP16, literal(-12)))
          CFI V1 load(1, XDATA, add(CFA_XSP16, literal(-11)))
          CFI V2 load(1, XDATA, add(CFA_XSP16, literal(-10)))
          CFI V3 load(1, XDATA, add(CFA_XSP16, literal(-9)))
          CFI V4 load(1, XDATA, add(CFA_XSP16, literal(-8)))
          CFI V5 load(1, XDATA, add(CFA_XSP16, literal(-7)))
          CFI R7 load(1, XDATA, add(CFA_XSP16, literal(-6)))
          CFI ?RET_LOW load(1, XDATA, add(CFA_XSP16, literal(-5)))
          CFI ?RET_HIGH load(1, XDATA, add(CFA_XSP16, literal(-4)))
          CFI ?BRET_EXT load(1, XDATA, add(CFA_XSP16, literal(-3)))
          CFI DPL0 load(1, XDATA, add(CFA_XSP16, literal(-2)))
          CFI DPH0 load(1, XDATA, add(CFA_XSP16, literal(-1)))
          CFI CFA_SP SP+-2
          CFI CFA_XSP16 add(XSP16, 14)
          CFI Block cfiCond343 Using cfiCommon0
          CFI (cfiCond343) Function MT_ZdoSendMsgCB
          CFI (cfiCond343) Conditional ??CrossCallReturnLabel_29
          CFI (cfiCond343) R6 load(1, XDATA, add(CFA_XSP16, literal(-14)))
          CFI (cfiCond343) VB load(1, XDATA, add(CFA_XSP16, literal(-13)))
          CFI (cfiCond343) V0 load(1, XDATA, add(CFA_XSP16, literal(-12)))
          CFI (cfiCond343) V1 load(1, XDATA, add(CFA_XSP16, literal(-11)))
          CFI (cfiCond343) V2 load(1, XDATA, add(CFA_XSP16, literal(-10)))
          CFI (cfiCond343) V3 load(1, XDATA, add(CFA_XSP16, literal(-9)))
          CFI (cfiCond343) V4 load(1, XDATA, add(CFA_XSP16, literal(-8)))
          CFI (cfiCond343) V5 load(1, XDATA, add(CFA_XSP16, literal(-7)))
          CFI (cfiCond343) R7 load(1, XDATA, add(CFA_XSP16, literal(-6)))
          CFI (cfiCond343) ?RET_LOW load(1, XDATA, add(CFA_XSP16, literal(-5)))
          CFI (cfiCond343) ?RET_HIGH load(1, XDATA, add(CFA_XSP16, literal(-4)))
          CFI (cfiCond343) ?BRET_EXT load(1, XDATA, add(CFA_XSP16, literal(-3)))
          CFI (cfiCond343) DPL0 load(1, XDATA, add(CFA_XSP16, literal(-2)))
          CFI (cfiCond343) DPH0 load(1, XDATA, add(CFA_XSP16, literal(-1)))
          CFI (cfiCond343) CFA_SP SP+-2
          CFI (cfiCond343) CFA_XSP16 add(XSP16, 14)
          CFI Block cfiPicker344 Using cfiCommon1
          CFI (cfiPicker344) NoFunction
          CFI (cfiPicker344) Picker
        LCALL     ?Subroutine51 & 0xFFFF
??CrossCallReturnLabel_93:
        INC       DPTR
        INC       DPTR
        RET
          CFI EndBlock cfiCond342
          CFI EndBlock cfiCond343
          CFI EndBlock cfiPicker344

        RSEG BANK_RELAYS:CODE:REORDER:NOROOT(0)
`??MT_ZdoInit::?relay`:
        CODE
        LCALL   ?BDISPATCH
        DATA24
        DC24    MT_ZdoInit

        RSEG BANK_RELAYS:CODE:REORDER:NOROOT(0)
`??MT_ZdoCommandProcessing::?relay`:
        CODE
        LCALL   ?BDISPATCH
        DATA24
        DC24    MT_ZdoCommandProcessing

        RSEG BANK_RELAYS:CODE:REORDER:NOROOT(0)
`??MT_ZdoNWKAddressRequest::?relay`:
        CODE
        LCALL   ?BDISPATCH
        DATA24
        DC24    MT_ZdoNWKAddressRequest

        RSEG BANK_RELAYS:CODE:REORDER:NOROOT(0)
`??MT_ZdoIEEEAddrRequest::?relay`:
        CODE
        LCALL   ?BDISPATCH
        DATA24
        DC24    MT_ZdoIEEEAddrRequest

        RSEG BANK_RELAYS:CODE:REORDER:NOROOT(0)
`??MT_ZdoNodeDescRequest::?relay`:
        CODE
        LCALL   ?BDISPATCH
        DATA24
        DC24    MT_ZdoNodeDescRequest

        RSEG BANK_RELAYS:CODE:REORDER:NOROOT(0)
`??MT_ZdoPowerDescRequest::?relay`:
        CODE
        LCALL   ?BDISPATCH
        DATA24
        DC24    MT_ZdoPowerDescRequest

        RSEG BANK_RELAYS:CODE:REORDER:NOROOT(0)
`??MT_ZdoSimpleDescRequest::?relay`:
        CODE
        LCALL   ?BDISPATCH
        DATA24
        DC24    MT_ZdoSimpleDescRequest

        RSEG BANK_RELAYS:CODE:REORDER:NOROOT(0)
`??MT_ZdoActiveEpRequest::?relay`:
        CODE
        LCALL   ?BDISPATCH
        DATA24
        DC24    MT_ZdoActiveEpRequest

        RSEG BANK_RELAYS:CODE:REORDER:NOROOT(0)
`??MT_ZdoMatchDescRequest::?relay`:
        CODE
        LCALL   ?BDISPATCH
        DATA24
        DC24    MT_ZdoMatchDescRequest

        RSEG BANK_RELAYS:CODE:REORDER:NOROOT(0)
`??MT_ZdoComplexDescRequest::?relay`:
        CODE
        LCALL   ?BDISPATCH
        DATA24
        DC24    MT_ZdoComplexDescRequest

        RSEG BANK_RELAYS:CODE:REORDER:NOROOT(0)
`??MT_ZdoUserDescRequest::?relay`:
        CODE
        LCALL   ?BDISPATCH
        DATA24
        DC24    MT_ZdoUserDescRequest

        RSEG BANK_RELAYS:CODE:REORDER:NOROOT(0)
`??MT_ZdoEndDevAnnce::?relay`:
        CODE
        LCALL   ?BDISPATCH
        DATA24
        DC24    MT_ZdoEndDevAnnce

        RSEG BANK_RELAYS:CODE:REORDER:NOROOT(0)
`??MT_ZdoUserDescSet::?relay`:
        CODE
        LCALL   ?BDISPATCH
        DATA24
        DC24    MT_ZdoUserDescSet

        RSEG BANK_RELAYS:CODE:REORDER:NOROOT(0)
`??MT_ZdoServiceDiscRequest::?relay`:
        CODE
        LCALL   ?BDISPATCH
        DATA24
        DC24    MT_ZdoServiceDiscRequest

        RSEG BANK_RELAYS:CODE:REORDER:NOROOT(0)
`??MT_ZdoEndDevBindRequest::?relay`:
        CODE
        LCALL   ?BDISPATCH
        DATA24
        DC24    MT_ZdoEndDevBindRequest

        RSEG BANK_RELAYS:CODE:REORDER:NOROOT(0)
`??MT_ZdoBindRequest::?relay`:
        CODE
        LCALL   ?BDISPATCH
        DATA24
        DC24    MT_ZdoBindRequest

        RSEG BANK_RELAYS:CODE:REORDER:NOROOT(0)
`??MT_ZdoUnbindRequest::?relay`:
        CODE
        LCALL   ?BDISPATCH
        DATA24
        DC24    MT_ZdoUnbindRequest

        RSEG BANK_RELAYS:CODE:REORDER:NOROOT(0)
`??MT_ZdoStartupFromApp::?relay`:
        CODE
        LCALL   ?BDISPATCH
        DATA24
        DC24    MT_ZdoStartupFromApp

        RSEG BANK_RELAYS:CODE:REORDER:NOROOT(0)
`??MT_ZdoNetworkDiscoveryReq::?relay`:
        CODE
        LCALL   ?BDISPATCH
        DATA24
        DC24    MT_ZdoNetworkDiscoveryReq

        RSEG BANK_RELAYS:CODE:REORDER:NOROOT(0)
`??MT_ZdoJoinReq::?relay`:
        CODE
        LCALL   ?BDISPATCH
        DATA24
        DC24    MT_ZdoJoinReq

        RSEG BANK_RELAYS:CODE:REORDER:NOROOT(0)
`??MT_ZdoNwkDiscoveryCnfCB::?relay`:
        CODE
        LCALL   ?BDISPATCH
        DATA24
        DC24    MT_ZdoNwkDiscoveryCnfCB

        RSEG BANK_RELAYS:CODE:REORDER:NOROOT(0)
`??MT_ZdoBeaconIndCB::?relay`:
        CODE
        LCALL   ?BDISPATCH
        DATA24
        DC24    MT_ZdoBeaconIndCB

        RSEG BANK_RELAYS:CODE:REORDER:NOROOT(0)
`??MT_ZdoJoinCnfCB::?relay`:
        CODE
        LCALL   ?BDISPATCH
        DATA24
        DC24    MT_ZdoJoinCnfCB

        RSEG BANK_RELAYS:CODE:REORDER:NOROOT(0)
`??MT_ZdoRegisterForZDOMsg::?relay`:
        CODE
        LCALL   ?BDISPATCH
        DATA24
        DC24    MT_ZdoRegisterForZDOMsg

        RSEG BANK_RELAYS:CODE:REORDER:NOROOT(0)
`??MT_ZdoRemoveRegisteredCB::?relay`:
        CODE
        LCALL   ?BDISPATCH
        DATA24
        DC24    MT_ZdoRemoveRegisteredCB

        RSEG BANK_RELAYS:CODE:REORDER:NOROOT(0)
`??MT_ZdoSendMsgCB::?relay`:
        CODE
        LCALL   ?BDISPATCH
        DATA24
        DC24    MT_ZdoSendMsgCB

        END
// 2157 
// 2158 #endif   /*ZDO Command Processing in MT*/
// 2159 /***************************************************************************************************
// 2160 ***************************************************************************************************/
// 
// 3 579 bytes in segment BANKED_CODE
//   156 bytes in segment BANK_RELAYS
//     6 bytes in segment XDATA_Z
// 
//   156 bytes of CODE     memory
// 3 579 bytes of HUGECODE memory
//     6 bytes of XDATA    memory
//
//Errors: none
//Warnings: none
